c000  4c f5 c5 JMP $c5f5 = a2                  A:00 X:00 Y:00 P:24 SP:fd  STACK: 00 00
c5f5  a2 00    LDX #$00                        A:00 X:00 Y:00 P:24 SP:fd  STACK: 00 00
c5f7  86 00    STX $00 = 00                    A:00 X:00 Y:00 P:26 SP:fd  STACK: 00 00
c5f9  86 10    STX $10 = 00                    A:00 X:00 Y:00 P:26 SP:fd  STACK: 00 00
c5fb  86 11    STX $11 = 00                    A:00 X:00 Y:00 P:26 SP:fd  STACK: 00 00
c5fd  20 2d c7 JSR $c72d = ea                  A:00 X:00 Y:00 P:26 SP:fd  STACK: 00 00
c72d  ea       NOP                             A:00 X:00 Y:00 P:26 SP:fb  STACK: 00 00 c5 ff
c72e  38       SEC                             A:00 X:00 Y:00 P:26 SP:fb  STACK: 00 00 c5 ff
c72f  b0 04    BCS $c735                       A:00 X:00 Y:00 P:27 SP:fb  STACK: 00 00 c5 ff
c735  ea       NOP                             A:00 X:00 Y:00 P:27 SP:fb  STACK: 00 00 c5 ff
c736  18       CLC                             A:00 X:00 Y:00 P:27 SP:fb  STACK: 00 00 c5 ff
c737  b0 03    BCS $c73c                       A:00 X:00 Y:00 P:26 SP:fb  STACK: 00 00 c5 ff
c739  4c 40 c7 JMP $c740 = ea                  A:00 X:00 Y:00 P:26 SP:fb  STACK: 00 00 c5 ff
c740  ea       NOP                             A:00 X:00 Y:00 P:26 SP:fb  STACK: 00 00 c5 ff
c741  38       SEC                             A:00 X:00 Y:00 P:26 SP:fb  STACK: 00 00 c5 ff
c742  90 03    BCC $c747                       A:00 X:00 Y:00 P:27 SP:fb  STACK: 00 00 c5 ff
c744  4c 4b c7 JMP $c74b = ea                  A:00 X:00 Y:00 P:27 SP:fb  STACK: 00 00 c5 ff
c74b  ea       NOP                             A:00 X:00 Y:00 P:27 SP:fb  STACK: 00 00 c5 ff
c74c  18       CLC                             A:00 X:00 Y:00 P:27 SP:fb  STACK: 00 00 c5 ff
c74d  90 04    BCC $c753                       A:00 X:00 Y:00 P:26 SP:fb  STACK: 00 00 c5 ff
c753  ea       NOP                             A:00 X:00 Y:00 P:26 SP:fb  STACK: 00 00 c5 ff
c754  a9 00    LDA #$00                        A:00 X:00 Y:00 P:26 SP:fb  STACK: 00 00 c5 ff
c756  f0 04    BEQ $c75c                       A:00 X:00 Y:00 P:26 SP:fb  STACK: 00 00 c5 ff
c75c  ea       NOP                             A:00 X:00 Y:00 P:26 SP:fb  STACK: 00 00 c5 ff
c75d  a9 40    LDA #$40                        A:00 X:00 Y:00 P:26 SP:fb  STACK: 00 00 c5 ff
c75f  f0 03    BEQ $c764                       A:40 X:00 Y:00 P:24 SP:fb  STACK: 00 00 c5 ff
c761  4c 68 c7 JMP $c768 = ea                  A:40 X:00 Y:00 P:24 SP:fb  STACK: 00 00 c5 ff
c768  ea       NOP                             A:40 X:00 Y:00 P:24 SP:fb  STACK: 00 00 c5 ff
c769  a9 40    LDA #$40                        A:40 X:00 Y:00 P:24 SP:fb  STACK: 00 00 c5 ff
c76b  d0 04    BNE $c771                       A:40 X:00 Y:00 P:24 SP:fb  STACK: 00 00 c5 ff
c771  ea       NOP                             A:40 X:00 Y:00 P:24 SP:fb  STACK: 00 00 c5 ff
c772  a9 00    LDA #$00                        A:40 X:00 Y:00 P:24 SP:fb  STACK: 00 00 c5 ff
c774  d0 03    BNE $c779                       A:00 X:00 Y:00 P:26 SP:fb  STACK: 00 00 c5 ff
c776  4c 7d c7 JMP $c77d = ea                  A:00 X:00 Y:00 P:26 SP:fb  STACK: 00 00 c5 ff
c77d  ea       NOP                             A:00 X:00 Y:00 P:26 SP:fb  STACK: 00 00 c5 ff
c77e  a9 ff    LDA #$ff                        A:00 X:00 Y:00 P:26 SP:fb  STACK: 00 00 c5 ff
c780  85 01    STA $01 = 00                    A:ff X:00 Y:00 P:a4 SP:fb  STACK: 00 00 c5 ff
c782  24 01    BIT $01 = ff                    A:ff X:00 Y:00 P:a4 SP:fb  STACK: 00 00 c5 ff
c784  70 04    BVS $c78a                       A:ff X:00 Y:00 P:e4 SP:fb  STACK: 00 00 c5 ff
c78a  ea       NOP                             A:ff X:00 Y:00 P:e4 SP:fb  STACK: 00 00 c5 ff
c78b  24 01    BIT $01 = ff                    A:ff X:00 Y:00 P:e4 SP:fb  STACK: 00 00 c5 ff
c78d  50 03    BVC $c792                       A:ff X:00 Y:00 P:e4 SP:fb  STACK: 00 00 c5 ff
c78f  4c 96 c7 JMP $c796 = ea                  A:ff X:00 Y:00 P:e4 SP:fb  STACK: 00 00 c5 ff
c796  ea       NOP                             A:ff X:00 Y:00 P:e4 SP:fb  STACK: 00 00 c5 ff
c797  a9 00    LDA #$00                        A:ff X:00 Y:00 P:e4 SP:fb  STACK: 00 00 c5 ff
c799  85 01    STA $01 = ff                    A:00 X:00 Y:00 P:66 SP:fb  STACK: 00 00 c5 ff
c79b  24 01    BIT $01 = 00                    A:00 X:00 Y:00 P:66 SP:fb  STACK: 00 00 c5 ff
c79d  50 04    BVC $c7a3                       A:00 X:00 Y:00 P:26 SP:fb  STACK: 00 00 c5 ff
c7a3  ea       NOP                             A:00 X:00 Y:00 P:26 SP:fb  STACK: 00 00 c5 ff
c7a4  24 01    BIT $01 = 00                    A:00 X:00 Y:00 P:26 SP:fb  STACK: 00 00 c5 ff
c7a6  70 03    BVS $c7ab                       A:00 X:00 Y:00 P:26 SP:fb  STACK: 00 00 c5 ff
c7a8  4c af c7 JMP $c7af = ea                  A:00 X:00 Y:00 P:26 SP:fb  STACK: 00 00 c5 ff
c7af  ea       NOP                             A:00 X:00 Y:00 P:26 SP:fb  STACK: 00 00 c5 ff
c7b0  a9 00    LDA #$00                        A:00 X:00 Y:00 P:26 SP:fb  STACK: 00 00 c5 ff
c7b2  10 04    BPL $c7b8                       A:00 X:00 Y:00 P:26 SP:fb  STACK: 00 00 c5 ff
c7b8  ea       NOP                             A:00 X:00 Y:00 P:26 SP:fb  STACK: 00 00 c5 ff
c7b9  a9 80    LDA #$80                        A:00 X:00 Y:00 P:26 SP:fb  STACK: 00 00 c5 ff
c7bb  10 03    BPL $c7c0                       A:80 X:00 Y:00 P:a4 SP:fb  STACK: 00 00 c5 ff
c7bd  4c d9 c7 JMP $c7d9 = ea                  A:80 X:00 Y:00 P:a4 SP:fb  STACK: 00 00 c5 ff
c7d9  ea       NOP                             A:80 X:00 Y:00 P:a4 SP:fb  STACK: 00 00 c5 ff
c7da  60       RTS                             A:80 X:00 Y:00 P:a4 SP:fb  STACK: 00 00 c5 ff
c600  20 db c7 JSR $c7db = ea                  A:80 X:00 Y:00 P:a4 SP:fd  STACK: 00 00
c7db  ea       NOP                             A:80 X:00 Y:00 P:a4 SP:fb  STACK: 00 00 c6 02
c7dc  a9 ff    LDA #$ff                        A:80 X:00 Y:00 P:a4 SP:fb  STACK: 00 00 c6 02
c7de  85 01    STA $01 = 00                    A:ff X:00 Y:00 P:a4 SP:fb  STACK: 00 00 c6 02
c7e0  24 01    BIT $01 = ff                    A:ff X:00 Y:00 P:a4 SP:fb  STACK: 00 00 c6 02
c7e2  a9 00    LDA #$00                        A:ff X:00 Y:00 P:e4 SP:fb  STACK: 00 00 c6 02
c7e4  38       SEC                             A:00 X:00 Y:00 P:66 SP:fb  STACK: 00 00 c6 02
c7e5  78       SEI                             A:00 X:00 Y:00 P:67 SP:fb  STACK: 00 00 c6 02
c7e6  f8       SED                             A:00 X:00 Y:00 P:67 SP:fb  STACK: 00 00 c6 02
c7e7  08       PHP                             A:00 X:00 Y:00 P:6f SP:fb  STACK: 00 00 c6 02
c7e8  68       PLA                             A:00 X:00 Y:00 P:6f SP:fa  STACK: 00 00 c6 02 6f
c7e9  29 ef    AND #$ef                        A:6f X:00 Y:00 P:6d SP:fb  STACK: 00 00 c6 02
c7eb  c9 6f    CMP #$6f                        A:6f X:00 Y:00 P:6d SP:fb  STACK: 00 00 c6 02
c7ed  f0 04    BEQ $c7f3                       A:6f X:00 Y:00 P:6f SP:fb  STACK: 00 00 c6 02
c7f3  ea       NOP                             A:6f X:00 Y:00 P:6f SP:fb  STACK: 00 00 c6 02
c7f4  a9 40    LDA #$40                        A:6f X:00 Y:00 P:6f SP:fb  STACK: 00 00 c6 02
c7f6  85 01    STA $01 = ff                    A:40 X:00 Y:00 P:6d SP:fb  STACK: 00 00 c6 02
c7f8  24 01    BIT $01 = 40                    A:40 X:00 Y:00 P:6d SP:fb  STACK: 00 00 c6 02
c7fa  d8       CLD                             A:40 X:00 Y:00 P:6d SP:fb  STACK: 00 00 c6 02
c7fb  a9 10    LDA #$10                        A:40 X:00 Y:00 P:65 SP:fb  STACK: 00 00 c6 02
c7fd  18       CLC                             A:10 X:00 Y:00 P:65 SP:fb  STACK: 00 00 c6 02
c7fe  08       PHP                             A:10 X:00 Y:00 P:64 SP:fb  STACK: 00 00 c6 02
c7ff  68       PLA                             A:10 X:00 Y:00 P:64 SP:fa  STACK: 00 00 c6 02 64
c800  29 ef    AND #$ef                        A:64 X:00 Y:00 P:64 SP:fb  STACK: 00 00 c6 02
c802  c9 64    CMP #$64                        A:64 X:00 Y:00 P:64 SP:fb  STACK: 00 00 c6 02
c804  f0 04    BEQ $c80a                       A:64 X:00 Y:00 P:67 SP:fb  STACK: 00 00 c6 02
c80a  ea       NOP                             A:64 X:00 Y:00 P:67 SP:fb  STACK: 00 00 c6 02
c80b  a9 80    LDA #$80                        A:64 X:00 Y:00 P:67 SP:fb  STACK: 00 00 c6 02
c80d  85 01    STA $01 = 40                    A:80 X:00 Y:00 P:e5 SP:fb  STACK: 00 00 c6 02
c80f  24 01    BIT $01 = 80                    A:80 X:00 Y:00 P:e5 SP:fb  STACK: 00 00 c6 02
c811  f8       SED                             A:80 X:00 Y:00 P:a5 SP:fb  STACK: 00 00 c6 02
c812  a9 00    LDA #$00                        A:80 X:00 Y:00 P:ad SP:fb  STACK: 00 00 c6 02
c814  38       SEC                             A:00 X:00 Y:00 P:2f SP:fb  STACK: 00 00 c6 02
c815  08       PHP                             A:00 X:00 Y:00 P:2f SP:fb  STACK: 00 00 c6 02
c816  68       PLA                             A:00 X:00 Y:00 P:2f SP:fa  STACK: 00 00 c6 02 2f
c817  29 ef    AND #$ef                        A:2f X:00 Y:00 P:2d SP:fb  STACK: 00 00 c6 02
c819  c9 2f    CMP #$2f                        A:2f X:00 Y:00 P:2d SP:fb  STACK: 00 00 c6 02
c81b  f0 04    BEQ $c821                       A:2f X:00 Y:00 P:2f SP:fb  STACK: 00 00 c6 02
c821  ea       NOP                             A:2f X:00 Y:00 P:2f SP:fb  STACK: 00 00 c6 02
c822  a9 ff    LDA #$ff                        A:2f X:00 Y:00 P:2f SP:fb  STACK: 00 00 c6 02
c824  48       PHA                             A:ff X:00 Y:00 P:ad SP:fb  STACK: 00 00 c6 02
c825  28       PLP                             A:ff X:00 Y:00 P:ad SP:fa  STACK: 00 00 c6 02 ff
c826  d0 09    BNE $c831                       A:ff X:00 Y:00 P:ef SP:fb  STACK: 00 00 c6 02
c828  10 07    BPL $c831                       A:ff X:00 Y:00 P:ef SP:fb  STACK: 00 00 c6 02
c82a  50 05    BVC $c831                       A:ff X:00 Y:00 P:ef SP:fb  STACK: 00 00 c6 02
c82c  90 03    BCC $c831                       A:ff X:00 Y:00 P:ef SP:fb  STACK: 00 00 c6 02
c82e  4c 35 c8 JMP $c835 = ea                  A:ff X:00 Y:00 P:ef SP:fb  STACK: 00 00 c6 02
c835  ea       NOP                             A:ff X:00 Y:00 P:ef SP:fb  STACK: 00 00 c6 02
c836  a9 04    LDA #$04                        A:ff X:00 Y:00 P:ef SP:fb  STACK: 00 00 c6 02
c838  48       PHA                             A:04 X:00 Y:00 P:6d SP:fb  STACK: 00 00 c6 02
c839  28       PLP                             A:04 X:00 Y:00 P:6d SP:fa  STACK: 00 00 c6 02 04
c83a  f0 09    BEQ $c845                       A:04 X:00 Y:00 P:24 SP:fb  STACK: 00 00 c6 02
c83c  30 07    BMI $c845                       A:04 X:00 Y:00 P:24 SP:fb  STACK: 00 00 c6 02
c83e  70 05    BVS $c845                       A:04 X:00 Y:00 P:24 SP:fb  STACK: 00 00 c6 02
c840  b0 03    BCS $c845                       A:04 X:00 Y:00 P:24 SP:fb  STACK: 00 00 c6 02
c842  4c 49 c8 JMP $c849 = ea                  A:04 X:00 Y:00 P:24 SP:fb  STACK: 00 00 c6 02
c849  ea       NOP                             A:04 X:00 Y:00 P:24 SP:fb  STACK: 00 00 c6 02
c84a  f8       SED                             A:04 X:00 Y:00 P:24 SP:fb  STACK: 00 00 c6 02
c84b  a9 ff    LDA #$ff                        A:04 X:00 Y:00 P:2c SP:fb  STACK: 00 00 c6 02
c84d  85 01    STA $01 = 80                    A:ff X:00 Y:00 P:ac SP:fb  STACK: 00 00 c6 02
c84f  24 01    BIT $01 = ff                    A:ff X:00 Y:00 P:ac SP:fb  STACK: 00 00 c6 02
c851  18       CLC                             A:ff X:00 Y:00 P:ec SP:fb  STACK: 00 00 c6 02
c852  a9 00    LDA #$00                        A:ff X:00 Y:00 P:ec SP:fb  STACK: 00 00 c6 02
c854  48       PHA                             A:00 X:00 Y:00 P:6e SP:fb  STACK: 00 00 c6 02
c855  a9 ff    LDA #$ff                        A:00 X:00 Y:00 P:6e SP:fa  STACK: 00 00 c6 02 00
c857  68       PLA                             A:ff X:00 Y:00 P:ec SP:fa  STACK: 00 00 c6 02 00
c858  d0 09    BNE $c863                       A:00 X:00 Y:00 P:6e SP:fb  STACK: 00 00 c6 02
c85a  30 07    BMI $c863                       A:00 X:00 Y:00 P:6e SP:fb  STACK: 00 00 c6 02
c85c  50 05    BVC $c863                       A:00 X:00 Y:00 P:6e SP:fb  STACK: 00 00 c6 02
c85e  b0 03    BCS $c863                       A:00 X:00 Y:00 P:6e SP:fb  STACK: 00 00 c6 02
c860  4c 67 c8 JMP $c867 = ea                  A:00 X:00 Y:00 P:6e SP:fb  STACK: 00 00 c6 02
c867  ea       NOP                             A:00 X:00 Y:00 P:6e SP:fb  STACK: 00 00 c6 02
c868  a9 00    LDA #$00                        A:00 X:00 Y:00 P:6e SP:fb  STACK: 00 00 c6 02
c86a  85 01    STA $01 = ff                    A:00 X:00 Y:00 P:6e SP:fb  STACK: 00 00 c6 02
c86c  24 01    BIT $01 = 00                    A:00 X:00 Y:00 P:6e SP:fb  STACK: 00 00 c6 02
c86e  38       SEC                             A:00 X:00 Y:00 P:2e SP:fb  STACK: 00 00 c6 02
c86f  a9 ff    LDA #$ff                        A:00 X:00 Y:00 P:2f SP:fb  STACK: 00 00 c6 02
c871  48       PHA                             A:ff X:00 Y:00 P:ad SP:fb  STACK: 00 00 c6 02
c872  a9 00    LDA #$00                        A:ff X:00 Y:00 P:ad SP:fa  STACK: 00 00 c6 02 ff
c874  68       PLA                             A:00 X:00 Y:00 P:2f SP:fa  STACK: 00 00 c6 02 ff
c875  f0 09    BEQ $c880                       A:ff X:00 Y:00 P:ad SP:fb  STACK: 00 00 c6 02
c877  10 07    BPL $c880                       A:ff X:00 Y:00 P:ad SP:fb  STACK: 00 00 c6 02
c879  70 05    BVS $c880                       A:ff X:00 Y:00 P:ad SP:fb  STACK: 00 00 c6 02
c87b  90 03    BCC $c880                       A:ff X:00 Y:00 P:ad SP:fb  STACK: 00 00 c6 02
c87d  4c 84 c8 JMP $c884 = 60                  A:ff X:00 Y:00 P:ad SP:fb  STACK: 00 00 c6 02
c884  60       RTS                             A:ff X:00 Y:00 P:ad SP:fb  STACK: 00 00 c6 02
c603  20 85 c8 JSR $c885 = ea                  A:ff X:00 Y:00 P:ad SP:fd  STACK: 00 00
c885  ea       NOP                             A:ff X:00 Y:00 P:ad SP:fb  STACK: 00 00 c6 05
c886  18       CLC                             A:ff X:00 Y:00 P:ad SP:fb  STACK: 00 00 c6 05
c887  a9 ff    LDA #$ff                        A:ff X:00 Y:00 P:ac SP:fb  STACK: 00 00 c6 05
c889  85 01    STA $01 = 00                    A:ff X:00 Y:00 P:ac SP:fb  STACK: 00 00 c6 05
c88b  24 01    BIT $01 = ff                    A:ff X:00 Y:00 P:ac SP:fb  STACK: 00 00 c6 05
c88d  a9 55    LDA #$55                        A:ff X:00 Y:00 P:ec SP:fb  STACK: 00 00 c6 05
c88f  09 aa    ORA #$aa                        A:55 X:00 Y:00 P:6c SP:fb  STACK: 00 00 c6 05
c891  b0 0b    BCS $c89e                       A:ff X:00 Y:00 P:ec SP:fb  STACK: 00 00 c6 05
c893  10 09    BPL $c89e                       A:ff X:00 Y:00 P:ec SP:fb  STACK: 00 00 c6 05
c895  c9 ff    CMP #$ff                        A:ff X:00 Y:00 P:ec SP:fb  STACK: 00 00 c6 05
c897  d0 05    BNE $c89e                       A:ff X:00 Y:00 P:6f SP:fb  STACK: 00 00 c6 05
c899  50 03    BVC $c89e                       A:ff X:00 Y:00 P:6f SP:fb  STACK: 00 00 c6 05
c89b  4c a2 c8 JMP $c8a2 = ea                  A:ff X:00 Y:00 P:6f SP:fb  STACK: 00 00 c6 05
c8a2  ea       NOP                             A:ff X:00 Y:00 P:6f SP:fb  STACK: 00 00 c6 05
c8a3  38       SEC                             A:ff X:00 Y:00 P:6f SP:fb  STACK: 00 00 c6 05
c8a4  b8       CLV                             A:ff X:00 Y:00 P:6f SP:fb  STACK: 00 00 c6 05
c8a5  a9 00    LDA #$00                        A:ff X:00 Y:00 P:2f SP:fb  STACK: 00 00 c6 05
c8a7  09 00    ORA #$00                        A:00 X:00 Y:00 P:2f SP:fb  STACK: 00 00 c6 05
c8a9  d0 09    BNE $c8b4                       A:00 X:00 Y:00 P:2f SP:fb  STACK: 00 00 c6 05
c8ab  70 07    BVS $c8b4                       A:00 X:00 Y:00 P:2f SP:fb  STACK: 00 00 c6 05
c8ad  90 05    BCC $c8b4                       A:00 X:00 Y:00 P:2f SP:fb  STACK: 00 00 c6 05
c8af  30 03    BMI $c8b4                       A:00 X:00 Y:00 P:2f SP:fb  STACK: 00 00 c6 05
c8b1  4c b8 c8 JMP $c8b8 = ea                  A:00 X:00 Y:00 P:2f SP:fb  STACK: 00 00 c6 05
c8b8  ea       NOP                             A:00 X:00 Y:00 P:2f SP:fb  STACK: 00 00 c6 05
c8b9  18       CLC                             A:00 X:00 Y:00 P:2f SP:fb  STACK: 00 00 c6 05
c8ba  24 01    BIT $01 = ff                    A:00 X:00 Y:00 P:2e SP:fb  STACK: 00 00 c6 05
c8bc  a9 55    LDA #$55                        A:00 X:00 Y:00 P:ee SP:fb  STACK: 00 00 c6 05
c8be  29 aa    AND #$aa                        A:55 X:00 Y:00 P:6c SP:fb  STACK: 00 00 c6 05
c8c0  d0 09    BNE $c8cb                       A:00 X:00 Y:00 P:6e SP:fb  STACK: 00 00 c6 05
c8c2  50 07    BVC $c8cb                       A:00 X:00 Y:00 P:6e SP:fb  STACK: 00 00 c6 05
c8c4  b0 05    BCS $c8cb                       A:00 X:00 Y:00 P:6e SP:fb  STACK: 00 00 c6 05
c8c6  30 03    BMI $c8cb                       A:00 X:00 Y:00 P:6e SP:fb  STACK: 00 00 c6 05
c8c8  4c cf c8 JMP $c8cf = ea                  A:00 X:00 Y:00 P:6e SP:fb  STACK: 00 00 c6 05
c8cf  ea       NOP                             A:00 X:00 Y:00 P:6e SP:fb  STACK: 00 00 c6 05
c8d0  38       SEC                             A:00 X:00 Y:00 P:6e SP:fb  STACK: 00 00 c6 05
c8d1  b8       CLV                             A:00 X:00 Y:00 P:6f SP:fb  STACK: 00 00 c6 05
c8d2  a9 f8    LDA #$f8                        A:00 X:00 Y:00 P:2f SP:fb  STACK: 00 00 c6 05
c8d4  29 ef    AND #$ef                        A:f8 X:00 Y:00 P:ad SP:fb  STACK: 00 00 c6 05
c8d6  90 0b    BCC $c8e3                       A:e8 X:00 Y:00 P:ad SP:fb  STACK: 00 00 c6 05
c8d8  10 09    BPL $c8e3                       A:e8 X:00 Y:00 P:ad SP:fb  STACK: 00 00 c6 05
c8da  c9 e8    CMP #$e8                        A:e8 X:00 Y:00 P:ad SP:fb  STACK: 00 00 c6 05
c8dc  d0 05    BNE $c8e3                       A:e8 X:00 Y:00 P:2f SP:fb  STACK: 00 00 c6 05
c8de  70 03    BVS $c8e3                       A:e8 X:00 Y:00 P:2f SP:fb  STACK: 00 00 c6 05
c8e0  4c e7 c8 JMP $c8e7 = ea                  A:e8 X:00 Y:00 P:2f SP:fb  STACK: 00 00 c6 05
c8e7  ea       NOP                             A:e8 X:00 Y:00 P:2f SP:fb  STACK: 00 00 c6 05
c8e8  18       CLC                             A:e8 X:00 Y:00 P:2f SP:fb  STACK: 00 00 c6 05
c8e9  24 01    BIT $01 = ff                    A:e8 X:00 Y:00 P:2e SP:fb  STACK: 00 00 c6 05
c8eb  a9 5f    LDA #$5f                        A:e8 X:00 Y:00 P:ec SP:fb  STACK: 00 00 c6 05
c8ed  49 aa    EOR #$aa                        A:5f X:00 Y:00 P:6c SP:fb  STACK: 00 00 c6 05
c8ef  b0 0b    BCS $c8fc                       A:f5 X:00 Y:00 P:ec SP:fb  STACK: 00 00 c6 05
c8f1  10 09    BPL $c8fc                       A:f5 X:00 Y:00 P:ec SP:fb  STACK: 00 00 c6 05
c8f3  c9 f5    CMP #$f5                        A:f5 X:00 Y:00 P:ec SP:fb  STACK: 00 00 c6 05
c8f5  d0 05    BNE $c8fc                       A:f5 X:00 Y:00 P:6f SP:fb  STACK: 00 00 c6 05
c8f7  50 03    BVC $c8fc                       A:f5 X:00 Y:00 P:6f SP:fb  STACK: 00 00 c6 05
c8f9  4c 00 c9 JMP $c900 = ea                  A:f5 X:00 Y:00 P:6f SP:fb  STACK: 00 00 c6 05
c900  ea       NOP                             A:f5 X:00 Y:00 P:6f SP:fb  STACK: 00 00 c6 05
c901  38       SEC                             A:f5 X:00 Y:00 P:6f SP:fb  STACK: 00 00 c6 05
c902  b8       CLV                             A:f5 X:00 Y:00 P:6f SP:fb  STACK: 00 00 c6 05
c903  a9 70    LDA #$70                        A:f5 X:00 Y:00 P:2f SP:fb  STACK: 00 00 c6 05
c905  49 70    EOR #$70                        A:70 X:00 Y:00 P:2d SP:fb  STACK: 00 00 c6 05
c907  d0 09    BNE $c912                       A:00 X:00 Y:00 P:2f SP:fb  STACK: 00 00 c6 05
c909  70 07    BVS $c912                       A:00 X:00 Y:00 P:2f SP:fb  STACK: 00 00 c6 05
c90b  90 05    BCC $c912                       A:00 X:00 Y:00 P:2f SP:fb  STACK: 00 00 c6 05
c90d  30 03    BMI $c912                       A:00 X:00 Y:00 P:2f SP:fb  STACK: 00 00 c6 05
c90f  4c 16 c9 JMP $c916 = ea                  A:00 X:00 Y:00 P:2f SP:fb  STACK: 00 00 c6 05
c916  ea       NOP                             A:00 X:00 Y:00 P:2f SP:fb  STACK: 00 00 c6 05
c917  18       CLC                             A:00 X:00 Y:00 P:2f SP:fb  STACK: 00 00 c6 05
c918  24 01    BIT $01 = ff                    A:00 X:00 Y:00 P:2e SP:fb  STACK: 00 00 c6 05
c91a  a9 00    LDA #$00                        A:00 X:00 Y:00 P:ee SP:fb  STACK: 00 00 c6 05
c91c  69 69    ADC #$69                        A:00 X:00 Y:00 P:6e SP:fb  STACK: 00 00 c6 05
c91e  30 0b    BMI $c92b                       A:69 X:00 Y:00 P:ac SP:fb  STACK: 00 00 c6 05
c92b  a2 1e    LDX #$1e                        A:69 X:00 Y:00 P:ac SP:fb  STACK: 00 00 c6 05
c92d  86 00    STX $00 = 00                    A:69 X:1e Y:00 P:2c SP:fb  STACK: 00 00 c6 05
c92f  ea       NOP                             A:69 X:1e Y:00 P:2c SP:fb  STACK: 00 00 c6 05
c930  38       SEC                             A:69 X:1e Y:00 P:2c SP:fb  STACK: 00 00 c6 05
c931  f8       SED                             A:69 X:1e Y:00 P:2d SP:fb  STACK: 00 00 c6 05
c932  24 01    BIT $01 = ff                    A:69 X:1e Y:00 P:2d SP:fb  STACK: 00 00 c6 05
c934  a9 01    LDA #$01                        A:69 X:1e Y:00 P:ed SP:fb  STACK: 00 00 c6 05
c936  69 69    ADC #$69                        A:01 X:1e Y:00 P:6d SP:fb  STACK: 00 00 c6 05
c938  30 0b    BMI $c945                       A:6a X:1e Y:00 P:ac SP:fb  STACK: 00 00 c6 05
c945  a2 1f    LDX #$1f                        A:6a X:1e Y:00 P:ac SP:fb  STACK: 00 00 c6 05
c947  86 00    STX $00 = 1e                    A:6a X:1f Y:00 P:2c SP:fb  STACK: 00 00 c6 05
c949  ea       NOP                             A:6a X:1f Y:00 P:2c SP:fb  STACK: 00 00 c6 05
c94a  d8       CLD                             A:6a X:1f Y:00 P:2c SP:fb  STACK: 00 00 c6 05
c94b  38       SEC                             A:6a X:1f Y:00 P:24 SP:fb  STACK: 00 00 c6 05
c94c  b8       CLV                             A:6a X:1f Y:00 P:25 SP:fb  STACK: 00 00 c6 05
c94d  a9 7f    LDA #$7f                        A:6a X:1f Y:00 P:25 SP:fb  STACK: 00 00 c6 05
c94f  69 7f    ADC #$7f                        A:7f X:1f Y:00 P:25 SP:fb  STACK: 00 00 c6 05
c951  10 0b    BPL $c95e                       A:fe X:1f Y:00 P:64 SP:fb  STACK: 00 00 c6 05
c95e  a2 20    LDX #$20                        A:fe X:1f Y:00 P:64 SP:fb  STACK: 00 00 c6 05
c960  86 00    STX $00 = 1f                    A:fe X:20 Y:00 P:64 SP:fb  STACK: 00 00 c6 05
c962  ea       NOP                             A:fe X:20 Y:00 P:64 SP:fb  STACK: 00 00 c6 05
c963  18       CLC                             A:fe X:20 Y:00 P:64 SP:fb  STACK: 00 00 c6 05
c964  24 01    BIT $01 = ff                    A:fe X:20 Y:00 P:64 SP:fb  STACK: 00 00 c6 05
c966  a9 7f    LDA #$7f                        A:fe X:20 Y:00 P:e4 SP:fb  STACK: 00 00 c6 05
c968  69 80    ADC #$80                        A:7f X:20 Y:00 P:64 SP:fb  STACK: 00 00 c6 05
c96a  10 0b    BPL $c977                       A:ff X:20 Y:00 P:24 SP:fb  STACK: 00 00 c6 05
c977  a2 21    LDX #$21                        A:ff X:20 Y:00 P:24 SP:fb  STACK: 00 00 c6 05
c979  86 00    STX $00 = 20                    A:ff X:21 Y:00 P:24 SP:fb  STACK: 00 00 c6 05
c97b  ea       NOP                             A:ff X:21 Y:00 P:24 SP:fb  STACK: 00 00 c6 05
c97c  38       SEC                             A:ff X:21 Y:00 P:24 SP:fb  STACK: 00 00 c6 05
c97d  b8       CLV                             A:ff X:21 Y:00 P:25 SP:fb  STACK: 00 00 c6 05
c97e  a9 7f    LDA #$7f                        A:ff X:21 Y:00 P:25 SP:fb  STACK: 00 00 c6 05
c980  69 80    ADC #$80                        A:7f X:21 Y:00 P:25 SP:fb  STACK: 00 00 c6 05
c982  d0 09    BNE $c98d                       A:ff X:21 Y:00 P:24 SP:fb  STACK: 00 00 c6 05
c98d  a2 22    LDX #$22                        A:ff X:21 Y:00 P:24 SP:fb  STACK: 00 00 c6 05
c98f  86 00    STX $00 = 21                    A:ff X:22 Y:00 P:24 SP:fb  STACK: 00 00 c6 05
c991  ea       NOP                             A:ff X:22 Y:00 P:24 SP:fb  STACK: 00 00 c6 05
c992  38       SEC                             A:ff X:22 Y:00 P:24 SP:fb  STACK: 00 00 c6 05
c993  b8       CLV                             A:ff X:22 Y:00 P:25 SP:fb  STACK: 00 00 c6 05
c994  a9 9f    LDA #$9f                        A:ff X:22 Y:00 P:25 SP:fb  STACK: 00 00 c6 05
c996  f0 09    BEQ $c9a1                       A:9f X:22 Y:00 P:a5 SP:fb  STACK: 00 00 c6 05
c998  10 07    BPL $c9a1                       A:9f X:22 Y:00 P:a5 SP:fb  STACK: 00 00 c6 05
c99a  70 05    BVS $c9a1                       A:9f X:22 Y:00 P:a5 SP:fb  STACK: 00 00 c6 05
c99c  90 03    BCC $c9a1                       A:9f X:22 Y:00 P:a5 SP:fb  STACK: 00 00 c6 05
c99e  4c a5 c9 JMP $c9a5 = ea                  A:9f X:22 Y:00 P:a5 SP:fb  STACK: 00 00 c6 05
c9a5  ea       NOP                             A:9f X:22 Y:00 P:a5 SP:fb  STACK: 00 00 c6 05
c9a6  18       CLC                             A:9f X:22 Y:00 P:a5 SP:fb  STACK: 00 00 c6 05
c9a7  24 01    BIT $01 = ff                    A:9f X:22 Y:00 P:a4 SP:fb  STACK: 00 00 c6 05
c9a9  a9 00    LDA #$00                        A:9f X:22 Y:00 P:e4 SP:fb  STACK: 00 00 c6 05
c9ab  d0 09    BNE $c9b6                       A:00 X:22 Y:00 P:66 SP:fb  STACK: 00 00 c6 05
c9ad  30 07    BMI $c9b6                       A:00 X:22 Y:00 P:66 SP:fb  STACK: 00 00 c6 05
c9af  50 05    BVC $c9b6                       A:00 X:22 Y:00 P:66 SP:fb  STACK: 00 00 c6 05
c9b1  b0 03    BCS $c9b6                       A:00 X:22 Y:00 P:66 SP:fb  STACK: 00 00 c6 05
c9b3  4c ba c9 JMP $c9ba = ea                  A:00 X:22 Y:00 P:66 SP:fb  STACK: 00 00 c6 05
c9ba  ea       NOP                             A:00 X:22 Y:00 P:66 SP:fb  STACK: 00 00 c6 05
c9bb  24 01    BIT $01 = ff                    A:00 X:22 Y:00 P:66 SP:fb  STACK: 00 00 c6 05
c9bd  a9 40    LDA #$40                        A:00 X:22 Y:00 P:e6 SP:fb  STACK: 00 00 c6 05
c9bf  c9 40    CMP #$40                        A:40 X:22 Y:00 P:64 SP:fb  STACK: 00 00 c6 05
c9c1  30 09    BMI $c9cc                       A:40 X:22 Y:00 P:67 SP:fb  STACK: 00 00 c6 05
c9c3  90 07    BCC $c9cc                       A:40 X:22 Y:00 P:67 SP:fb  STACK: 00 00 c6 05
c9c5  d0 05    BNE $c9cc                       A:40 X:22 Y:00 P:67 SP:fb  STACK: 00 00 c6 05
c9c7  50 03    BVC $c9cc                       A:40 X:22 Y:00 P:67 SP:fb  STACK: 00 00 c6 05
c9c9  4c d0 c9 JMP $c9d0 = ea                  A:40 X:22 Y:00 P:67 SP:fb  STACK: 00 00 c6 05
c9d0  ea       NOP                             A:40 X:22 Y:00 P:67 SP:fb  STACK: 00 00 c6 05
c9d1  b8       CLV                             A:40 X:22 Y:00 P:67 SP:fb  STACK: 00 00 c6 05
c9d2  c9 3f    CMP #$3f                        A:40 X:22 Y:00 P:27 SP:fb  STACK: 00 00 c6 05
c9d4  f0 09    BEQ $c9df                       A:40 X:22 Y:00 P:25 SP:fb  STACK: 00 00 c6 05
c9d6  30 07    BMI $c9df                       A:40 X:22 Y:00 P:25 SP:fb  STACK: 00 00 c6 05
c9d8  90 05    BCC $c9df                       A:40 X:22 Y:00 P:25 SP:fb  STACK: 00 00 c6 05
c9da  70 03    BVS $c9df                       A:40 X:22 Y:00 P:25 SP:fb  STACK: 00 00 c6 05
c9dc  4c e3 c9 JMP $c9e3 = ea                  A:40 X:22 Y:00 P:25 SP:fb  STACK: 00 00 c6 05
c9e3  ea       NOP                             A:40 X:22 Y:00 P:25 SP:fb  STACK: 00 00 c6 05
c9e4  c9 41    CMP #$41                        A:40 X:22 Y:00 P:25 SP:fb  STACK: 00 00 c6 05
c9e6  f0 07    BEQ $c9ef                       A:40 X:22 Y:00 P:a4 SP:fb  STACK: 00 00 c6 05
c9e8  10 05    BPL $c9ef                       A:40 X:22 Y:00 P:a4 SP:fb  STACK: 00 00 c6 05
c9ea  10 03    BPL $c9ef                       A:40 X:22 Y:00 P:a4 SP:fb  STACK: 00 00 c6 05
c9ec  4c f3 c9 JMP $c9f3 = ea                  A:40 X:22 Y:00 P:a4 SP:fb  STACK: 00 00 c6 05
c9f3  ea       NOP                             A:40 X:22 Y:00 P:a4 SP:fb  STACK: 00 00 c6 05
c9f4  a9 80    LDA #$80                        A:40 X:22 Y:00 P:a4 SP:fb  STACK: 00 00 c6 05
c9f6  c9 00    CMP #$00                        A:80 X:22 Y:00 P:a4 SP:fb  STACK: 00 00 c6 05
c9f8  f0 07    BEQ $ca01                       A:80 X:22 Y:00 P:a5 SP:fb  STACK: 00 00 c6 05
c9fa  10 05    BPL $ca01                       A:80 X:22 Y:00 P:a5 SP:fb  STACK: 00 00 c6 05
c9fc  90 03    BCC $ca01                       A:80 X:22 Y:00 P:a5 SP:fb  STACK: 00 00 c6 05
c9fe  4c 05 ca JMP $ca05 = ea                  A:80 X:22 Y:00 P:a5 SP:fb  STACK: 00 00 c6 05
ca05  ea       NOP                             A:80 X:22 Y:00 P:a5 SP:fb  STACK: 00 00 c6 05
ca06  c9 80    CMP #$80                        A:80 X:22 Y:00 P:a5 SP:fb  STACK: 00 00 c6 05
ca08  d0 07    BNE $ca11                       A:80 X:22 Y:00 P:27 SP:fb  STACK: 00 00 c6 05
ca0a  30 05    BMI $ca11                       A:80 X:22 Y:00 P:27 SP:fb  STACK: 00 00 c6 05
ca0c  90 03    BCC $ca11                       A:80 X:22 Y:00 P:27 SP:fb  STACK: 00 00 c6 05
ca0e  4c 15 ca JMP $ca15 = ea                  A:80 X:22 Y:00 P:27 SP:fb  STACK: 00 00 c6 05
ca15  ea       NOP                             A:80 X:22 Y:00 P:27 SP:fb  STACK: 00 00 c6 05
ca16  c9 81    CMP #$81                        A:80 X:22 Y:00 P:27 SP:fb  STACK: 00 00 c6 05
ca18  b0 07    BCS $ca21                       A:80 X:22 Y:00 P:a4 SP:fb  STACK: 00 00 c6 05
ca1a  f0 05    BEQ $ca21                       A:80 X:22 Y:00 P:a4 SP:fb  STACK: 00 00 c6 05
ca1c  10 03    BPL $ca21                       A:80 X:22 Y:00 P:a4 SP:fb  STACK: 00 00 c6 05
ca1e  4c 25 ca JMP $ca25 = ea                  A:80 X:22 Y:00 P:a4 SP:fb  STACK: 00 00 c6 05
ca25  ea       NOP                             A:80 X:22 Y:00 P:a4 SP:fb  STACK: 00 00 c6 05
ca26  c9 7f    CMP #$7f                        A:80 X:22 Y:00 P:a4 SP:fb  STACK: 00 00 c6 05
ca28  90 07    BCC $ca31                       A:80 X:22 Y:00 P:25 SP:fb  STACK: 00 00 c6 05
ca2a  f0 05    BEQ $ca31                       A:80 X:22 Y:00 P:25 SP:fb  STACK: 00 00 c6 05
ca2c  30 03    BMI $ca31                       A:80 X:22 Y:00 P:25 SP:fb  STACK: 00 00 c6 05
ca2e  4c 35 ca JMP $ca35 = ea                  A:80 X:22 Y:00 P:25 SP:fb  STACK: 00 00 c6 05
ca35  ea       NOP                             A:80 X:22 Y:00 P:25 SP:fb  STACK: 00 00 c6 05
ca36  24 01    BIT $01 = ff                    A:80 X:22 Y:00 P:25 SP:fb  STACK: 00 00 c6 05
ca38  a0 40    LDY #$40                        A:80 X:22 Y:00 P:e5 SP:fb  STACK: 00 00 c6 05
ca3a  c0 40    CPY #$40                        A:80 X:22 Y:40 P:65 SP:fb  STACK: 00 00 c6 05
ca3c  d0 09    BNE $ca47                       A:80 X:22 Y:40 P:67 SP:fb  STACK: 00 00 c6 05
ca3e  30 07    BMI $ca47                       A:80 X:22 Y:40 P:67 SP:fb  STACK: 00 00 c6 05
ca40  90 05    BCC $ca47                       A:80 X:22 Y:40 P:67 SP:fb  STACK: 00 00 c6 05
ca42  50 03    BVC $ca47                       A:80 X:22 Y:40 P:67 SP:fb  STACK: 00 00 c6 05
ca44  4c 4b ca JMP $ca4b = ea                  A:80 X:22 Y:40 P:67 SP:fb  STACK: 00 00 c6 05
ca4b  ea       NOP                             A:80 X:22 Y:40 P:67 SP:fb  STACK: 00 00 c6 05
ca4c  b8       CLV                             A:80 X:22 Y:40 P:67 SP:fb  STACK: 00 00 c6 05
ca4d  c0 3f    CPY #$3f                        A:80 X:22 Y:40 P:27 SP:fb  STACK: 00 00 c6 05
ca4f  f0 09    BEQ $ca5a                       A:80 X:22 Y:40 P:25 SP:fb  STACK: 00 00 c6 05
ca51  30 07    BMI $ca5a                       A:80 X:22 Y:40 P:25 SP:fb  STACK: 00 00 c6 05
ca53  90 05    BCC $ca5a                       A:80 X:22 Y:40 P:25 SP:fb  STACK: 00 00 c6 05
ca55  70 03    BVS $ca5a                       A:80 X:22 Y:40 P:25 SP:fb  STACK: 00 00 c6 05
ca57  4c 5e ca JMP $ca5e = ea                  A:80 X:22 Y:40 P:25 SP:fb  STACK: 00 00 c6 05
ca5e  ea       NOP                             A:80 X:22 Y:40 P:25 SP:fb  STACK: 00 00 c6 05
ca5f  c0 41    CPY #$41                        A:80 X:22 Y:40 P:25 SP:fb  STACK: 00 00 c6 05
ca61  f0 07    BEQ $ca6a                       A:80 X:22 Y:40 P:a4 SP:fb  STACK: 00 00 c6 05
ca63  10 05    BPL $ca6a                       A:80 X:22 Y:40 P:a4 SP:fb  STACK: 00 00 c6 05
ca65  10 03    BPL $ca6a                       A:80 X:22 Y:40 P:a4 SP:fb  STACK: 00 00 c6 05
ca67  4c 6e ca JMP $ca6e = ea                  A:80 X:22 Y:40 P:a4 SP:fb  STACK: 00 00 c6 05
ca6e  ea       NOP                             A:80 X:22 Y:40 P:a4 SP:fb  STACK: 00 00 c6 05
ca6f  a0 80    LDY #$80                        A:80 X:22 Y:40 P:a4 SP:fb  STACK: 00 00 c6 05
ca71  c0 00    CPY #$00                        A:80 X:22 Y:80 P:a4 SP:fb  STACK: 00 00 c6 05
ca73  f0 07    BEQ $ca7c                       A:80 X:22 Y:80 P:a5 SP:fb  STACK: 00 00 c6 05
ca75  10 05    BPL $ca7c                       A:80 X:22 Y:80 P:a5 SP:fb  STACK: 00 00 c6 05
ca77  90 03    BCC $ca7c                       A:80 X:22 Y:80 P:a5 SP:fb  STACK: 00 00 c6 05
ca79  4c 80 ca JMP $ca80 = ea                  A:80 X:22 Y:80 P:a5 SP:fb  STACK: 00 00 c6 05
ca80  ea       NOP                             A:80 X:22 Y:80 P:a5 SP:fb  STACK: 00 00 c6 05
ca81  c0 80    CPY #$80                        A:80 X:22 Y:80 P:a5 SP:fb  STACK: 00 00 c6 05
ca83  d0 07    BNE $ca8c                       A:80 X:22 Y:80 P:27 SP:fb  STACK: 00 00 c6 05
ca85  30 05    BMI $ca8c                       A:80 X:22 Y:80 P:27 SP:fb  STACK: 00 00 c6 05
ca87  90 03    BCC $ca8c                       A:80 X:22 Y:80 P:27 SP:fb  STACK: 00 00 c6 05
ca89  4c 90 ca JMP $ca90 = ea                  A:80 X:22 Y:80 P:27 SP:fb  STACK: 00 00 c6 05
ca90  ea       NOP                             A:80 X:22 Y:80 P:27 SP:fb  STACK: 00 00 c6 05
ca91  c0 81    CPY #$81                        A:80 X:22 Y:80 P:27 SP:fb  STACK: 00 00 c6 05
ca93  b0 07    BCS $ca9c                       A:80 X:22 Y:80 P:a4 SP:fb  STACK: 00 00 c6 05
ca95  f0 05    BEQ $ca9c                       A:80 X:22 Y:80 P:a4 SP:fb  STACK: 00 00 c6 05
ca97  10 03    BPL $ca9c                       A:80 X:22 Y:80 P:a4 SP:fb  STACK: 00 00 c6 05
ca99  4c a0 ca JMP $caa0 = ea                  A:80 X:22 Y:80 P:a4 SP:fb  STACK: 00 00 c6 05
caa0  ea       NOP                             A:80 X:22 Y:80 P:a4 SP:fb  STACK: 00 00 c6 05
caa1  c0 7f    CPY #$7f                        A:80 X:22 Y:80 P:a4 SP:fb  STACK: 00 00 c6 05
caa3  90 07    BCC $caac                       A:80 X:22 Y:80 P:25 SP:fb  STACK: 00 00 c6 05
caa5  f0 05    BEQ $caac                       A:80 X:22 Y:80 P:25 SP:fb  STACK: 00 00 c6 05
caa7  30 03    BMI $caac                       A:80 X:22 Y:80 P:25 SP:fb  STACK: 00 00 c6 05
caa9  4c b0 ca JMP $cab0 = ea                  A:80 X:22 Y:80 P:25 SP:fb  STACK: 00 00 c6 05
cab0  ea       NOP                             A:80 X:22 Y:80 P:25 SP:fb  STACK: 00 00 c6 05
cab1  24 01    BIT $01 = ff                    A:80 X:22 Y:80 P:25 SP:fb  STACK: 00 00 c6 05
cab3  a2 40    LDX #$40                        A:80 X:22 Y:80 P:e5 SP:fb  STACK: 00 00 c6 05
cab5  e0 40    CPX #$40                        A:80 X:40 Y:80 P:65 SP:fb  STACK: 00 00 c6 05
cab7  d0 09    BNE $cac2                       A:80 X:40 Y:80 P:67 SP:fb  STACK: 00 00 c6 05
cab9  30 07    BMI $cac2                       A:80 X:40 Y:80 P:67 SP:fb  STACK: 00 00 c6 05
cabb  90 05    BCC $cac2                       A:80 X:40 Y:80 P:67 SP:fb  STACK: 00 00 c6 05
cabd  50 03    BVC $cac2                       A:80 X:40 Y:80 P:67 SP:fb  STACK: 00 00 c6 05
cabf  4c c6 ca JMP $cac6 = ea                  A:80 X:40 Y:80 P:67 SP:fb  STACK: 00 00 c6 05
cac6  ea       NOP                             A:80 X:40 Y:80 P:67 SP:fb  STACK: 00 00 c6 05
cac7  b8       CLV                             A:80 X:40 Y:80 P:67 SP:fb  STACK: 00 00 c6 05
cac8  e0 3f    CPX #$3f                        A:80 X:40 Y:80 P:27 SP:fb  STACK: 00 00 c6 05
caca  f0 09    BEQ $cad5                       A:80 X:40 Y:80 P:25 SP:fb  STACK: 00 00 c6 05
cacc  30 07    BMI $cad5                       A:80 X:40 Y:80 P:25 SP:fb  STACK: 00 00 c6 05
cace  90 05    BCC $cad5                       A:80 X:40 Y:80 P:25 SP:fb  STACK: 00 00 c6 05
cad0  70 03    BVS $cad5                       A:80 X:40 Y:80 P:25 SP:fb  STACK: 00 00 c6 05
cad2  4c d9 ca JMP $cad9 = ea                  A:80 X:40 Y:80 P:25 SP:fb  STACK: 00 00 c6 05
cad9  ea       NOP                             A:80 X:40 Y:80 P:25 SP:fb  STACK: 00 00 c6 05
cada  e0 41    CPX #$41                        A:80 X:40 Y:80 P:25 SP:fb  STACK: 00 00 c6 05
cadc  f0 07    BEQ $cae5                       A:80 X:40 Y:80 P:a4 SP:fb  STACK: 00 00 c6 05
cade  10 05    BPL $cae5                       A:80 X:40 Y:80 P:a4 SP:fb  STACK: 00 00 c6 05
cae0  10 03    BPL $cae5                       A:80 X:40 Y:80 P:a4 SP:fb  STACK: 00 00 c6 05
cae2  4c e9 ca JMP $cae9 = ea                  A:80 X:40 Y:80 P:a4 SP:fb  STACK: 00 00 c6 05
cae9  ea       NOP                             A:80 X:40 Y:80 P:a4 SP:fb  STACK: 00 00 c6 05
caea  a2 80    LDX #$80                        A:80 X:40 Y:80 P:a4 SP:fb  STACK: 00 00 c6 05
caec  e0 00    CPX #$00                        A:80 X:80 Y:80 P:a4 SP:fb  STACK: 00 00 c6 05
caee  f0 07    BEQ $caf7                       A:80 X:80 Y:80 P:a5 SP:fb  STACK: 00 00 c6 05
caf0  10 05    BPL $caf7                       A:80 X:80 Y:80 P:a5 SP:fb  STACK: 00 00 c6 05
caf2  90 03    BCC $caf7                       A:80 X:80 Y:80 P:a5 SP:fb  STACK: 00 00 c6 05
caf4  4c fb ca JMP $cafb = ea                  A:80 X:80 Y:80 P:a5 SP:fb  STACK: 00 00 c6 05
cafb  ea       NOP                             A:80 X:80 Y:80 P:a5 SP:fb  STACK: 00 00 c6 05
cafc  e0 80    CPX #$80                        A:80 X:80 Y:80 P:a5 SP:fb  STACK: 00 00 c6 05
cafe  d0 07    BNE $cb07                       A:80 X:80 Y:80 P:27 SP:fb  STACK: 00 00 c6 05
cb00  30 05    BMI $cb07                       A:80 X:80 Y:80 P:27 SP:fb  STACK: 00 00 c6 05
cb02  90 03    BCC $cb07                       A:80 X:80 Y:80 P:27 SP:fb  STACK: 00 00 c6 05
cb04  4c 0b cb JMP $cb0b = ea                  A:80 X:80 Y:80 P:27 SP:fb  STACK: 00 00 c6 05
cb0b  ea       NOP                             A:80 X:80 Y:80 P:27 SP:fb  STACK: 00 00 c6 05
cb0c  e0 81    CPX #$81                        A:80 X:80 Y:80 P:27 SP:fb  STACK: 00 00 c6 05
cb0e  b0 07    BCS $cb17                       A:80 X:80 Y:80 P:a4 SP:fb  STACK: 00 00 c6 05
cb10  f0 05    BEQ $cb17                       A:80 X:80 Y:80 P:a4 SP:fb  STACK: 00 00 c6 05
cb12  10 03    BPL $cb17                       A:80 X:80 Y:80 P:a4 SP:fb  STACK: 00 00 c6 05
cb14  4c 1b cb JMP $cb1b = ea                  A:80 X:80 Y:80 P:a4 SP:fb  STACK: 00 00 c6 05
cb1b  ea       NOP                             A:80 X:80 Y:80 P:a4 SP:fb  STACK: 00 00 c6 05
cb1c  e0 7f    CPX #$7f                        A:80 X:80 Y:80 P:a4 SP:fb  STACK: 00 00 c6 05
cb1e  90 07    BCC $cb27                       A:80 X:80 Y:80 P:25 SP:fb  STACK: 00 00 c6 05
cb20  f0 05    BEQ $cb27                       A:80 X:80 Y:80 P:25 SP:fb  STACK: 00 00 c6 05
cb22  30 03    BMI $cb27                       A:80 X:80 Y:80 P:25 SP:fb  STACK: 00 00 c6 05
cb24  4c 2b cb JMP $cb2b = ea                  A:80 X:80 Y:80 P:25 SP:fb  STACK: 00 00 c6 05
cb2b  ea       NOP                             A:80 X:80 Y:80 P:25 SP:fb  STACK: 00 00 c6 05
cb2c  38       SEC                             A:80 X:80 Y:80 P:25 SP:fb  STACK: 00 00 c6 05
cb2d  b8       CLV                             A:80 X:80 Y:80 P:25 SP:fb  STACK: 00 00 c6 05
cb2e  a2 9f    LDX #$9f                        A:80 X:80 Y:80 P:25 SP:fb  STACK: 00 00 c6 05
cb30  f0 09    BEQ $cb3b                       A:80 X:9f Y:80 P:a5 SP:fb  STACK: 00 00 c6 05
cb32  10 07    BPL $cb3b                       A:80 X:9f Y:80 P:a5 SP:fb  STACK: 00 00 c6 05
cb34  70 05    BVS $cb3b                       A:80 X:9f Y:80 P:a5 SP:fb  STACK: 00 00 c6 05
cb36  90 03    BCC $cb3b                       A:80 X:9f Y:80 P:a5 SP:fb  STACK: 00 00 c6 05
cb38  4c 3f cb JMP $cb3f = ea                  A:80 X:9f Y:80 P:a5 SP:fb  STACK: 00 00 c6 05
cb3f  ea       NOP                             A:80 X:9f Y:80 P:a5 SP:fb  STACK: 00 00 c6 05
cb40  18       CLC                             A:80 X:9f Y:80 P:a5 SP:fb  STACK: 00 00 c6 05
cb41  24 01    BIT $01 = ff                    A:80 X:9f Y:80 P:a4 SP:fb  STACK: 00 00 c6 05
cb43  a2 00    LDX #$00                        A:80 X:9f Y:80 P:e4 SP:fb  STACK: 00 00 c6 05
cb45  d0 09    BNE $cb50                       A:80 X:00 Y:80 P:66 SP:fb  STACK: 00 00 c6 05
cb47  30 07    BMI $cb50                       A:80 X:00 Y:80 P:66 SP:fb  STACK: 00 00 c6 05
cb49  50 05    BVC $cb50                       A:80 X:00 Y:80 P:66 SP:fb  STACK: 00 00 c6 05
cb4b  b0 03    BCS $cb50                       A:80 X:00 Y:80 P:66 SP:fb  STACK: 00 00 c6 05
cb4d  4c 54 cb JMP $cb54 = ea                  A:80 X:00 Y:80 P:66 SP:fb  STACK: 00 00 c6 05
cb54  ea       NOP                             A:80 X:00 Y:80 P:66 SP:fb  STACK: 00 00 c6 05
cb55  38       SEC                             A:80 X:00 Y:80 P:66 SP:fb  STACK: 00 00 c6 05
cb56  b8       CLV                             A:80 X:00 Y:80 P:67 SP:fb  STACK: 00 00 c6 05
cb57  a0 9f    LDY #$9f                        A:80 X:00 Y:80 P:27 SP:fb  STACK: 00 00 c6 05
cb59  f0 09    BEQ $cb64                       A:80 X:00 Y:9f P:a5 SP:fb  STACK: 00 00 c6 05
cb5b  10 07    BPL $cb64                       A:80 X:00 Y:9f P:a5 SP:fb  STACK: 00 00 c6 05
cb5d  70 05    BVS $cb64                       A:80 X:00 Y:9f P:a5 SP:fb  STACK: 00 00 c6 05
cb5f  90 03    BCC $cb64                       A:80 X:00 Y:9f P:a5 SP:fb  STACK: 00 00 c6 05
cb61  4c 68 cb JMP $cb68 = ea                  A:80 X:00 Y:9f P:a5 SP:fb  STACK: 00 00 c6 05
cb68  ea       NOP                             A:80 X:00 Y:9f P:a5 SP:fb  STACK: 00 00 c6 05
cb69  18       CLC                             A:80 X:00 Y:9f P:a5 SP:fb  STACK: 00 00 c6 05
cb6a  24 01    BIT $01 = ff                    A:80 X:00 Y:9f P:a4 SP:fb  STACK: 00 00 c6 05
cb6c  a0 00    LDY #$00                        A:80 X:00 Y:9f P:e4 SP:fb  STACK: 00 00 c6 05
cb6e  d0 09    BNE $cb79                       A:80 X:00 Y:00 P:66 SP:fb  STACK: 00 00 c6 05
cb70  30 07    BMI $cb79                       A:80 X:00 Y:00 P:66 SP:fb  STACK: 00 00 c6 05
cb72  50 05    BVC $cb79                       A:80 X:00 Y:00 P:66 SP:fb  STACK: 00 00 c6 05
cb74  b0 03    BCS $cb79                       A:80 X:00 Y:00 P:66 SP:fb  STACK: 00 00 c6 05
cb76  4c 7d cb JMP $cb7d = ea                  A:80 X:00 Y:00 P:66 SP:fb  STACK: 00 00 c6 05
cb7d  ea       NOP                             A:80 X:00 Y:00 P:66 SP:fb  STACK: 00 00 c6 05
cb7e  a9 55    LDA #$55                        A:80 X:00 Y:00 P:66 SP:fb  STACK: 00 00 c6 05
cb80  a2 aa    LDX #$aa                        A:55 X:00 Y:00 P:64 SP:fb  STACK: 00 00 c6 05
cb82  a0 33    LDY #$33                        A:55 X:aa Y:00 P:e4 SP:fb  STACK: 00 00 c6 05
cb84  c9 55    CMP #$55                        A:55 X:aa Y:33 P:64 SP:fb  STACK: 00 00 c6 05
cb86  d0 23    BNE $cbab                       A:55 X:aa Y:33 P:67 SP:fb  STACK: 00 00 c6 05
cb88  e0 aa    CPX #$aa                        A:55 X:aa Y:33 P:67 SP:fb  STACK: 00 00 c6 05
cb8a  d0 1f    BNE $cbab                       A:55 X:aa Y:33 P:67 SP:fb  STACK: 00 00 c6 05
cb8c  c0 33    CPY #$33                        A:55 X:aa Y:33 P:67 SP:fb  STACK: 00 00 c6 05
cb8e  d0 1b    BNE $cbab                       A:55 X:aa Y:33 P:67 SP:fb  STACK: 00 00 c6 05
cb90  c9 55    CMP #$55                        A:55 X:aa Y:33 P:67 SP:fb  STACK: 00 00 c6 05
cb92  d0 17    BNE $cbab                       A:55 X:aa Y:33 P:67 SP:fb  STACK: 00 00 c6 05
cb94  e0 aa    CPX #$aa                        A:55 X:aa Y:33 P:67 SP:fb  STACK: 00 00 c6 05
cb96  d0 13    BNE $cbab                       A:55 X:aa Y:33 P:67 SP:fb  STACK: 00 00 c6 05
cb98  c0 33    CPY #$33                        A:55 X:aa Y:33 P:67 SP:fb  STACK: 00 00 c6 05
cb9a  d0 0f    BNE $cbab                       A:55 X:aa Y:33 P:67 SP:fb  STACK: 00 00 c6 05
cb9c  c9 56    CMP #$56                        A:55 X:aa Y:33 P:67 SP:fb  STACK: 00 00 c6 05
cb9e  f0 0b    BEQ $cbab                       A:55 X:aa Y:33 P:e4 SP:fb  STACK: 00 00 c6 05
cba0  e0 ab    CPX #$ab                        A:55 X:aa Y:33 P:e4 SP:fb  STACK: 00 00 c6 05
cba2  f0 07    BEQ $cbab                       A:55 X:aa Y:33 P:e4 SP:fb  STACK: 00 00 c6 05
cba4  c0 34    CPY #$34                        A:55 X:aa Y:33 P:e4 SP:fb  STACK: 00 00 c6 05
cba6  f0 03    BEQ $cbab                       A:55 X:aa Y:33 P:e4 SP:fb  STACK: 00 00 c6 05
cba8  4c af cb JMP $cbaf = a0                  A:55 X:aa Y:33 P:e4 SP:fb  STACK: 00 00 c6 05
cbaf  a0 71    LDY #$71                        A:55 X:aa Y:33 P:e4 SP:fb  STACK: 00 00 c6 05
cbb1  20 31 f9 JSR $f931 = 24                  A:55 X:aa Y:71 P:64 SP:fb  STACK: 00 00 c6 05
f931  24 01    BIT $01 = ff                    A:55 X:aa Y:71 P:64 SP:f9  STACK: 00 00 c6 05 cb b3
f933  a9 40    LDA #$40                        A:55 X:aa Y:71 P:e4 SP:f9  STACK: 00 00 c6 05 cb b3
f935  38       SEC                             A:40 X:aa Y:71 P:64 SP:f9  STACK: 00 00 c6 05 cb b3
f936  60       RTS                             A:40 X:aa Y:71 P:65 SP:f9  STACK: 00 00 c6 05 cb b3
cbb4  e9 40    SBC #$40                        A:40 X:aa Y:71 P:65 SP:fb  STACK: 00 00 c6 05
cbb6  20 37 f9 JSR $f937 = 30                  A:40 X:aa Y:71 P:65 SP:fb  STACK: 00 00 c6 05
f937  30 0b    BMI $f944                       A:40 X:aa Y:71 P:65 SP:f9  STACK: 00 00 c6 05 cb b8
f939  90 09    BCC $f944                       A:40 X:aa Y:71 P:65 SP:f9  STACK: 00 00 c6 05 cb b8
f93b  d0 07    BNE $f944                       A:40 X:aa Y:71 P:65 SP:f9  STACK: 00 00 c6 05 cb b8
f944  84 00    STY $00 = 22                    A:40 X:aa Y:71 P:65 SP:f9  STACK: 00 00 c6 05 cb b8
f946  60       RTS                             A:40 X:aa Y:71 P:65 SP:f9  STACK: 00 00 c6 05 cb b8
cbb9  c8       INY                             A:40 X:aa Y:71 P:65 SP:fb  STACK: 00 00 c6 05
cbba  20 47 f9 JSR $f947 = b8                  A:40 X:aa Y:71 P:65 SP:fb  STACK: 00 00 c6 05
f947  b8       CLV                             A:40 X:aa Y:71 P:65 SP:f9  STACK: 00 00 c6 05 cb bc
f948  38       SEC                             A:40 X:aa Y:71 P:25 SP:f9  STACK: 00 00 c6 05 cb bc
f949  a9 40    LDA #$40                        A:40 X:aa Y:71 P:25 SP:f9  STACK: 00 00 c6 05 cb bc
f94b  60       RTS                             A:40 X:aa Y:71 P:25 SP:f9  STACK: 00 00 c6 05 cb bc
cbbd  e9 3f    SBC #$3f                        A:40 X:aa Y:71 P:25 SP:fb  STACK: 00 00 c6 05
cbbf  20 4c f9 JSR $f94c = f0                  A:40 X:aa Y:71 P:25 SP:fb  STACK: 00 00 c6 05
f94c  f0 0b    BEQ $f959                       A:40 X:aa Y:71 P:25 SP:f9  STACK: 00 00 c6 05 cb c1
f94e  30 09    BMI $f959                       A:40 X:aa Y:71 P:25 SP:f9  STACK: 00 00 c6 05 cb c1
f950  90 07    BCC $f959                       A:40 X:aa Y:71 P:25 SP:f9  STACK: 00 00 c6 05 cb c1
f952  70 05    BVS $f959                       A:40 X:aa Y:71 P:25 SP:f9  STACK: 00 00 c6 05 cb c1
f954  c9 01    CMP #$01                        A:40 X:aa Y:71 P:25 SP:f9  STACK: 00 00 c6 05 cb c1
f956  d0 01    BNE $f959                       A:40 X:aa Y:71 P:25 SP:f9  STACK: 00 00 c6 05 cb c1
f959  84 00    STY $00 = 71                    A:40 X:aa Y:71 P:25 SP:f9  STACK: 00 00 c6 05 cb c1
f95b  60       RTS                             A:40 X:aa Y:71 P:25 SP:f9  STACK: 00 00 c6 05 cb c1
cbc2  c8       INY                             A:40 X:aa Y:71 P:25 SP:fb  STACK: 00 00 c6 05
cbc3  20 5c f9 JSR $f95c = a9                  A:40 X:aa Y:71 P:25 SP:fb  STACK: 00 00 c6 05
f95c  a9 40    LDA #$40                        A:40 X:aa Y:71 P:25 SP:f9  STACK: 00 00 c6 05 cb c5
f95e  38       SEC                             A:40 X:aa Y:71 P:25 SP:f9  STACK: 00 00 c6 05 cb c5
f95f  24 01    BIT $01 = ff                    A:40 X:aa Y:71 P:25 SP:f9  STACK: 00 00 c6 05 cb c5
f961  60       RTS                             A:40 X:aa Y:71 P:e5 SP:f9  STACK: 00 00 c6 05 cb c5
cbc6  e9 41    SBC #$41                        A:40 X:aa Y:71 P:e5 SP:fb  STACK: 00 00 c6 05
cbc8  20 62 f9 JSR $f962 = b0                  A:40 X:aa Y:71 P:e5 SP:fb  STACK: 00 00 c6 05
f962  b0 0b    BCS $f96f                       A:40 X:aa Y:71 P:e5 SP:f9  STACK: 00 00 c6 05 cb ca
f96f  84 00    STY $00 = 71                    A:40 X:aa Y:71 P:e5 SP:f9  STACK: 00 00 c6 05 cb ca
f971  60       RTS                             A:40 X:aa Y:71 P:e5 SP:f9  STACK: 00 00 c6 05 cb ca
cbcb  c8       INY                             A:40 X:aa Y:71 P:e5 SP:fb  STACK: 00 00 c6 05
cbcc  20 72 f9 JSR $f972 = 18                  A:40 X:aa Y:71 P:e5 SP:fb  STACK: 00 00 c6 05
f972  18       CLC                             A:40 X:aa Y:71 P:e5 SP:f9  STACK: 00 00 c6 05 cb ce
f973  a9 80    LDA #$80                        A:40 X:aa Y:71 P:e4 SP:f9  STACK: 00 00 c6 05 cb ce
f975  60       RTS                             A:80 X:aa Y:71 P:e4 SP:f9  STACK: 00 00 c6 05 cb ce
cbcf  e9 00    SBC #$00                        A:80 X:aa Y:71 P:e4 SP:fb  STACK: 00 00 c6 05
cbd1  20 76 f9 JSR $f976 = 90                  A:80 X:aa Y:71 P:e4 SP:fb  STACK: 00 00 c6 05
f976  90 05    BCC $f97d                       A:80 X:aa Y:71 P:e4 SP:f9  STACK: 00 00 c6 05 cb d3
f97d  84 00    STY $00 = 71                    A:80 X:aa Y:71 P:e4 SP:f9  STACK: 00 00 c6 05 cb d3
f97f  60       RTS                             A:80 X:aa Y:71 P:e4 SP:f9  STACK: 00 00 c6 05 cb d3
cbd4  c8       INY                             A:80 X:aa Y:71 P:e4 SP:fb  STACK: 00 00 c6 05
cbd5  20 80 f9 JSR $f980 = 38                  A:80 X:aa Y:71 P:e4 SP:fb  STACK: 00 00 c6 05
f980  38       SEC                             A:80 X:aa Y:71 P:e4 SP:f9  STACK: 00 00 c6 05 cb d7
f981  a9 81    LDA #$81                        A:80 X:aa Y:71 P:e5 SP:f9  STACK: 00 00 c6 05 cb d7
f983  60       RTS                             A:81 X:aa Y:71 P:e5 SP:f9  STACK: 00 00 c6 05 cb d7
cbd8  e9 7f    SBC #$7f                        A:81 X:aa Y:71 P:e5 SP:fb  STACK: 00 00 c6 05
cbda  20 84 f9 JSR $f984 = 50                  A:81 X:aa Y:71 P:e5 SP:fb  STACK: 00 00 c6 05
f984  50 07    BVC $f98d                       A:81 X:aa Y:71 P:e5 SP:f9  STACK: 00 00 c6 05 cb dc
f986  90 05    BCC $f98d                       A:81 X:aa Y:71 P:e5 SP:f9  STACK: 00 00 c6 05 cb dc
f988  c9 02    CMP #$02                        A:81 X:aa Y:71 P:e5 SP:f9  STACK: 00 00 c6 05 cb dc
f98a  d0 01    BNE $f98d                       A:81 X:aa Y:71 P:65 SP:f9  STACK: 00 00 c6 05 cb dc
f98d  84 00    STY $00 = 71                    A:81 X:aa Y:71 P:65 SP:f9  STACK: 00 00 c6 05 cb dc
f98f  60       RTS                             A:81 X:aa Y:71 P:65 SP:f9  STACK: 00 00 c6 05 cb dc
cbdd  60       RTS                             A:81 X:aa Y:71 P:65 SP:fb  STACK: 00 00 c6 05
c606  20 de cb JSR $cbde = ea                  A:81 X:aa Y:71 P:65 SP:fd  STACK: 00 00
cbde  ea       NOP                             A:81 X:aa Y:71 P:65 SP:fb  STACK: 00 00 c6 08
cbdf  a9 ff    LDA #$ff                        A:81 X:aa Y:71 P:65 SP:fb  STACK: 00 00 c6 08
cbe1  85 01    STA $01 = ff                    A:ff X:aa Y:71 P:e5 SP:fb  STACK: 00 00 c6 08
cbe3  a9 44    LDA #$44                        A:ff X:aa Y:71 P:e5 SP:fb  STACK: 00 00 c6 08
cbe5  a2 55    LDX #$55                        A:44 X:aa Y:71 P:65 SP:fb  STACK: 00 00 c6 08
cbe7  a0 66    LDY #$66                        A:44 X:55 Y:71 P:65 SP:fb  STACK: 00 00 c6 08
cbe9  e8       INX                             A:44 X:55 Y:66 P:65 SP:fb  STACK: 00 00 c6 08
cbea  88       DEY                             A:44 X:55 Y:66 P:65 SP:fb  STACK: 00 00 c6 08
cbeb  e0 56    CPX #$56                        A:44 X:55 Y:66 P:65 SP:fb  STACK: 00 00 c6 08
cbed  d0 21    BNE $cc10                       A:44 X:55 Y:66 P:e4 SP:fb  STACK: 00 00 c6 08
cc10  a2 3e    LDX #$3e                        A:44 X:55 Y:66 P:e4 SP:fb  STACK: 00 00 c6 08
cc12  86 00    STX $00 = 71                    A:44 X:3e Y:66 P:64 SP:fb  STACK: 00 00 c6 08
cc14  ea       NOP                             A:44 X:3e Y:66 P:64 SP:fb  STACK: 00 00 c6 08
cc15  38       SEC                             A:44 X:3e Y:66 P:64 SP:fb  STACK: 00 00 c6 08
cc16  a2 69    LDX #$69                        A:44 X:3e Y:66 P:65 SP:fb  STACK: 00 00 c6 08
cc18  a9 96    LDA #$96                        A:44 X:69 Y:66 P:65 SP:fb  STACK: 00 00 c6 08
cc1a  24 01    BIT $01 = ff                    A:96 X:69 Y:66 P:e5 SP:fb  STACK: 00 00 c6 08
cc1c  a0 ff    LDY #$ff                        A:96 X:69 Y:66 P:e5 SP:fb  STACK: 00 00 c6 08
cc1e  c8       INY                             A:96 X:69 Y:ff P:e5 SP:fb  STACK: 00 00 c6 08
cc1f  d0 3d    BNE $cc5e                       A:96 X:69 Y:ff P:e5 SP:fb  STACK: 00 00 c6 08
cc5e  a2 3f    LDX #$3f                        A:96 X:69 Y:ff P:e5 SP:fb  STACK: 00 00 c6 08
cc60  86 00    STX $00 = 3e                    A:96 X:3f Y:ff P:65 SP:fb  STACK: 00 00 c6 08
cc62  ea       NOP                             A:96 X:3f Y:ff P:65 SP:fb  STACK: 00 00 c6 08
cc63  38       SEC                             A:96 X:3f Y:ff P:65 SP:fb  STACK: 00 00 c6 08
cc64  a0 69    LDY #$69                        A:96 X:3f Y:ff P:65 SP:fb  STACK: 00 00 c6 08
cc66  a9 96    LDA #$96                        A:96 X:3f Y:69 P:65 SP:fb  STACK: 00 00 c6 08
cc68  24 01    BIT $01 = ff                    A:96 X:3f Y:69 P:e5 SP:fb  STACK: 00 00 c6 08
cc6a  a2 ff    LDX #$ff                        A:96 X:3f Y:69 P:e5 SP:fb  STACK: 00 00 c6 08
cc6c  e8       INX                             A:96 X:ff Y:69 P:e5 SP:fb  STACK: 00 00 c6 08
cc6d  d0 3d    BNE $ccac                       A:96 X:ff Y:69 P:e5 SP:fb  STACK: 00 00 c6 08
ccac  a2 40    LDX #$40                        A:96 X:ff Y:69 P:e5 SP:fb  STACK: 00 00 c6 08
ccae  86 00    STX $00 = 3f                    A:96 X:40 Y:69 P:65 SP:fb  STACK: 00 00 c6 08
ccb0  ea       NOP                             A:96 X:40 Y:69 P:65 SP:fb  STACK: 00 00 c6 08
ccb1  a9 85    LDA #$85                        A:96 X:40 Y:69 P:65 SP:fb  STACK: 00 00 c6 08
ccb3  a2 34    LDX #$34                        A:85 X:40 Y:69 P:e5 SP:fb  STACK: 00 00 c6 08
ccb5  a0 99    LDY #$99                        A:85 X:34 Y:69 P:65 SP:fb  STACK: 00 00 c6 08
ccb7  18       CLC                             A:85 X:34 Y:99 P:e5 SP:fb  STACK: 00 00 c6 08
ccb8  24 01    BIT $01 = ff                    A:85 X:34 Y:99 P:e4 SP:fb  STACK: 00 00 c6 08
ccba  a8       TAY                             A:85 X:34 Y:99 P:e4 SP:fb  STACK: 00 00 c6 08
ccbb  f0 2e    BEQ $cceb                       A:85 X:34 Y:85 P:e4 SP:fb  STACK: 00 00 c6 08
ccbd  b0 2c    BCS $cceb                       A:85 X:34 Y:85 P:e4 SP:fb  STACK: 00 00 c6 08
ccbf  50 2a    BVC $cceb                       A:85 X:34 Y:85 P:e4 SP:fb  STACK: 00 00 c6 08
ccc1  10 28    BPL $cceb                       A:85 X:34 Y:85 P:e4 SP:fb  STACK: 00 00 c6 08
ccc3  c9 85    CMP #$85                        A:85 X:34 Y:85 P:e4 SP:fb  STACK: 00 00 c6 08
ccc5  d0 24    BNE $cceb                       A:85 X:34 Y:85 P:67 SP:fb  STACK: 00 00 c6 08
ccc7  e0 34    CPX #$34                        A:85 X:34 Y:85 P:67 SP:fb  STACK: 00 00 c6 08
ccc9  d0 20    BNE $cceb                       A:85 X:34 Y:85 P:67 SP:fb  STACK: 00 00 c6 08
cccb  c0 85    CPY #$85                        A:85 X:34 Y:85 P:67 SP:fb  STACK: 00 00 c6 08
cccd  d0 1c    BNE $cceb                       A:85 X:34 Y:85 P:67 SP:fb  STACK: 00 00 c6 08
cccf  a9 00    LDA #$00                        A:85 X:34 Y:85 P:67 SP:fb  STACK: 00 00 c6 08
ccd1  38       SEC                             A:00 X:34 Y:85 P:67 SP:fb  STACK: 00 00 c6 08
ccd2  b8       CLV                             A:00 X:34 Y:85 P:67 SP:fb  STACK: 00 00 c6 08
ccd3  a8       TAY                             A:00 X:34 Y:85 P:27 SP:fb  STACK: 00 00 c6 08
ccd4  d0 15    BNE $cceb                       A:00 X:34 Y:00 P:27 SP:fb  STACK: 00 00 c6 08
ccd6  90 13    BCC $cceb                       A:00 X:34 Y:00 P:27 SP:fb  STACK: 00 00 c6 08
ccd8  70 11    BVS $cceb                       A:00 X:34 Y:00 P:27 SP:fb  STACK: 00 00 c6 08
ccda  30 0f    BMI $cceb                       A:00 X:34 Y:00 P:27 SP:fb  STACK: 00 00 c6 08
ccdc  c9 00    CMP #$00                        A:00 X:34 Y:00 P:27 SP:fb  STACK: 00 00 c6 08
ccde  d0 0b    BNE $cceb                       A:00 X:34 Y:00 P:27 SP:fb  STACK: 00 00 c6 08
cce0  e0 34    CPX #$34                        A:00 X:34 Y:00 P:27 SP:fb  STACK: 00 00 c6 08
cce2  d0 07    BNE $cceb                       A:00 X:34 Y:00 P:27 SP:fb  STACK: 00 00 c6 08
cce4  c0 00    CPY #$00                        A:00 X:34 Y:00 P:27 SP:fb  STACK: 00 00 c6 08
cce6  d0 03    BNE $cceb                       A:00 X:34 Y:00 P:27 SP:fb  STACK: 00 00 c6 08
cce8  4c ef cc JMP $ccef = ea                  A:00 X:34 Y:00 P:27 SP:fb  STACK: 00 00 c6 08
ccef  ea       NOP                             A:00 X:34 Y:00 P:27 SP:fb  STACK: 00 00 c6 08
ccf0  a9 85    LDA #$85                        A:00 X:34 Y:00 P:27 SP:fb  STACK: 00 00 c6 08
ccf2  a2 34    LDX #$34                        A:85 X:34 Y:00 P:a5 SP:fb  STACK: 00 00 c6 08
ccf4  a0 99    LDY #$99                        A:85 X:34 Y:00 P:25 SP:fb  STACK: 00 00 c6 08
ccf6  18       CLC                             A:85 X:34 Y:99 P:a5 SP:fb  STACK: 00 00 c6 08
ccf7  24 01    BIT $01 = ff                    A:85 X:34 Y:99 P:a4 SP:fb  STACK: 00 00 c6 08
ccf9  aa       TAX                             A:85 X:34 Y:99 P:e4 SP:fb  STACK: 00 00 c6 08
ccfa  f0 2e    BEQ $cd2a                       A:85 X:85 Y:99 P:e4 SP:fb  STACK: 00 00 c6 08
ccfc  b0 2c    BCS $cd2a                       A:85 X:85 Y:99 P:e4 SP:fb  STACK: 00 00 c6 08
ccfe  50 2a    BVC $cd2a                       A:85 X:85 Y:99 P:e4 SP:fb  STACK: 00 00 c6 08
cd00  10 28    BPL $cd2a                       A:85 X:85 Y:99 P:e4 SP:fb  STACK: 00 00 c6 08
cd02  c9 85    CMP #$85                        A:85 X:85 Y:99 P:e4 SP:fb  STACK: 00 00 c6 08
cd04  d0 24    BNE $cd2a                       A:85 X:85 Y:99 P:67 SP:fb  STACK: 00 00 c6 08
cd06  e0 85    CPX #$85                        A:85 X:85 Y:99 P:67 SP:fb  STACK: 00 00 c6 08
cd08  d0 20    BNE $cd2a                       A:85 X:85 Y:99 P:67 SP:fb  STACK: 00 00 c6 08
cd0a  c0 99    CPY #$99                        A:85 X:85 Y:99 P:67 SP:fb  STACK: 00 00 c6 08
cd0c  d0 1c    BNE $cd2a                       A:85 X:85 Y:99 P:67 SP:fb  STACK: 00 00 c6 08
cd0e  a9 00    LDA #$00                        A:85 X:85 Y:99 P:67 SP:fb  STACK: 00 00 c6 08
cd10  38       SEC                             A:00 X:85 Y:99 P:67 SP:fb  STACK: 00 00 c6 08
cd11  b8       CLV                             A:00 X:85 Y:99 P:67 SP:fb  STACK: 00 00 c6 08
cd12  aa       TAX                             A:00 X:85 Y:99 P:27 SP:fb  STACK: 00 00 c6 08
cd13  d0 15    BNE $cd2a                       A:00 X:00 Y:99 P:27 SP:fb  STACK: 00 00 c6 08
cd15  90 13    BCC $cd2a                       A:00 X:00 Y:99 P:27 SP:fb  STACK: 00 00 c6 08
cd17  70 11    BVS $cd2a                       A:00 X:00 Y:99 P:27 SP:fb  STACK: 00 00 c6 08
cd19  30 0f    BMI $cd2a                       A:00 X:00 Y:99 P:27 SP:fb  STACK: 00 00 c6 08
cd1b  c9 00    CMP #$00                        A:00 X:00 Y:99 P:27 SP:fb  STACK: 00 00 c6 08
cd1d  d0 0b    BNE $cd2a                       A:00 X:00 Y:99 P:27 SP:fb  STACK: 00 00 c6 08
cd1f  e0 00    CPX #$00                        A:00 X:00 Y:99 P:27 SP:fb  STACK: 00 00 c6 08
cd21  d0 07    BNE $cd2a                       A:00 X:00 Y:99 P:27 SP:fb  STACK: 00 00 c6 08
cd23  c0 99    CPY #$99                        A:00 X:00 Y:99 P:27 SP:fb  STACK: 00 00 c6 08
cd25  d0 03    BNE $cd2a                       A:00 X:00 Y:99 P:27 SP:fb  STACK: 00 00 c6 08
cd27  4c 2e cd JMP $cd2e = ea                  A:00 X:00 Y:99 P:27 SP:fb  STACK: 00 00 c6 08
cd2e  ea       NOP                             A:00 X:00 Y:99 P:27 SP:fb  STACK: 00 00 c6 08
cd2f  a9 85    LDA #$85                        A:00 X:00 Y:99 P:27 SP:fb  STACK: 00 00 c6 08
cd31  a2 34    LDX #$34                        A:85 X:00 Y:99 P:a5 SP:fb  STACK: 00 00 c6 08
cd33  a0 99    LDY #$99                        A:85 X:34 Y:99 P:25 SP:fb  STACK: 00 00 c6 08
cd35  18       CLC                             A:85 X:34 Y:99 P:a5 SP:fb  STACK: 00 00 c6 08
cd36  24 01    BIT $01 = ff                    A:85 X:34 Y:99 P:a4 SP:fb  STACK: 00 00 c6 08
cd38  98       TYA                             A:85 X:34 Y:99 P:e4 SP:fb  STACK: 00 00 c6 08
cd39  f0 2e    BEQ $cd69                       A:99 X:34 Y:99 P:e4 SP:fb  STACK: 00 00 c6 08
cd3b  b0 2c    BCS $cd69                       A:99 X:34 Y:99 P:e4 SP:fb  STACK: 00 00 c6 08
cd3d  50 2a    BVC $cd69                       A:99 X:34 Y:99 P:e4 SP:fb  STACK: 00 00 c6 08
cd3f  10 28    BPL $cd69                       A:99 X:34 Y:99 P:e4 SP:fb  STACK: 00 00 c6 08
cd41  c9 99    CMP #$99                        A:99 X:34 Y:99 P:e4 SP:fb  STACK: 00 00 c6 08
cd43  d0 24    BNE $cd69                       A:99 X:34 Y:99 P:67 SP:fb  STACK: 00 00 c6 08
cd45  e0 34    CPX #$34                        A:99 X:34 Y:99 P:67 SP:fb  STACK: 00 00 c6 08
cd47  d0 20    BNE $cd69                       A:99 X:34 Y:99 P:67 SP:fb  STACK: 00 00 c6 08
cd49  c0 99    CPY #$99                        A:99 X:34 Y:99 P:67 SP:fb  STACK: 00 00 c6 08
cd4b  d0 1c    BNE $cd69                       A:99 X:34 Y:99 P:67 SP:fb  STACK: 00 00 c6 08
cd4d  a0 00    LDY #$00                        A:99 X:34 Y:99 P:67 SP:fb  STACK: 00 00 c6 08
cd4f  38       SEC                             A:99 X:34 Y:00 P:67 SP:fb  STACK: 00 00 c6 08
cd50  b8       CLV                             A:99 X:34 Y:00 P:67 SP:fb  STACK: 00 00 c6 08
cd51  98       TYA                             A:99 X:34 Y:00 P:27 SP:fb  STACK: 00 00 c6 08
cd52  d0 15    BNE $cd69                       A:00 X:34 Y:00 P:27 SP:fb  STACK: 00 00 c6 08
cd54  90 13    BCC $cd69                       A:00 X:34 Y:00 P:27 SP:fb  STACK: 00 00 c6 08
cd56  70 11    BVS $cd69                       A:00 X:34 Y:00 P:27 SP:fb  STACK: 00 00 c6 08
cd58  30 0f    BMI $cd69                       A:00 X:34 Y:00 P:27 SP:fb  STACK: 00 00 c6 08
cd5a  c9 00    CMP #$00                        A:00 X:34 Y:00 P:27 SP:fb  STACK: 00 00 c6 08
cd5c  d0 0b    BNE $cd69                       A:00 X:34 Y:00 P:27 SP:fb  STACK: 00 00 c6 08
cd5e  e0 34    CPX #$34                        A:00 X:34 Y:00 P:27 SP:fb  STACK: 00 00 c6 08
cd60  d0 07    BNE $cd69                       A:00 X:34 Y:00 P:27 SP:fb  STACK: 00 00 c6 08
cd62  c0 00    CPY #$00                        A:00 X:34 Y:00 P:27 SP:fb  STACK: 00 00 c6 08
cd64  d0 03    BNE $cd69                       A:00 X:34 Y:00 P:27 SP:fb  STACK: 00 00 c6 08
cd66  4c 6d cd JMP $cd6d = ea                  A:00 X:34 Y:00 P:27 SP:fb  STACK: 00 00 c6 08
cd6d  ea       NOP                             A:00 X:34 Y:00 P:27 SP:fb  STACK: 00 00 c6 08
cd6e  a9 85    LDA #$85                        A:00 X:34 Y:00 P:27 SP:fb  STACK: 00 00 c6 08
cd70  a2 34    LDX #$34                        A:85 X:34 Y:00 P:a5 SP:fb  STACK: 00 00 c6 08
cd72  a0 99    LDY #$99                        A:85 X:34 Y:00 P:25 SP:fb  STACK: 00 00 c6 08
cd74  18       CLC                             A:85 X:34 Y:99 P:a5 SP:fb  STACK: 00 00 c6 08
cd75  24 01    BIT $01 = ff                    A:85 X:34 Y:99 P:a4 SP:fb  STACK: 00 00 c6 08
cd77  8a       TXA                             A:85 X:34 Y:99 P:e4 SP:fb  STACK: 00 00 c6 08
cd78  f0 2e    BEQ $cda8                       A:34 X:34 Y:99 P:64 SP:fb  STACK: 00 00 c6 08
cd7a  b0 2c    BCS $cda8                       A:34 X:34 Y:99 P:64 SP:fb  STACK: 00 00 c6 08
cd7c  50 2a    BVC $cda8                       A:34 X:34 Y:99 P:64 SP:fb  STACK: 00 00 c6 08
cd7e  30 28    BMI $cda8                       A:34 X:34 Y:99 P:64 SP:fb  STACK: 00 00 c6 08
cd80  c9 34    CMP #$34                        A:34 X:34 Y:99 P:64 SP:fb  STACK: 00 00 c6 08
cd82  d0 24    BNE $cda8                       A:34 X:34 Y:99 P:67 SP:fb  STACK: 00 00 c6 08
cd84  e0 34    CPX #$34                        A:34 X:34 Y:99 P:67 SP:fb  STACK: 00 00 c6 08
cd86  d0 20    BNE $cda8                       A:34 X:34 Y:99 P:67 SP:fb  STACK: 00 00 c6 08
cd88  c0 99    CPY #$99                        A:34 X:34 Y:99 P:67 SP:fb  STACK: 00 00 c6 08
cd8a  d0 1c    BNE $cda8                       A:34 X:34 Y:99 P:67 SP:fb  STACK: 00 00 c6 08
cd8c  a2 00    LDX #$00                        A:34 X:34 Y:99 P:67 SP:fb  STACK: 00 00 c6 08
cd8e  38       SEC                             A:34 X:00 Y:99 P:67 SP:fb  STACK: 00 00 c6 08
cd8f  b8       CLV                             A:34 X:00 Y:99 P:67 SP:fb  STACK: 00 00 c6 08
cd90  8a       TXA                             A:34 X:00 Y:99 P:27 SP:fb  STACK: 00 00 c6 08
cd91  d0 15    BNE $cda8                       A:00 X:00 Y:99 P:27 SP:fb  STACK: 00 00 c6 08
cd93  90 13    BCC $cda8                       A:00 X:00 Y:99 P:27 SP:fb  STACK: 00 00 c6 08
cd95  70 11    BVS $cda8                       A:00 X:00 Y:99 P:27 SP:fb  STACK: 00 00 c6 08
cd97  30 0f    BMI $cda8                       A:00 X:00 Y:99 P:27 SP:fb  STACK: 00 00 c6 08
cd99  c9 00    CMP #$00                        A:00 X:00 Y:99 P:27 SP:fb  STACK: 00 00 c6 08
cd9b  d0 0b    BNE $cda8                       A:00 X:00 Y:99 P:27 SP:fb  STACK: 00 00 c6 08
cd9d  e0 00    CPX #$00                        A:00 X:00 Y:99 P:27 SP:fb  STACK: 00 00 c6 08
cd9f  d0 07    BNE $cda8                       A:00 X:00 Y:99 P:27 SP:fb  STACK: 00 00 c6 08
cda1  c0 99    CPY #$99                        A:00 X:00 Y:99 P:27 SP:fb  STACK: 00 00 c6 08
cda3  d0 03    BNE $cda8                       A:00 X:00 Y:99 P:27 SP:fb  STACK: 00 00 c6 08
cda5  4c ac cd JMP $cdac = ea                  A:00 X:00 Y:99 P:27 SP:fb  STACK: 00 00 c6 08
cdac  ea       NOP                             A:00 X:00 Y:99 P:27 SP:fb  STACK: 00 00 c6 08
cdad  ba       TSX                             A:00 X:00 Y:99 P:27 SP:fb  STACK: 00 00 c6 08
cdae  8e ff 07 STX $07ff = 00                  A:00 X:fb Y:99 P:a5 SP:fb  STACK: 00 00 c6 08
cdb1  a0 33    LDY #$33                        A:00 X:fb Y:99 P:a5 SP:fb  STACK: 00 00 c6 08
cdb3  a2 69    LDX #$69                        A:00 X:fb Y:33 P:25 SP:fb  STACK: 00 00 c6 08
cdb5  a9 84    LDA #$84                        A:00 X:69 Y:33 P:25 SP:fb  STACK: 00 00 c6 08
cdb7  18       CLC                             A:84 X:69 Y:33 P:a5 SP:fb  STACK: 00 00 c6 08
cdb8  24 01    BIT $01 = ff                    A:84 X:69 Y:33 P:a4 SP:fb  STACK: 00 00 c6 08
cdba  9a       TXS                             A:84 X:69 Y:33 P:e4 SP:fb  STACK: 00 00 c6 08
cdbb  f0 32    BEQ $cdef                       A:84 X:69 Y:33 P:64 SP:69  STACK: 00 00 c6 08 cb dc 00 00 00 00 00 00 00 00 00 00 00 00 00 00 00 00 00 00 00 00 00 00 00 00 00 00 00 00 00 00 00 00 00 00 00 00 00 00 00 00 00 00 00 00 00 00 00 00 00 00 00 00 00 00 00 00 00 00 00 00 00 00 00 00 00 00 00 00 00 00 00 00 00 00 00 00 00 00 00 00 00 00 00 00 00 00 00 00 00 00 00 00 00 00 00 00 00 00 00 00 00 00 00 00 00 00 00 00 00 00 00 00 00 00 00 00 00 00 00 00 00 00 00 00 00 00 00 00 00 00 00 00 00 00 00 00 00 00 00 00 00 00 00 00
cdbd  10 30    BPL $cdef                       A:84 X:69 Y:33 P:64 SP:69  STACK: 00 00 c6 08 cb dc 00 00 00 00 00 00 00 00 00 00 00 00 00 00 00 00 00 00 00 00 00 00 00 00 00 00 00 00 00 00 00 00 00 00 00 00 00 00 00 00 00 00 00 00 00 00 00 00 00 00 00 00 00 00 00 00 00 00 00 00 00 00 00 00 00 00 00 00 00 00 00 00 00 00 00 00 00 00 00 00 00 00 00 00 00 00 00 00 00 00 00 00 00 00 00 00 00 00 00 00 00 00 00 00 00 00 00 00 00 00 00 00 00 00 00 00 00 00 00 00 00 00 00 00 00 00 00 00 00 00 00 00 00 00 00 00 00 00 00 00 00 00 00 00
cdef  a2 45    LDX #$45                        A:84 X:69 Y:33 P:64 SP:69  STACK: 00 00 c6 08 cb dc 00 00 00 00 00 00 00 00 00 00 00 00 00 00 00 00 00 00 00 00 00 00 00 00 00 00 00 00 00 00 00 00 00 00 00 00 00 00 00 00 00 00 00 00 00 00 00 00 00 00 00 00 00 00 00 00 00 00 00 00 00 00 00 00 00 00 00 00 00 00 00 00 00 00 00 00 00 00 00 00 00 00 00 00 00 00 00 00 00 00 00 00 00 00 00 00 00 00 00 00 00 00 00 00 00 00 00 00 00 00 00 00 00 00 00 00 00 00 00 00 00 00 00 00 00 00 00 00 00 00 00 00 00 00 00 00 00 00 00 00 00 00 00 00
cdf1  86 00    STX $00 = 40                    A:84 X:45 Y:33 P:64 SP:69  STACK: 00 00 c6 08 cb dc 00 00 00 00 00 00 00 00 00 00 00 00 00 00 00 00 00 00 00 00 00 00 00 00 00 00 00 00 00 00 00 00 00 00 00 00 00 00 00 00 00 00 00 00 00 00 00 00 00 00 00 00 00 00 00 00 00 00 00 00 00 00 00 00 00 00 00 00 00 00 00 00 00 00 00 00 00 00 00 00 00 00 00 00 00 00 00 00 00 00 00 00 00 00 00 00 00 00 00 00 00 00 00 00 00 00 00 00 00 00 00 00 00 00 00 00 00 00 00 00 00 00 00 00 00 00 00 00 00 00 00 00 00 00 00 00 00 00 00 00 00 00 00 00
cdf3  ae ff 07 LDX $07ff = fb                  A:84 X:45 Y:33 P:64 SP:69  STACK: 00 00 c6 08 cb dc 00 00 00 00 00 00 00 00 00 00 00 00 00 00 00 00 00 00 00 00 00 00 00 00 00 00 00 00 00 00 00 00 00 00 00 00 00 00 00 00 00 00 00 00 00 00 00 00 00 00 00 00 00 00 00 00 00 00 00 00 00 00 00 00 00 00 00 00 00 00 00 00 00 00 00 00 00 00 00 00 00 00 00 00 00 00 00 00 00 00 00 00 00 00 00 00 00 00 00 00 00 00 00 00 00 00 00 00 00 00 00 00 00 00 00 00 00 00 00 00 00 00 00 00 00 00 00 00 00 00 00 00 00 00 00 00 00 00 00 00 00 00 00 00
cdf6  9a       TXS                             A:84 X:fb Y:33 P:e4 SP:69  STACK: 00 00 c6 08 cb dc 00 00 00 00 00 00 00 00 00 00 00 00 00 00 00 00 00 00 00 00 00 00 00 00 00 00 00 00 00 00 00 00 00 00 00 00 00 00 00 00 00 00 00 00 00 00 00 00 00 00 00 00 00 00 00 00 00 00 00 00 00 00 00 00 00 00 00 00 00 00 00 00 00 00 00 00 00 00 00 00 00 00 00 00 00 00 00 00 00 00 00 00 00 00 00 00 00 00 00 00 00 00 00 00 00 00 00 00 00 00 00 00 00 00 00 00 00 00 00 00 00 00 00 00 00 00 00 00 00 00 00 00 00 00 00 00 00 00 00 00 00 00 00 00
cdf7  60       RTS                             A:84 X:fb Y:33 P:e4 SP:fb  STACK: 00 00 c6 08
c609  20 f8 cd JSR $cdf8 = a9                  A:84 X:fb Y:33 P:e4 SP:fd  STACK: 00 00
cdf8  a9 ff    LDA #$ff                        A:84 X:fb Y:33 P:e4 SP:fb  STACK: 00 00 c6 0b
cdfa  85 01    STA $01 = ff                    A:ff X:fb Y:33 P:e4 SP:fb  STACK: 00 00 c6 0b
cdfc  ba       TSX                             A:ff X:fb Y:33 P:e4 SP:fb  STACK: 00 00 c6 0b
cdfd  8e ff 07 STX $07ff = fb                  A:ff X:fb Y:33 P:e4 SP:fb  STACK: 00 00 c6 0b
ce00  ea       NOP                             A:ff X:fb Y:33 P:e4 SP:fb  STACK: 00 00 c6 0b
ce01  a2 80    LDX #$80                        A:ff X:fb Y:33 P:e4 SP:fb  STACK: 00 00 c6 0b
ce03  9a       TXS                             A:ff X:80 Y:33 P:e4 SP:fb  STACK: 00 00 c6 0b
ce04  a9 33    LDA #$33                        A:ff X:80 Y:33 P:e4 SP:80  STACK: 00 00 c6 0b cb dc 00 00 00 00 00 00 00 00 00 00 00 00 00 00 00 00 00 00 00 00 00 00 00 00 00 00 00 00 00 00 00 00 00 00 00 00 00 00 00 00 00 00 00 00 00 00 00 00 00 00 00 00 00 00 00 00 00 00 00 00 00 00 00 00 00 00 00 00 00 00 00 00 00 00 00 00 00 00 00 00 00 00 00 00 00 00 00 00 00 00 00 00 00 00 00 00 00 00 00 00 00 00 00 00 00 00 00 00 00 00 00 00 00 00 00 00 00 00 00 00 00
ce06  48       PHA                             A:33 X:80 Y:33 P:64 SP:80  STACK: 00 00 c6 0b cb dc 00 00 00 00 00 00 00 00 00 00 00 00 00 00 00 00 00 00 00 00 00 00 00 00 00 00 00 00 00 00 00 00 00 00 00 00 00 00 00 00 00 00 00 00 00 00 00 00 00 00 00 00 00 00 00 00 00 00 00 00 00 00 00 00 00 00 00 00 00 00 00 00 00 00 00 00 00 00 00 00 00 00 00 00 00 00 00 00 00 00 00 00 00 00 00 00 00 00 00 00 00 00 00 00 00 00 00 00 00 00 00 00 00 00 00 00 00 00 00 00 00
ce07  a9 69    LDA #$69                        A:33 X:80 Y:33 P:64 SP:7f  STACK: 00 00 c6 0b cb dc 00 00 00 00 00 00 00 00 00 00 00 00 00 00 00 00 00 00 00 00 00 00 00 00 00 00 00 00 00 00 00 00 00 00 00 00 00 00 00 00 00 00 00 00 00 00 00 00 00 00 00 00 00 00 00 00 00 00 00 00 00 00 00 00 00 00 00 00 00 00 00 00 00 00 00 00 00 00 00 00 00 00 00 00 00 00 00 00 00 00 00 00 00 00 00 00 00 00 00 00 00 00 00 00 00 00 00 00 00 00 00 00 00 00 00 00 00 00 00 00 00 33
ce09  48       PHA                             A:69 X:80 Y:33 P:64 SP:7f  STACK: 00 00 c6 0b cb dc 00 00 00 00 00 00 00 00 00 00 00 00 00 00 00 00 00 00 00 00 00 00 00 00 00 00 00 00 00 00 00 00 00 00 00 00 00 00 00 00 00 00 00 00 00 00 00 00 00 00 00 00 00 00 00 00 00 00 00 00 00 00 00 00 00 00 00 00 00 00 00 00 00 00 00 00 00 00 00 00 00 00 00 00 00 00 00 00 00 00 00 00 00 00 00 00 00 00 00 00 00 00 00 00 00 00 00 00 00 00 00 00 00 00 00 00 00 00 00 00 00 33
ce0a  ba       TSX                             A:69 X:80 Y:33 P:64 SP:7e  STACK: 00 00 c6 0b cb dc 00 00 00 00 00 00 00 00 00 00 00 00 00 00 00 00 00 00 00 00 00 00 00 00 00 00 00 00 00 00 00 00 00 00 00 00 00 00 00 00 00 00 00 00 00 00 00 00 00 00 00 00 00 00 00 00 00 00 00 00 00 00 00 00 00 00 00 00 00 00 00 00 00 00 00 00 00 00 00 00 00 00 00 00 00 00 00 00 00 00 00 00 00 00 00 00 00 00 00 00 00 00 00 00 00 00 00 00 00 00 00 00 00 00 00 00 00 00 00 00 00 33 69
ce0b  e0 7e    CPX #$7e                        A:69 X:7e Y:33 P:64 SP:7e  STACK: 00 00 c6 0b cb dc 00 00 00 00 00 00 00 00 00 00 00 00 00 00 00 00 00 00 00 00 00 00 00 00 00 00 00 00 00 00 00 00 00 00 00 00 00 00 00 00 00 00 00 00 00 00 00 00 00 00 00 00 00 00 00 00 00 00 00 00 00 00 00 00 00 00 00 00 00 00 00 00 00 00 00 00 00 00 00 00 00 00 00 00 00 00 00 00 00 00 00 00 00 00 00 00 00 00 00 00 00 00 00 00 00 00 00 00 00 00 00 00 00 00 00 00 00 00 00 00 00 33 69
ce0d  d0 20    BNE $ce2f                       A:69 X:7e Y:33 P:67 SP:7e  STACK: 00 00 c6 0b cb dc 00 00 00 00 00 00 00 00 00 00 00 00 00 00 00 00 00 00 00 00 00 00 00 00 00 00 00 00 00 00 00 00 00 00 00 00 00 00 00 00 00 00 00 00 00 00 00 00 00 00 00 00 00 00 00 00 00 00 00 00 00 00 00 00 00 00 00 00 00 00 00 00 00 00 00 00 00 00 00 00 00 00 00 00 00 00 00 00 00 00 00 00 00 00 00 00 00 00 00 00 00 00 00 00 00 00 00 00 00 00 00 00 00 00 00 00 00 00 00 00 00 33 69
ce0f  68       PLA                             A:69 X:7e Y:33 P:67 SP:7e  STACK: 00 00 c6 0b cb dc 00 00 00 00 00 00 00 00 00 00 00 00 00 00 00 00 00 00 00 00 00 00 00 00 00 00 00 00 00 00 00 00 00 00 00 00 00 00 00 00 00 00 00 00 00 00 00 00 00 00 00 00 00 00 00 00 00 00 00 00 00 00 00 00 00 00 00 00 00 00 00 00 00 00 00 00 00 00 00 00 00 00 00 00 00 00 00 00 00 00 00 00 00 00 00 00 00 00 00 00 00 00 00 00 00 00 00 00 00 00 00 00 00 00 00 00 00 00 00 00 00 33 69
ce10  c9 69    CMP #$69                        A:69 X:7e Y:33 P:65 SP:7f  STACK: 00 00 c6 0b cb dc 00 00 00 00 00 00 00 00 00 00 00 00 00 00 00 00 00 00 00 00 00 00 00 00 00 00 00 00 00 00 00 00 00 00 00 00 00 00 00 00 00 00 00 00 00 00 00 00 00 00 00 00 00 00 00 00 00 00 00 00 00 00 00 00 00 00 00 00 00 00 00 00 00 00 00 00 00 00 00 00 00 00 00 00 00 00 00 00 00 00 00 00 00 00 00 00 00 00 00 00 00 00 00 00 00 00 00 00 00 00 00 00 00 00 00 00 00 00 00 00 00 33
ce12  d0 1b    BNE $ce2f                       A:69 X:7e Y:33 P:67 SP:7f  STACK: 00 00 c6 0b cb dc 00 00 00 00 00 00 00 00 00 00 00 00 00 00 00 00 00 00 00 00 00 00 00 00 00 00 00 00 00 00 00 00 00 00 00 00 00 00 00 00 00 00 00 00 00 00 00 00 00 00 00 00 00 00 00 00 00 00 00 00 00 00 00 00 00 00 00 00 00 00 00 00 00 00 00 00 00 00 00 00 00 00 00 00 00 00 00 00 00 00 00 00 00 00 00 00 00 00 00 00 00 00 00 00 00 00 00 00 00 00 00 00 00 00 00 00 00 00 00 00 00 33
ce14  68       PLA                             A:69 X:7e Y:33 P:67 SP:7f  STACK: 00 00 c6 0b cb dc 00 00 00 00 00 00 00 00 00 00 00 00 00 00 00 00 00 00 00 00 00 00 00 00 00 00 00 00 00 00 00 00 00 00 00 00 00 00 00 00 00 00 00 00 00 00 00 00 00 00 00 00 00 00 00 00 00 00 00 00 00 00 00 00 00 00 00 00 00 00 00 00 00 00 00 00 00 00 00 00 00 00 00 00 00 00 00 00 00 00 00 00 00 00 00 00 00 00 00 00 00 00 00 00 00 00 00 00 00 00 00 00 00 00 00 00 00 00 00 00 00 33
ce15  c9 33    CMP #$33                        A:33 X:7e Y:33 P:65 SP:80  STACK: 00 00 c6 0b cb dc 00 00 00 00 00 00 00 00 00 00 00 00 00 00 00 00 00 00 00 00 00 00 00 00 00 00 00 00 00 00 00 00 00 00 00 00 00 00 00 00 00 00 00 00 00 00 00 00 00 00 00 00 00 00 00 00 00 00 00 00 00 00 00 00 00 00 00 00 00 00 00 00 00 00 00 00 00 00 00 00 00 00 00 00 00 00 00 00 00 00 00 00 00 00 00 00 00 00 00 00 00 00 00 00 00 00 00 00 00 00 00 00 00 00 00 00 00 00 00 00 00
ce17  d0 16    BNE $ce2f                       A:33 X:7e Y:33 P:67 SP:80  STACK: 00 00 c6 0b cb dc 00 00 00 00 00 00 00 00 00 00 00 00 00 00 00 00 00 00 00 00 00 00 00 00 00 00 00 00 00 00 00 00 00 00 00 00 00 00 00 00 00 00 00 00 00 00 00 00 00 00 00 00 00 00 00 00 00 00 00 00 00 00 00 00 00 00 00 00 00 00 00 00 00 00 00 00 00 00 00 00 00 00 00 00 00 00 00 00 00 00 00 00 00 00 00 00 00 00 00 00 00 00 00 00 00 00 00 00 00 00 00 00 00 00 00 00 00 00 00 00 00
ce19  ba       TSX                             A:33 X:7e Y:33 P:67 SP:80  STACK: 00 00 c6 0b cb dc 00 00 00 00 00 00 00 00 00 00 00 00 00 00 00 00 00 00 00 00 00 00 00 00 00 00 00 00 00 00 00 00 00 00 00 00 00 00 00 00 00 00 00 00 00 00 00 00 00 00 00 00 00 00 00 00 00 00 00 00 00 00 00 00 00 00 00 00 00 00 00 00 00 00 00 00 00 00 00 00 00 00 00 00 00 00 00 00 00 00 00 00 00 00 00 00 00 00 00 00 00 00 00 00 00 00 00 00 00 00 00 00 00 00 00 00 00 00 00 00 00
ce1a  e0 80    CPX #$80                        A:33 X:80 Y:33 P:e5 SP:80  STACK: 00 00 c6 0b cb dc 00 00 00 00 00 00 00 00 00 00 00 00 00 00 00 00 00 00 00 00 00 00 00 00 00 00 00 00 00 00 00 00 00 00 00 00 00 00 00 00 00 00 00 00 00 00 00 00 00 00 00 00 00 00 00 00 00 00 00 00 00 00 00 00 00 00 00 00 00 00 00 00 00 00 00 00 00 00 00 00 00 00 00 00 00 00 00 00 00 00 00 00 00 00 00 00 00 00 00 00 00 00 00 00 00 00 00 00 00 00 00 00 00 00 00 00 00 00 00 00 00
ce1c  d0 11    BNE $ce2f                       A:33 X:80 Y:33 P:67 SP:80  STACK: 00 00 c6 0b cb dc 00 00 00 00 00 00 00 00 00 00 00 00 00 00 00 00 00 00 00 00 00 00 00 00 00 00 00 00 00 00 00 00 00 00 00 00 00 00 00 00 00 00 00 00 00 00 00 00 00 00 00 00 00 00 00 00 00 00 00 00 00 00 00 00 00 00 00 00 00 00 00 00 00 00 00 00 00 00 00 00 00 00 00 00 00 00 00 00 00 00 00 00 00 00 00 00 00 00 00 00 00 00 00 00 00 00 00 00 00 00 00 00 00 00 00 00 00 00 00 00 00
ce1e  ad 80 01 LDA $0180 = 33                  A:33 X:80 Y:33 P:67 SP:80  STACK: 00 00 c6 0b cb dc 00 00 00 00 00 00 00 00 00 00 00 00 00 00 00 00 00 00 00 00 00 00 00 00 00 00 00 00 00 00 00 00 00 00 00 00 00 00 00 00 00 00 00 00 00 00 00 00 00 00 00 00 00 00 00 00 00 00 00 00 00 00 00 00 00 00 00 00 00 00 00 00 00 00 00 00 00 00 00 00 00 00 00 00 00 00 00 00 00 00 00 00 00 00 00 00 00 00 00 00 00 00 00 00 00 00 00 00 00 00 00 00 00 00 00 00 00 00 00 00 00
ce21  c9 33    CMP #$33                        A:33 X:80 Y:33 P:65 SP:80  STACK: 00 00 c6 0b cb dc 00 00 00 00 00 00 00 00 00 00 00 00 00 00 00 00 00 00 00 00 00 00 00 00 00 00 00 00 00 00 00 00 00 00 00 00 00 00 00 00 00 00 00 00 00 00 00 00 00 00 00 00 00 00 00 00 00 00 00 00 00 00 00 00 00 00 00 00 00 00 00 00 00 00 00 00 00 00 00 00 00 00 00 00 00 00 00 00 00 00 00 00 00 00 00 00 00 00 00 00 00 00 00 00 00 00 00 00 00 00 00 00 00 00 00 00 00 00 00 00 00
ce23  d0 0a    BNE $ce2f                       A:33 X:80 Y:33 P:67 SP:80  STACK: 00 00 c6 0b cb dc 00 00 00 00 00 00 00 00 00 00 00 00 00 00 00 00 00 00 00 00 00 00 00 00 00 00 00 00 00 00 00 00 00 00 00 00 00 00 00 00 00 00 00 00 00 00 00 00 00 00 00 00 00 00 00 00 00 00 00 00 00 00 00 00 00 00 00 00 00 00 00 00 00 00 00 00 00 00 00 00 00 00 00 00 00 00 00 00 00 00 00 00 00 00 00 00 00 00 00 00 00 00 00 00 00 00 00 00 00 00 00 00 00 00 00 00 00 00 00 00 00
ce25  ad 7f 01 LDA $017f = 69                  A:33 X:80 Y:33 P:67 SP:80  STACK: 00 00 c6 0b cb dc 00 00 00 00 00 00 00 00 00 00 00 00 00 00 00 00 00 00 00 00 00 00 00 00 00 00 00 00 00 00 00 00 00 00 00 00 00 00 00 00 00 00 00 00 00 00 00 00 00 00 00 00 00 00 00 00 00 00 00 00 00 00 00 00 00 00 00 00 00 00 00 00 00 00 00 00 00 00 00 00 00 00 00 00 00 00 00 00 00 00 00 00 00 00 00 00 00 00 00 00 00 00 00 00 00 00 00 00 00 00 00 00 00 00 00 00 00 00 00 00 00
ce28  c9 69    CMP #$69                        A:69 X:80 Y:33 P:65 SP:80  STACK: 00 00 c6 0b cb dc 00 00 00 00 00 00 00 00 00 00 00 00 00 00 00 00 00 00 00 00 00 00 00 00 00 00 00 00 00 00 00 00 00 00 00 00 00 00 00 00 00 00 00 00 00 00 00 00 00 00 00 00 00 00 00 00 00 00 00 00 00 00 00 00 00 00 00 00 00 00 00 00 00 00 00 00 00 00 00 00 00 00 00 00 00 00 00 00 00 00 00 00 00 00 00 00 00 00 00 00 00 00 00 00 00 00 00 00 00 00 00 00 00 00 00 00 00 00 00 00 00
ce2a  d0 03    BNE $ce2f                       A:69 X:80 Y:33 P:67 SP:80  STACK: 00 00 c6 0b cb dc 00 00 00 00 00 00 00 00 00 00 00 00 00 00 00 00 00 00 00 00 00 00 00 00 00 00 00 00 00 00 00 00 00 00 00 00 00 00 00 00 00 00 00 00 00 00 00 00 00 00 00 00 00 00 00 00 00 00 00 00 00 00 00 00 00 00 00 00 00 00 00 00 00 00 00 00 00 00 00 00 00 00 00 00 00 00 00 00 00 00 00 00 00 00 00 00 00 00 00 00 00 00 00 00 00 00 00 00 00 00 00 00 00 00 00 00 00 00 00 00 00
ce2c  4c 33 ce JMP $ce33 = ea                  A:69 X:80 Y:33 P:67 SP:80  STACK: 00 00 c6 0b cb dc 00 00 00 00 00 00 00 00 00 00 00 00 00 00 00 00 00 00 00 00 00 00 00 00 00 00 00 00 00 00 00 00 00 00 00 00 00 00 00 00 00 00 00 00 00 00 00 00 00 00 00 00 00 00 00 00 00 00 00 00 00 00 00 00 00 00 00 00 00 00 00 00 00 00 00 00 00 00 00 00 00 00 00 00 00 00 00 00 00 00 00 00 00 00 00 00 00 00 00 00 00 00 00 00 00 00 00 00 00 00 00 00 00 00 00 00 00 00 00 00 00
ce33  ea       NOP                             A:69 X:80 Y:33 P:67 SP:80  STACK: 00 00 c6 0b cb dc 00 00 00 00 00 00 00 00 00 00 00 00 00 00 00 00 00 00 00 00 00 00 00 00 00 00 00 00 00 00 00 00 00 00 00 00 00 00 00 00 00 00 00 00 00 00 00 00 00 00 00 00 00 00 00 00 00 00 00 00 00 00 00 00 00 00 00 00 00 00 00 00 00 00 00 00 00 00 00 00 00 00 00 00 00 00 00 00 00 00 00 00 00 00 00 00 00 00 00 00 00 00 00 00 00 00 00 00 00 00 00 00 00 00 00 00 00 00 00 00 00
ce34  a2 80    LDX #$80                        A:69 X:80 Y:33 P:67 SP:80  STACK: 00 00 c6 0b cb dc 00 00 00 00 00 00 00 00 00 00 00 00 00 00 00 00 00 00 00 00 00 00 00 00 00 00 00 00 00 00 00 00 00 00 00 00 00 00 00 00 00 00 00 00 00 00 00 00 00 00 00 00 00 00 00 00 00 00 00 00 00 00 00 00 00 00 00 00 00 00 00 00 00 00 00 00 00 00 00 00 00 00 00 00 00 00 00 00 00 00 00 00 00 00 00 00 00 00 00 00 00 00 00 00 00 00 00 00 00 00 00 00 00 00 00 00 00 00 00 00 00
ce36  9a       TXS                             A:69 X:80 Y:33 P:e5 SP:80  STACK: 00 00 c6 0b cb dc 00 00 00 00 00 00 00 00 00 00 00 00 00 00 00 00 00 00 00 00 00 00 00 00 00 00 00 00 00 00 00 00 00 00 00 00 00 00 00 00 00 00 00 00 00 00 00 00 00 00 00 00 00 00 00 00 00 00 00 00 00 00 00 00 00 00 00 00 00 00 00 00 00 00 00 00 00 00 00 00 00 00 00 00 00 00 00 00 00 00 00 00 00 00 00 00 00 00 00 00 00 00 00 00 00 00 00 00 00 00 00 00 00 00 00 00 00 00 00 00 00
ce37  20 3d ce JSR $ce3d = ba                  A:69 X:80 Y:33 P:e5 SP:80  STACK: 00 00 c6 0b cb dc 00 00 00 00 00 00 00 00 00 00 00 00 00 00 00 00 00 00 00 00 00 00 00 00 00 00 00 00 00 00 00 00 00 00 00 00 00 00 00 00 00 00 00 00 00 00 00 00 00 00 00 00 00 00 00 00 00 00 00 00 00 00 00 00 00 00 00 00 00 00 00 00 00 00 00 00 00 00 00 00 00 00 00 00 00 00 00 00 00 00 00 00 00 00 00 00 00 00 00 00 00 00 00 00 00 00 00 00 00 00 00 00 00 00 00 00 00 00 00 00 00
ce3d  ba       TSX                             A:69 X:80 Y:33 P:e5 SP:7e  STACK: 00 00 c6 0b cb dc 00 00 00 00 00 00 00 00 00 00 00 00 00 00 00 00 00 00 00 00 00 00 00 00 00 00 00 00 00 00 00 00 00 00 00 00 00 00 00 00 00 00 00 00 00 00 00 00 00 00 00 00 00 00 00 00 00 00 00 00 00 00 00 00 00 00 00 00 00 00 00 00 00 00 00 00 00 00 00 00 00 00 00 00 00 00 00 00 00 00 00 00 00 00 00 00 00 00 00 00 00 00 00 00 00 00 00 00 00 00 00 00 00 00 00 00 00 00 00 00 00 ce 39
ce3e  e0 7e    CPX #$7e                        A:69 X:7e Y:33 P:65 SP:7e  STACK: 00 00 c6 0b cb dc 00 00 00 00 00 00 00 00 00 00 00 00 00 00 00 00 00 00 00 00 00 00 00 00 00 00 00 00 00 00 00 00 00 00 00 00 00 00 00 00 00 00 00 00 00 00 00 00 00 00 00 00 00 00 00 00 00 00 00 00 00 00 00 00 00 00 00 00 00 00 00 00 00 00 00 00 00 00 00 00 00 00 00 00 00 00 00 00 00 00 00 00 00 00 00 00 00 00 00 00 00 00 00 00 00 00 00 00 00 00 00 00 00 00 00 00 00 00 00 00 00 ce 39
ce40  d0 19    BNE $ce5b                       A:69 X:7e Y:33 P:67 SP:7e  STACK: 00 00 c6 0b cb dc 00 00 00 00 00 00 00 00 00 00 00 00 00 00 00 00 00 00 00 00 00 00 00 00 00 00 00 00 00 00 00 00 00 00 00 00 00 00 00 00 00 00 00 00 00 00 00 00 00 00 00 00 00 00 00 00 00 00 00 00 00 00 00 00 00 00 00 00 00 00 00 00 00 00 00 00 00 00 00 00 00 00 00 00 00 00 00 00 00 00 00 00 00 00 00 00 00 00 00 00 00 00 00 00 00 00 00 00 00 00 00 00 00 00 00 00 00 00 00 00 00 ce 39
ce42  68       PLA                             A:69 X:7e Y:33 P:67 SP:7e  STACK: 00 00 c6 0b cb dc 00 00 00 00 00 00 00 00 00 00 00 00 00 00 00 00 00 00 00 00 00 00 00 00 00 00 00 00 00 00 00 00 00 00 00 00 00 00 00 00 00 00 00 00 00 00 00 00 00 00 00 00 00 00 00 00 00 00 00 00 00 00 00 00 00 00 00 00 00 00 00 00 00 00 00 00 00 00 00 00 00 00 00 00 00 00 00 00 00 00 00 00 00 00 00 00 00 00 00 00 00 00 00 00 00 00 00 00 00 00 00 00 00 00 00 00 00 00 00 00 00 ce 39
ce43  68       PLA                             A:39 X:7e Y:33 P:65 SP:7f  STACK: 00 00 c6 0b cb dc 00 00 00 00 00 00 00 00 00 00 00 00 00 00 00 00 00 00 00 00 00 00 00 00 00 00 00 00 00 00 00 00 00 00 00 00 00 00 00 00 00 00 00 00 00 00 00 00 00 00 00 00 00 00 00 00 00 00 00 00 00 00 00 00 00 00 00 00 00 00 00 00 00 00 00 00 00 00 00 00 00 00 00 00 00 00 00 00 00 00 00 00 00 00 00 00 00 00 00 00 00 00 00 00 00 00 00 00 00 00 00 00 00 00 00 00 00 00 00 00 00 ce
ce44  ba       TSX                             A:ce X:7e Y:33 P:e5 SP:80  STACK: 00 00 c6 0b cb dc 00 00 00 00 00 00 00 00 00 00 00 00 00 00 00 00 00 00 00 00 00 00 00 00 00 00 00 00 00 00 00 00 00 00 00 00 00 00 00 00 00 00 00 00 00 00 00 00 00 00 00 00 00 00 00 00 00 00 00 00 00 00 00 00 00 00 00 00 00 00 00 00 00 00 00 00 00 00 00 00 00 00 00 00 00 00 00 00 00 00 00 00 00 00 00 00 00 00 00 00 00 00 00 00 00 00 00 00 00 00 00 00 00 00 00 00 00 00 00 00 00
ce45  e0 80    CPX #$80                        A:ce X:80 Y:33 P:e5 SP:80  STACK: 00 00 c6 0b cb dc 00 00 00 00 00 00 00 00 00 00 00 00 00 00 00 00 00 00 00 00 00 00 00 00 00 00 00 00 00 00 00 00 00 00 00 00 00 00 00 00 00 00 00 00 00 00 00 00 00 00 00 00 00 00 00 00 00 00 00 00 00 00 00 00 00 00 00 00 00 00 00 00 00 00 00 00 00 00 00 00 00 00 00 00 00 00 00 00 00 00 00 00 00 00 00 00 00 00 00 00 00 00 00 00 00 00 00 00 00 00 00 00 00 00 00 00 00 00 00 00 00
ce47  d0 12    BNE $ce5b                       A:ce X:80 Y:33 P:67 SP:80  STACK: 00 00 c6 0b cb dc 00 00 00 00 00 00 00 00 00 00 00 00 00 00 00 00 00 00 00 00 00 00 00 00 00 00 00 00 00 00 00 00 00 00 00 00 00 00 00 00 00 00 00 00 00 00 00 00 00 00 00 00 00 00 00 00 00 00 00 00 00 00 00 00 00 00 00 00 00 00 00 00 00 00 00 00 00 00 00 00 00 00 00 00 00 00 00 00 00 00 00 00 00 00 00 00 00 00 00 00 00 00 00 00 00 00 00 00 00 00 00 00 00 00 00 00 00 00 00 00 00
ce49  a9 00    LDA #$00                        A:ce X:80 Y:33 P:67 SP:80  STACK: 00 00 c6 0b cb dc 00 00 00 00 00 00 00 00 00 00 00 00 00 00 00 00 00 00 00 00 00 00 00 00 00 00 00 00 00 00 00 00 00 00 00 00 00 00 00 00 00 00 00 00 00 00 00 00 00 00 00 00 00 00 00 00 00 00 00 00 00 00 00 00 00 00 00 00 00 00 00 00 00 00 00 00 00 00 00 00 00 00 00 00 00 00 00 00 00 00 00 00 00 00 00 00 00 00 00 00 00 00 00 00 00 00 00 00 00 00 00 00 00 00 00 00 00 00 00 00 00
ce4b  20 4e ce JSR $ce4e = 68                  A:00 X:80 Y:33 P:67 SP:80  STACK: 00 00 c6 0b cb dc 00 00 00 00 00 00 00 00 00 00 00 00 00 00 00 00 00 00 00 00 00 00 00 00 00 00 00 00 00 00 00 00 00 00 00 00 00 00 00 00 00 00 00 00 00 00 00 00 00 00 00 00 00 00 00 00 00 00 00 00 00 00 00 00 00 00 00 00 00 00 00 00 00 00 00 00 00 00 00 00 00 00 00 00 00 00 00 00 00 00 00 00 00 00 00 00 00 00 00 00 00 00 00 00 00 00 00 00 00 00 00 00 00 00 00 00 00 00 00 00 00
ce4e  68       PLA                             A:00 X:80 Y:33 P:67 SP:7e  STACK: 00 00 c6 0b cb dc 00 00 00 00 00 00 00 00 00 00 00 00 00 00 00 00 00 00 00 00 00 00 00 00 00 00 00 00 00 00 00 00 00 00 00 00 00 00 00 00 00 00 00 00 00 00 00 00 00 00 00 00 00 00 00 00 00 00 00 00 00 00 00 00 00 00 00 00 00 00 00 00 00 00 00 00 00 00 00 00 00 00 00 00 00 00 00 00 00 00 00 00 00 00 00 00 00 00 00 00 00 00 00 00 00 00 00 00 00 00 00 00 00 00 00 00 00 00 00 00 00 ce 4d
ce4f  c9 4d    CMP #$4d                        A:4d X:80 Y:33 P:65 SP:7f  STACK: 00 00 c6 0b cb dc 00 00 00 00 00 00 00 00 00 00 00 00 00 00 00 00 00 00 00 00 00 00 00 00 00 00 00 00 00 00 00 00 00 00 00 00 00 00 00 00 00 00 00 00 00 00 00 00 00 00 00 00 00 00 00 00 00 00 00 00 00 00 00 00 00 00 00 00 00 00 00 00 00 00 00 00 00 00 00 00 00 00 00 00 00 00 00 00 00 00 00 00 00 00 00 00 00 00 00 00 00 00 00 00 00 00 00 00 00 00 00 00 00 00 00 00 00 00 00 00 00 ce
ce51  d0 08    BNE $ce5b                       A:4d X:80 Y:33 P:67 SP:7f  STACK: 00 00 c6 0b cb dc 00 00 00 00 00 00 00 00 00 00 00 00 00 00 00 00 00 00 00 00 00 00 00 00 00 00 00 00 00 00 00 00 00 00 00 00 00 00 00 00 00 00 00 00 00 00 00 00 00 00 00 00 00 00 00 00 00 00 00 00 00 00 00 00 00 00 00 00 00 00 00 00 00 00 00 00 00 00 00 00 00 00 00 00 00 00 00 00 00 00 00 00 00 00 00 00 00 00 00 00 00 00 00 00 00 00 00 00 00 00 00 00 00 00 00 00 00 00 00 00 00 ce
ce53  68       PLA                             A:4d X:80 Y:33 P:67 SP:7f  STACK: 00 00 c6 0b cb dc 00 00 00 00 00 00 00 00 00 00 00 00 00 00 00 00 00 00 00 00 00 00 00 00 00 00 00 00 00 00 00 00 00 00 00 00 00 00 00 00 00 00 00 00 00 00 00 00 00 00 00 00 00 00 00 00 00 00 00 00 00 00 00 00 00 00 00 00 00 00 00 00 00 00 00 00 00 00 00 00 00 00 00 00 00 00 00 00 00 00 00 00 00 00 00 00 00 00 00 00 00 00 00 00 00 00 00 00 00 00 00 00 00 00 00 00 00 00 00 00 00 ce
ce54  c9 ce    CMP #$ce                        A:ce X:80 Y:33 P:e5 SP:80  STACK: 00 00 c6 0b cb dc 00 00 00 00 00 00 00 00 00 00 00 00 00 00 00 00 00 00 00 00 00 00 00 00 00 00 00 00 00 00 00 00 00 00 00 00 00 00 00 00 00 00 00 00 00 00 00 00 00 00 00 00 00 00 00 00 00 00 00 00 00 00 00 00 00 00 00 00 00 00 00 00 00 00 00 00 00 00 00 00 00 00 00 00 00 00 00 00 00 00 00 00 00 00 00 00 00 00 00 00 00 00 00 00 00 00 00 00 00 00 00 00 00 00 00 00 00 00 00 00 00
ce56  d0 03    BNE $ce5b                       A:ce X:80 Y:33 P:67 SP:80  STACK: 00 00 c6 0b cb dc 00 00 00 00 00 00 00 00 00 00 00 00 00 00 00 00 00 00 00 00 00 00 00 00 00 00 00 00 00 00 00 00 00 00 00 00 00 00 00 00 00 00 00 00 00 00 00 00 00 00 00 00 00 00 00 00 00 00 00 00 00 00 00 00 00 00 00 00 00 00 00 00 00 00 00 00 00 00 00 00 00 00 00 00 00 00 00 00 00 00 00 00 00 00 00 00 00 00 00 00 00 00 00 00 00 00 00 00 00 00 00 00 00 00 00 00 00 00 00 00 00
ce58  4c 5f ce JMP $ce5f = ea                  A:ce X:80 Y:33 P:67 SP:80  STACK: 00 00 c6 0b cb dc 00 00 00 00 00 00 00 00 00 00 00 00 00 00 00 00 00 00 00 00 00 00 00 00 00 00 00 00 00 00 00 00 00 00 00 00 00 00 00 00 00 00 00 00 00 00 00 00 00 00 00 00 00 00 00 00 00 00 00 00 00 00 00 00 00 00 00 00 00 00 00 00 00 00 00 00 00 00 00 00 00 00 00 00 00 00 00 00 00 00 00 00 00 00 00 00 00 00 00 00 00 00 00 00 00 00 00 00 00 00 00 00 00 00 00 00 00 00 00 00 00
ce5f  ea       NOP                             A:ce X:80 Y:33 P:67 SP:80  STACK: 00 00 c6 0b cb dc 00 00 00 00 00 00 00 00 00 00 00 00 00 00 00 00 00 00 00 00 00 00 00 00 00 00 00 00 00 00 00 00 00 00 00 00 00 00 00 00 00 00 00 00 00 00 00 00 00 00 00 00 00 00 00 00 00 00 00 00 00 00 00 00 00 00 00 00 00 00 00 00 00 00 00 00 00 00 00 00 00 00 00 00 00 00 00 00 00 00 00 00 00 00 00 00 00 00 00 00 00 00 00 00 00 00 00 00 00 00 00 00 00 00 00 00 00 00 00 00 00
ce60  a9 ce    LDA #$ce                        A:ce X:80 Y:33 P:67 SP:80  STACK: 00 00 c6 0b cb dc 00 00 00 00 00 00 00 00 00 00 00 00 00 00 00 00 00 00 00 00 00 00 00 00 00 00 00 00 00 00 00 00 00 00 00 00 00 00 00 00 00 00 00 00 00 00 00 00 00 00 00 00 00 00 00 00 00 00 00 00 00 00 00 00 00 00 00 00 00 00 00 00 00 00 00 00 00 00 00 00 00 00 00 00 00 00 00 00 00 00 00 00 00 00 00 00 00 00 00 00 00 00 00 00 00 00 00 00 00 00 00 00 00 00 00 00 00 00 00 00 00
ce62  48       PHA                             A:ce X:80 Y:33 P:e5 SP:80  STACK: 00 00 c6 0b cb dc 00 00 00 00 00 00 00 00 00 00 00 00 00 00 00 00 00 00 00 00 00 00 00 00 00 00 00 00 00 00 00 00 00 00 00 00 00 00 00 00 00 00 00 00 00 00 00 00 00 00 00 00 00 00 00 00 00 00 00 00 00 00 00 00 00 00 00 00 00 00 00 00 00 00 00 00 00 00 00 00 00 00 00 00 00 00 00 00 00 00 00 00 00 00 00 00 00 00 00 00 00 00 00 00 00 00 00 00 00 00 00 00 00 00 00 00 00 00 00 00 00
ce63  a9 66    LDA #$66                        A:ce X:80 Y:33 P:e5 SP:7f  STACK: 00 00 c6 0b cb dc 00 00 00 00 00 00 00 00 00 00 00 00 00 00 00 00 00 00 00 00 00 00 00 00 00 00 00 00 00 00 00 00 00 00 00 00 00 00 00 00 00 00 00 00 00 00 00 00 00 00 00 00 00 00 00 00 00 00 00 00 00 00 00 00 00 00 00 00 00 00 00 00 00 00 00 00 00 00 00 00 00 00 00 00 00 00 00 00 00 00 00 00 00 00 00 00 00 00 00 00 00 00 00 00 00 00 00 00 00 00 00 00 00 00 00 00 00 00 00 00 00 ce
ce65  48       PHA                             A:66 X:80 Y:33 P:65 SP:7f  STACK: 00 00 c6 0b cb dc 00 00 00 00 00 00 00 00 00 00 00 00 00 00 00 00 00 00 00 00 00 00 00 00 00 00 00 00 00 00 00 00 00 00 00 00 00 00 00 00 00 00 00 00 00 00 00 00 00 00 00 00 00 00 00 00 00 00 00 00 00 00 00 00 00 00 00 00 00 00 00 00 00 00 00 00 00 00 00 00 00 00 00 00 00 00 00 00 00 00 00 00 00 00 00 00 00 00 00 00 00 00 00 00 00 00 00 00 00 00 00 00 00 00 00 00 00 00 00 00 00 ce
ce66  60       RTS                             A:66 X:80 Y:33 P:65 SP:7e  STACK: 00 00 c6 0b cb dc 00 00 00 00 00 00 00 00 00 00 00 00 00 00 00 00 00 00 00 00 00 00 00 00 00 00 00 00 00 00 00 00 00 00 00 00 00 00 00 00 00 00 00 00 00 00 00 00 00 00 00 00 00 00 00 00 00 00 00 00 00 00 00 00 00 00 00 00 00 00 00 00 00 00 00 00 00 00 00 00 00 00 00 00 00 00 00 00 00 00 00 00 00 00 00 00 00 00 00 00 00 00 00 00 00 00 00 00 00 00 00 00 00 00 00 00 00 00 00 00 00 ce 66
ce67  a2 77    LDX #$77                        A:66 X:80 Y:33 P:65 SP:80  STACK: 00 00 c6 0b cb dc 00 00 00 00 00 00 00 00 00 00 00 00 00 00 00 00 00 00 00 00 00 00 00 00 00 00 00 00 00 00 00 00 00 00 00 00 00 00 00 00 00 00 00 00 00 00 00 00 00 00 00 00 00 00 00 00 00 00 00 00 00 00 00 00 00 00 00 00 00 00 00 00 00 00 00 00 00 00 00 00 00 00 00 00 00 00 00 00 00 00 00 00 00 00 00 00 00 00 00 00 00 00 00 00 00 00 00 00 00 00 00 00 00 00 00 00 00 00 00 00 00
ce69  a0 69    LDY #$69                        A:66 X:77 Y:33 P:65 SP:80  STACK: 00 00 c6 0b cb dc 00 00 00 00 00 00 00 00 00 00 00 00 00 00 00 00 00 00 00 00 00 00 00 00 00 00 00 00 00 00 00 00 00 00 00 00 00 00 00 00 00 00 00 00 00 00 00 00 00 00 00 00 00 00 00 00 00 00 00 00 00 00 00 00 00 00 00 00 00 00 00 00 00 00 00 00 00 00 00 00 00 00 00 00 00 00 00 00 00 00 00 00 00 00 00 00 00 00 00 00 00 00 00 00 00 00 00 00 00 00 00 00 00 00 00 00 00 00 00 00 00
ce6b  18       CLC                             A:66 X:77 Y:69 P:65 SP:80  STACK: 00 00 c6 0b cb dc 00 00 00 00 00 00 00 00 00 00 00 00 00 00 00 00 00 00 00 00 00 00 00 00 00 00 00 00 00 00 00 00 00 00 00 00 00 00 00 00 00 00 00 00 00 00 00 00 00 00 00 00 00 00 00 00 00 00 00 00 00 00 00 00 00 00 00 00 00 00 00 00 00 00 00 00 00 00 00 00 00 00 00 00 00 00 00 00 00 00 00 00 00 00 00 00 00 00 00 00 00 00 00 00 00 00 00 00 00 00 00 00 00 00 00 00 00 00 00 00 00
ce6c  24 01    BIT $01 = ff                    A:66 X:77 Y:69 P:64 SP:80  STACK: 00 00 c6 0b cb dc 00 00 00 00 00 00 00 00 00 00 00 00 00 00 00 00 00 00 00 00 00 00 00 00 00 00 00 00 00 00 00 00 00 00 00 00 00 00 00 00 00 00 00 00 00 00 00 00 00 00 00 00 00 00 00 00 00 00 00 00 00 00 00 00 00 00 00 00 00 00 00 00 00 00 00 00 00 00 00 00 00 00 00 00 00 00 00 00 00 00 00 00 00 00 00 00 00 00 00 00 00 00 00 00 00 00 00 00 00 00 00 00 00 00 00 00 00 00 00 00 00
ce6e  a9 83    LDA #$83                        A:66 X:77 Y:69 P:e4 SP:80  STACK: 00 00 c6 0b cb dc 00 00 00 00 00 00 00 00 00 00 00 00 00 00 00 00 00 00 00 00 00 00 00 00 00 00 00 00 00 00 00 00 00 00 00 00 00 00 00 00 00 00 00 00 00 00 00 00 00 00 00 00 00 00 00 00 00 00 00 00 00 00 00 00 00 00 00 00 00 00 00 00 00 00 00 00 00 00 00 00 00 00 00 00 00 00 00 00 00 00 00 00 00 00 00 00 00 00 00 00 00 00 00 00 00 00 00 00 00 00 00 00 00 00 00 00 00 00 00 00 00
ce70  20 66 ce JSR $ce66 = 60                  A:83 X:77 Y:69 P:e4 SP:80  STACK: 00 00 c6 0b cb dc 00 00 00 00 00 00 00 00 00 00 00 00 00 00 00 00 00 00 00 00 00 00 00 00 00 00 00 00 00 00 00 00 00 00 00 00 00 00 00 00 00 00 00 00 00 00 00 00 00 00 00 00 00 00 00 00 00 00 00 00 00 00 00 00 00 00 00 00 00 00 00 00 00 00 00 00 00 00 00 00 00 00 00 00 00 00 00 00 00 00 00 00 00 00 00 00 00 00 00 00 00 00 00 00 00 00 00 00 00 00 00 00 00 00 00 00 00 00 00 00 00
ce66  60       RTS                             A:83 X:77 Y:69 P:e4 SP:7e  STACK: 00 00 c6 0b cb dc 00 00 00 00 00 00 00 00 00 00 00 00 00 00 00 00 00 00 00 00 00 00 00 00 00 00 00 00 00 00 00 00 00 00 00 00 00 00 00 00 00 00 00 00 00 00 00 00 00 00 00 00 00 00 00 00 00 00 00 00 00 00 00 00 00 00 00 00 00 00 00 00 00 00 00 00 00 00 00 00 00 00 00 00 00 00 00 00 00 00 00 00 00 00 00 00 00 00 00 00 00 00 00 00 00 00 00 00 00 00 00 00 00 00 00 00 00 00 00 00 00 ce 72
ce73  f0 24    BEQ $ce99                       A:83 X:77 Y:69 P:e4 SP:80  STACK: 00 00 c6 0b cb dc 00 00 00 00 00 00 00 00 00 00 00 00 00 00 00 00 00 00 00 00 00 00 00 00 00 00 00 00 00 00 00 00 00 00 00 00 00 00 00 00 00 00 00 00 00 00 00 00 00 00 00 00 00 00 00 00 00 00 00 00 00 00 00 00 00 00 00 00 00 00 00 00 00 00 00 00 00 00 00 00 00 00 00 00 00 00 00 00 00 00 00 00 00 00 00 00 00 00 00 00 00 00 00 00 00 00 00 00 00 00 00 00 00 00 00 00 00 00 00 00 00
ce75  10 22    BPL $ce99                       A:83 X:77 Y:69 P:e4 SP:80  STACK: 00 00 c6 0b cb dc 00 00 00 00 00 00 00 00 00 00 00 00 00 00 00 00 00 00 00 00 00 00 00 00 00 00 00 00 00 00 00 00 00 00 00 00 00 00 00 00 00 00 00 00 00 00 00 00 00 00 00 00 00 00 00 00 00 00 00 00 00 00 00 00 00 00 00 00 00 00 00 00 00 00 00 00 00 00 00 00 00 00 00 00 00 00 00 00 00 00 00 00 00 00 00 00 00 00 00 00 00 00 00 00 00 00 00 00 00 00 00 00 00 00 00 00 00 00 00 00 00
ce77  b0 20    BCS $ce99                       A:83 X:77 Y:69 P:e4 SP:80  STACK: 00 00 c6 0b cb dc 00 00 00 00 00 00 00 00 00 00 00 00 00 00 00 00 00 00 00 00 00 00 00 00 00 00 00 00 00 00 00 00 00 00 00 00 00 00 00 00 00 00 00 00 00 00 00 00 00 00 00 00 00 00 00 00 00 00 00 00 00 00 00 00 00 00 00 00 00 00 00 00 00 00 00 00 00 00 00 00 00 00 00 00 00 00 00 00 00 00 00 00 00 00 00 00 00 00 00 00 00 00 00 00 00 00 00 00 00 00 00 00 00 00 00 00 00 00 00 00 00
ce79  50 1e    BVC $ce99                       A:83 X:77 Y:69 P:e4 SP:80  STACK: 00 00 c6 0b cb dc 00 00 00 00 00 00 00 00 00 00 00 00 00 00 00 00 00 00 00 00 00 00 00 00 00 00 00 00 00 00 00 00 00 00 00 00 00 00 00 00 00 00 00 00 00 00 00 00 00 00 00 00 00 00 00 00 00 00 00 00 00 00 00 00 00 00 00 00 00 00 00 00 00 00 00 00 00 00 00 00 00 00 00 00 00 00 00 00 00 00 00 00 00 00 00 00 00 00 00 00 00 00 00 00 00 00 00 00 00 00 00 00 00 00 00 00 00 00 00 00 00
ce7b  c9 83    CMP #$83                        A:83 X:77 Y:69 P:e4 SP:80  STACK: 00 00 c6 0b cb dc 00 00 00 00 00 00 00 00 00 00 00 00 00 00 00 00 00 00 00 00 00 00 00 00 00 00 00 00 00 00 00 00 00 00 00 00 00 00 00 00 00 00 00 00 00 00 00 00 00 00 00 00 00 00 00 00 00 00 00 00 00 00 00 00 00 00 00 00 00 00 00 00 00 00 00 00 00 00 00 00 00 00 00 00 00 00 00 00 00 00 00 00 00 00 00 00 00 00 00 00 00 00 00 00 00 00 00 00 00 00 00 00 00 00 00 00 00 00 00 00 00
ce7d  d0 1a    BNE $ce99                       A:83 X:77 Y:69 P:67 SP:80  STACK: 00 00 c6 0b cb dc 00 00 00 00 00 00 00 00 00 00 00 00 00 00 00 00 00 00 00 00 00 00 00 00 00 00 00 00 00 00 00 00 00 00 00 00 00 00 00 00 00 00 00 00 00 00 00 00 00 00 00 00 00 00 00 00 00 00 00 00 00 00 00 00 00 00 00 00 00 00 00 00 00 00 00 00 00 00 00 00 00 00 00 00 00 00 00 00 00 00 00 00 00 00 00 00 00 00 00 00 00 00 00 00 00 00 00 00 00 00 00 00 00 00 00 00 00 00 00 00 00
ce7f  c0 69    CPY #$69                        A:83 X:77 Y:69 P:67 SP:80  STACK: 00 00 c6 0b cb dc 00 00 00 00 00 00 00 00 00 00 00 00 00 00 00 00 00 00 00 00 00 00 00 00 00 00 00 00 00 00 00 00 00 00 00 00 00 00 00 00 00 00 00 00 00 00 00 00 00 00 00 00 00 00 00 00 00 00 00 00 00 00 00 00 00 00 00 00 00 00 00 00 00 00 00 00 00 00 00 00 00 00 00 00 00 00 00 00 00 00 00 00 00 00 00 00 00 00 00 00 00 00 00 00 00 00 00 00 00 00 00 00 00 00 00 00 00 00 00 00 00
ce81  d0 16    BNE $ce99                       A:83 X:77 Y:69 P:67 SP:80  STACK: 00 00 c6 0b cb dc 00 00 00 00 00 00 00 00 00 00 00 00 00 00 00 00 00 00 00 00 00 00 00 00 00 00 00 00 00 00 00 00 00 00 00 00 00 00 00 00 00 00 00 00 00 00 00 00 00 00 00 00 00 00 00 00 00 00 00 00 00 00 00 00 00 00 00 00 00 00 00 00 00 00 00 00 00 00 00 00 00 00 00 00 00 00 00 00 00 00 00 00 00 00 00 00 00 00 00 00 00 00 00 00 00 00 00 00 00 00 00 00 00 00 00 00 00 00 00 00 00
ce83  e0 77    CPX #$77                        A:83 X:77 Y:69 P:67 SP:80  STACK: 00 00 c6 0b cb dc 00 00 00 00 00 00 00 00 00 00 00 00 00 00 00 00 00 00 00 00 00 00 00 00 00 00 00 00 00 00 00 00 00 00 00 00 00 00 00 00 00 00 00 00 00 00 00 00 00 00 00 00 00 00 00 00 00 00 00 00 00 00 00 00 00 00 00 00 00 00 00 00 00 00 00 00 00 00 00 00 00 00 00 00 00 00 00 00 00 00 00 00 00 00 00 00 00 00 00 00 00 00 00 00 00 00 00 00 00 00 00 00 00 00 00 00 00 00 00 00 00
ce85  d0 12    BNE $ce99                       A:83 X:77 Y:69 P:67 SP:80  STACK: 00 00 c6 0b cb dc 00 00 00 00 00 00 00 00 00 00 00 00 00 00 00 00 00 00 00 00 00 00 00 00 00 00 00 00 00 00 00 00 00 00 00 00 00 00 00 00 00 00 00 00 00 00 00 00 00 00 00 00 00 00 00 00 00 00 00 00 00 00 00 00 00 00 00 00 00 00 00 00 00 00 00 00 00 00 00 00 00 00 00 00 00 00 00 00 00 00 00 00 00 00 00 00 00 00 00 00 00 00 00 00 00 00 00 00 00 00 00 00 00 00 00 00 00 00 00 00 00
ce87  38       SEC                             A:83 X:77 Y:69 P:67 SP:80  STACK: 00 00 c6 0b cb dc 00 00 00 00 00 00 00 00 00 00 00 00 00 00 00 00 00 00 00 00 00 00 00 00 00 00 00 00 00 00 00 00 00 00 00 00 00 00 00 00 00 00 00 00 00 00 00 00 00 00 00 00 00 00 00 00 00 00 00 00 00 00 00 00 00 00 00 00 00 00 00 00 00 00 00 00 00 00 00 00 00 00 00 00 00 00 00 00 00 00 00 00 00 00 00 00 00 00 00 00 00 00 00 00 00 00 00 00 00 00 00 00 00 00 00 00 00 00 00 00 00
ce88  b8       CLV                             A:83 X:77 Y:69 P:67 SP:80  STACK: 00 00 c6 0b cb dc 00 00 00 00 00 00 00 00 00 00 00 00 00 00 00 00 00 00 00 00 00 00 00 00 00 00 00 00 00 00 00 00 00 00 00 00 00 00 00 00 00 00 00 00 00 00 00 00 00 00 00 00 00 00 00 00 00 00 00 00 00 00 00 00 00 00 00 00 00 00 00 00 00 00 00 00 00 00 00 00 00 00 00 00 00 00 00 00 00 00 00 00 00 00 00 00 00 00 00 00 00 00 00 00 00 00 00 00 00 00 00 00 00 00 00 00 00 00 00 00 00
ce89  a9 00    LDA #$00                        A:83 X:77 Y:69 P:27 SP:80  STACK: 00 00 c6 0b cb dc 00 00 00 00 00 00 00 00 00 00 00 00 00 00 00 00 00 00 00 00 00 00 00 00 00 00 00 00 00 00 00 00 00 00 00 00 00 00 00 00 00 00 00 00 00 00 00 00 00 00 00 00 00 00 00 00 00 00 00 00 00 00 00 00 00 00 00 00 00 00 00 00 00 00 00 00 00 00 00 00 00 00 00 00 00 00 00 00 00 00 00 00 00 00 00 00 00 00 00 00 00 00 00 00 00 00 00 00 00 00 00 00 00 00 00 00 00 00 00 00 00
ce8b  20 66 ce JSR $ce66 = 60                  A:00 X:77 Y:69 P:27 SP:80  STACK: 00 00 c6 0b cb dc 00 00 00 00 00 00 00 00 00 00 00 00 00 00 00 00 00 00 00 00 00 00 00 00 00 00 00 00 00 00 00 00 00 00 00 00 00 00 00 00 00 00 00 00 00 00 00 00 00 00 00 00 00 00 00 00 00 00 00 00 00 00 00 00 00 00 00 00 00 00 00 00 00 00 00 00 00 00 00 00 00 00 00 00 00 00 00 00 00 00 00 00 00 00 00 00 00 00 00 00 00 00 00 00 00 00 00 00 00 00 00 00 00 00 00 00 00 00 00 00 00
ce66  60       RTS                             A:00 X:77 Y:69 P:27 SP:7e  STACK: 00 00 c6 0b cb dc 00 00 00 00 00 00 00 00 00 00 00 00 00 00 00 00 00 00 00 00 00 00 00 00 00 00 00 00 00 00 00 00 00 00 00 00 00 00 00 00 00 00 00 00 00 00 00 00 00 00 00 00 00 00 00 00 00 00 00 00 00 00 00 00 00 00 00 00 00 00 00 00 00 00 00 00 00 00 00 00 00 00 00 00 00 00 00 00 00 00 00 00 00 00 00 00 00 00 00 00 00 00 00 00 00 00 00 00 00 00 00 00 00 00 00 00 00 00 00 00 00 ce 8d
ce8e  d0 09    BNE $ce99                       A:00 X:77 Y:69 P:27 SP:80  STACK: 00 00 c6 0b cb dc 00 00 00 00 00 00 00 00 00 00 00 00 00 00 00 00 00 00 00 00 00 00 00 00 00 00 00 00 00 00 00 00 00 00 00 00 00 00 00 00 00 00 00 00 00 00 00 00 00 00 00 00 00 00 00 00 00 00 00 00 00 00 00 00 00 00 00 00 00 00 00 00 00 00 00 00 00 00 00 00 00 00 00 00 00 00 00 00 00 00 00 00 00 00 00 00 00 00 00 00 00 00 00 00 00 00 00 00 00 00 00 00 00 00 00 00 00 00 00 00 00
ce90  30 07    BMI $ce99                       A:00 X:77 Y:69 P:27 SP:80  STACK: 00 00 c6 0b cb dc 00 00 00 00 00 00 00 00 00 00 00 00 00 00 00 00 00 00 00 00 00 00 00 00 00 00 00 00 00 00 00 00 00 00 00 00 00 00 00 00 00 00 00 00 00 00 00 00 00 00 00 00 00 00 00 00 00 00 00 00 00 00 00 00 00 00 00 00 00 00 00 00 00 00 00 00 00 00 00 00 00 00 00 00 00 00 00 00 00 00 00 00 00 00 00 00 00 00 00 00 00 00 00 00 00 00 00 00 00 00 00 00 00 00 00 00 00 00 00 00 00
ce92  90 05    BCC $ce99                       A:00 X:77 Y:69 P:27 SP:80  STACK: 00 00 c6 0b cb dc 00 00 00 00 00 00 00 00 00 00 00 00 00 00 00 00 00 00 00 00 00 00 00 00 00 00 00 00 00 00 00 00 00 00 00 00 00 00 00 00 00 00 00 00 00 00 00 00 00 00 00 00 00 00 00 00 00 00 00 00 00 00 00 00 00 00 00 00 00 00 00 00 00 00 00 00 00 00 00 00 00 00 00 00 00 00 00 00 00 00 00 00 00 00 00 00 00 00 00 00 00 00 00 00 00 00 00 00 00 00 00 00 00 00 00 00 00 00 00 00 00
ce94  70 03    BVS $ce99                       A:00 X:77 Y:69 P:27 SP:80  STACK: 00 00 c6 0b cb dc 00 00 00 00 00 00 00 00 00 00 00 00 00 00 00 00 00 00 00 00 00 00 00 00 00 00 00 00 00 00 00 00 00 00 00 00 00 00 00 00 00 00 00 00 00 00 00 00 00 00 00 00 00 00 00 00 00 00 00 00 00 00 00 00 00 00 00 00 00 00 00 00 00 00 00 00 00 00 00 00 00 00 00 00 00 00 00 00 00 00 00 00 00 00 00 00 00 00 00 00 00 00 00 00 00 00 00 00 00 00 00 00 00 00 00 00 00 00 00 00 00
ce96  4c 9d ce JMP $ce9d = ea                  A:00 X:77 Y:69 P:27 SP:80  STACK: 00 00 c6 0b cb dc 00 00 00 00 00 00 00 00 00 00 00 00 00 00 00 00 00 00 00 00 00 00 00 00 00 00 00 00 00 00 00 00 00 00 00 00 00 00 00 00 00 00 00 00 00 00 00 00 00 00 00 00 00 00 00 00 00 00 00 00 00 00 00 00 00 00 00 00 00 00 00 00 00 00 00 00 00 00 00 00 00 00 00 00 00 00 00 00 00 00 00 00 00 00 00 00 00 00 00 00 00 00 00 00 00 00 00 00 00 00 00 00 00 00 00 00 00 00 00 00 00
ce9d  ea       NOP                             A:00 X:77 Y:69 P:27 SP:80  STACK: 00 00 c6 0b cb dc 00 00 00 00 00 00 00 00 00 00 00 00 00 00 00 00 00 00 00 00 00 00 00 00 00 00 00 00 00 00 00 00 00 00 00 00 00 00 00 00 00 00 00 00 00 00 00 00 00 00 00 00 00 00 00 00 00 00 00 00 00 00 00 00 00 00 00 00 00 00 00 00 00 00 00 00 00 00 00 00 00 00 00 00 00 00 00 00 00 00 00 00 00 00 00 00 00 00 00 00 00 00 00 00 00 00 00 00 00 00 00 00 00 00 00 00 00 00 00 00 00
ce9e  a9 ce    LDA #$ce                        A:00 X:77 Y:69 P:27 SP:80  STACK: 00 00 c6 0b cb dc 00 00 00 00 00 00 00 00 00 00 00 00 00 00 00 00 00 00 00 00 00 00 00 00 00 00 00 00 00 00 00 00 00 00 00 00 00 00 00 00 00 00 00 00 00 00 00 00 00 00 00 00 00 00 00 00 00 00 00 00 00 00 00 00 00 00 00 00 00 00 00 00 00 00 00 00 00 00 00 00 00 00 00 00 00 00 00 00 00 00 00 00 00 00 00 00 00 00 00 00 00 00 00 00 00 00 00 00 00 00 00 00 00 00 00 00 00 00 00 00 00
cea0  48       PHA                             A:ce X:77 Y:69 P:a5 SP:80  STACK: 00 00 c6 0b cb dc 00 00 00 00 00 00 00 00 00 00 00 00 00 00 00 00 00 00 00 00 00 00 00 00 00 00 00 00 00 00 00 00 00 00 00 00 00 00 00 00 00 00 00 00 00 00 00 00 00 00 00 00 00 00 00 00 00 00 00 00 00 00 00 00 00 00 00 00 00 00 00 00 00 00 00 00 00 00 00 00 00 00 00 00 00 00 00 00 00 00 00 00 00 00 00 00 00 00 00 00 00 00 00 00 00 00 00 00 00 00 00 00 00 00 00 00 00 00 00 00 00
cea1  a9 ae    LDA #$ae                        A:ce X:77 Y:69 P:a5 SP:7f  STACK: 00 00 c6 0b cb dc 00 00 00 00 00 00 00 00 00 00 00 00 00 00 00 00 00 00 00 00 00 00 00 00 00 00 00 00 00 00 00 00 00 00 00 00 00 00 00 00 00 00 00 00 00 00 00 00 00 00 00 00 00 00 00 00 00 00 00 00 00 00 00 00 00 00 00 00 00 00 00 00 00 00 00 00 00 00 00 00 00 00 00 00 00 00 00 00 00 00 00 00 00 00 00 00 00 00 00 00 00 00 00 00 00 00 00 00 00 00 00 00 00 00 00 00 00 00 00 00 00 ce
cea3  48       PHA                             A:ae X:77 Y:69 P:a5 SP:7f  STACK: 00 00 c6 0b cb dc 00 00 00 00 00 00 00 00 00 00 00 00 00 00 00 00 00 00 00 00 00 00 00 00 00 00 00 00 00 00 00 00 00 00 00 00 00 00 00 00 00 00 00 00 00 00 00 00 00 00 00 00 00 00 00 00 00 00 00 00 00 00 00 00 00 00 00 00 00 00 00 00 00 00 00 00 00 00 00 00 00 00 00 00 00 00 00 00 00 00 00 00 00 00 00 00 00 00 00 00 00 00 00 00 00 00 00 00 00 00 00 00 00 00 00 00 00 00 00 00 00 ce
cea4  a9 65    LDA #$65                        A:ae X:77 Y:69 P:a5 SP:7e  STACK: 00 00 c6 0b cb dc 00 00 00 00 00 00 00 00 00 00 00 00 00 00 00 00 00 00 00 00 00 00 00 00 00 00 00 00 00 00 00 00 00 00 00 00 00 00 00 00 00 00 00 00 00 00 00 00 00 00 00 00 00 00 00 00 00 00 00 00 00 00 00 00 00 00 00 00 00 00 00 00 00 00 00 00 00 00 00 00 00 00 00 00 00 00 00 00 00 00 00 00 00 00 00 00 00 00 00 00 00 00 00 00 00 00 00 00 00 00 00 00 00 00 00 00 00 00 00 00 00 ce ae
cea6  48       PHA                             A:65 X:77 Y:69 P:25 SP:7e  STACK: 00 00 c6 0b cb dc 00 00 00 00 00 00 00 00 00 00 00 00 00 00 00 00 00 00 00 00 00 00 00 00 00 00 00 00 00 00 00 00 00 00 00 00 00 00 00 00 00 00 00 00 00 00 00 00 00 00 00 00 00 00 00 00 00 00 00 00 00 00 00 00 00 00 00 00 00 00 00 00 00 00 00 00 00 00 00 00 00 00 00 00 00 00 00 00 00 00 00 00 00 00 00 00 00 00 00 00 00 00 00 00 00 00 00 00 00 00 00 00 00 00 00 00 00 00 00 00 00 ce ae
cea7  a9 55    LDA #$55                        A:65 X:77 Y:69 P:25 SP:7d  STACK: 00 00 c6 0b cb dc 00 00 00 00 00 00 00 00 00 00 00 00 00 00 00 00 00 00 00 00 00 00 00 00 00 00 00 00 00 00 00 00 00 00 00 00 00 00 00 00 00 00 00 00 00 00 00 00 00 00 00 00 00 00 00 00 00 00 00 00 00 00 00 00 00 00 00 00 00 00 00 00 00 00 00 00 00 00 00 00 00 00 00 00 00 00 00 00 00 00 00 00 00 00 00 00 00 00 00 00 00 00 00 00 00 00 00 00 00 00 00 00 00 00 00 00 00 00 00 00 00 ce ae 65
cea9  a0 88    LDY #$88                        A:55 X:77 Y:69 P:25 SP:7d  STACK: 00 00 c6 0b cb dc 00 00 00 00 00 00 00 00 00 00 00 00 00 00 00 00 00 00 00 00 00 00 00 00 00 00 00 00 00 00 00 00 00 00 00 00 00 00 00 00 00 00 00 00 00 00 00 00 00 00 00 00 00 00 00 00 00 00 00 00 00 00 00 00 00 00 00 00 00 00 00 00 00 00 00 00 00 00 00 00 00 00 00 00 00 00 00 00 00 00 00 00 00 00 00 00 00 00 00 00 00 00 00 00 00 00 00 00 00 00 00 00 00 00 00 00 00 00 00 00 00 ce ae 65
ceab  a2 99    LDX #$99                        A:55 X:77 Y:88 P:a5 SP:7d  STACK: 00 00 c6 0b cb dc 00 00 00 00 00 00 00 00 00 00 00 00 00 00 00 00 00 00 00 00 00 00 00 00 00 00 00 00 00 00 00 00 00 00 00 00 00 00 00 00 00 00 00 00 00 00 00 00 00 00 00 00 00 00 00 00 00 00 00 00 00 00 00 00 00 00 00 00 00 00 00 00 00 00 00 00 00 00 00 00 00 00 00 00 00 00 00 00 00 00 00 00 00 00 00 00 00 00 00 00 00 00 00 00 00 00 00 00 00 00 00 00 00 00 00 00 00 00 00 00 00 ce ae 65
cead  40       RTI                             A:55 X:99 Y:88 P:a5 SP:7d  STACK: 00 00 c6 0b cb dc 00 00 00 00 00 00 00 00 00 00 00 00 00 00 00 00 00 00 00 00 00 00 00 00 00 00 00 00 00 00 00 00 00 00 00 00 00 00 00 00 00 00 00 00 00 00 00 00 00 00 00 00 00 00 00 00 00 00 00 00 00 00 00 00 00 00 00 00 00 00 00 00 00 00 00 00 00 00 00 00 00 00 00 00 00 00 00 00 00 00 00 00 00 00 00 00 00 00 00 00 00 00 00 00 00 00 00 00 00 00 00 00 00 00 00 00 00 00 00 00 00 ce ae 65
ceae  30 35    BMI $cee5                       A:55 X:99 Y:88 P:65 SP:80  STACK: 00 00 c6 0b cb dc 00 00 00 00 00 00 00 00 00 00 00 00 00 00 00 00 00 00 00 00 00 00 00 00 00 00 00 00 00 00 00 00 00 00 00 00 00 00 00 00 00 00 00 00 00 00 00 00 00 00 00 00 00 00 00 00 00 00 00 00 00 00 00 00 00 00 00 00 00 00 00 00 00 00 00 00 00 00 00 00 00 00 00 00 00 00 00 00 00 00 00 00 00 00 00 00 00 00 00 00 00 00 00 00 00 00 00 00 00 00 00 00 00 00 00 00 00 00 00 00 00
ceb0  50 33    BVC $cee5                       A:55 X:99 Y:88 P:65 SP:80  STACK: 00 00 c6 0b cb dc 00 00 00 00 00 00 00 00 00 00 00 00 00 00 00 00 00 00 00 00 00 00 00 00 00 00 00 00 00 00 00 00 00 00 00 00 00 00 00 00 00 00 00 00 00 00 00 00 00 00 00 00 00 00 00 00 00 00 00 00 00 00 00 00 00 00 00 00 00 00 00 00 00 00 00 00 00 00 00 00 00 00 00 00 00 00 00 00 00 00 00 00 00 00 00 00 00 00 00 00 00 00 00 00 00 00 00 00 00 00 00 00 00 00 00 00 00 00 00 00 00
ceb2  f0 31    BEQ $cee5                       A:55 X:99 Y:88 P:65 SP:80  STACK: 00 00 c6 0b cb dc 00 00 00 00 00 00 00 00 00 00 00 00 00 00 00 00 00 00 00 00 00 00 00 00 00 00 00 00 00 00 00 00 00 00 00 00 00 00 00 00 00 00 00 00 00 00 00 00 00 00 00 00 00 00 00 00 00 00 00 00 00 00 00 00 00 00 00 00 00 00 00 00 00 00 00 00 00 00 00 00 00 00 00 00 00 00 00 00 00 00 00 00 00 00 00 00 00 00 00 00 00 00 00 00 00 00 00 00 00 00 00 00 00 00 00 00 00 00 00 00 00
ceb4  90 2f    BCC $cee5                       A:55 X:99 Y:88 P:65 SP:80  STACK: 00 00 c6 0b cb dc 00 00 00 00 00 00 00 00 00 00 00 00 00 00 00 00 00 00 00 00 00 00 00 00 00 00 00 00 00 00 00 00 00 00 00 00 00 00 00 00 00 00 00 00 00 00 00 00 00 00 00 00 00 00 00 00 00 00 00 00 00 00 00 00 00 00 00 00 00 00 00 00 00 00 00 00 00 00 00 00 00 00 00 00 00 00 00 00 00 00 00 00 00 00 00 00 00 00 00 00 00 00 00 00 00 00 00 00 00 00 00 00 00 00 00 00 00 00 00 00 00
ceb6  c9 55    CMP #$55                        A:55 X:99 Y:88 P:65 SP:80  STACK: 00 00 c6 0b cb dc 00 00 00 00 00 00 00 00 00 00 00 00 00 00 00 00 00 00 00 00 00 00 00 00 00 00 00 00 00 00 00 00 00 00 00 00 00 00 00 00 00 00 00 00 00 00 00 00 00 00 00 00 00 00 00 00 00 00 00 00 00 00 00 00 00 00 00 00 00 00 00 00 00 00 00 00 00 00 00 00 00 00 00 00 00 00 00 00 00 00 00 00 00 00 00 00 00 00 00 00 00 00 00 00 00 00 00 00 00 00 00 00 00 00 00 00 00 00 00 00 00
ceb8  d0 2b    BNE $cee5                       A:55 X:99 Y:88 P:67 SP:80  STACK: 00 00 c6 0b cb dc 00 00 00 00 00 00 00 00 00 00 00 00 00 00 00 00 00 00 00 00 00 00 00 00 00 00 00 00 00 00 00 00 00 00 00 00 00 00 00 00 00 00 00 00 00 00 00 00 00 00 00 00 00 00 00 00 00 00 00 00 00 00 00 00 00 00 00 00 00 00 00 00 00 00 00 00 00 00 00 00 00 00 00 00 00 00 00 00 00 00 00 00 00 00 00 00 00 00 00 00 00 00 00 00 00 00 00 00 00 00 00 00 00 00 00 00 00 00 00 00 00
ceba  c0 88    CPY #$88                        A:55 X:99 Y:88 P:67 SP:80  STACK: 00 00 c6 0b cb dc 00 00 00 00 00 00 00 00 00 00 00 00 00 00 00 00 00 00 00 00 00 00 00 00 00 00 00 00 00 00 00 00 00 00 00 00 00 00 00 00 00 00 00 00 00 00 00 00 00 00 00 00 00 00 00 00 00 00 00 00 00 00 00 00 00 00 00 00 00 00 00 00 00 00 00 00 00 00 00 00 00 00 00 00 00 00 00 00 00 00 00 00 00 00 00 00 00 00 00 00 00 00 00 00 00 00 00 00 00 00 00 00 00 00 00 00 00 00 00 00 00
cebc  d0 27    BNE $cee5                       A:55 X:99 Y:88 P:67 SP:80  STACK: 00 00 c6 0b cb dc 00 00 00 00 00 00 00 00 00 00 00 00 00 00 00 00 00 00 00 00 00 00 00 00 00 00 00 00 00 00 00 00 00 00 00 00 00 00 00 00 00 00 00 00 00 00 00 00 00 00 00 00 00 00 00 00 00 00 00 00 00 00 00 00 00 00 00 00 00 00 00 00 00 00 00 00 00 00 00 00 00 00 00 00 00 00 00 00 00 00 00 00 00 00 00 00 00 00 00 00 00 00 00 00 00 00 00 00 00 00 00 00 00 00 00 00 00 00 00 00 00
cebe  e0 99    CPX #$99                        A:55 X:99 Y:88 P:67 SP:80  STACK: 00 00 c6 0b cb dc 00 00 00 00 00 00 00 00 00 00 00 00 00 00 00 00 00 00 00 00 00 00 00 00 00 00 00 00 00 00 00 00 00 00 00 00 00 00 00 00 00 00 00 00 00 00 00 00 00 00 00 00 00 00 00 00 00 00 00 00 00 00 00 00 00 00 00 00 00 00 00 00 00 00 00 00 00 00 00 00 00 00 00 00 00 00 00 00 00 00 00 00 00 00 00 00 00 00 00 00 00 00 00 00 00 00 00 00 00 00 00 00 00 00 00 00 00 00 00 00 00
cec0  d0 23    BNE $cee5                       A:55 X:99 Y:88 P:67 SP:80  STACK: 00 00 c6 0b cb dc 00 00 00 00 00 00 00 00 00 00 00 00 00 00 00 00 00 00 00 00 00 00 00 00 00 00 00 00 00 00 00 00 00 00 00 00 00 00 00 00 00 00 00 00 00 00 00 00 00 00 00 00 00 00 00 00 00 00 00 00 00 00 00 00 00 00 00 00 00 00 00 00 00 00 00 00 00 00 00 00 00 00 00 00 00 00 00 00 00 00 00 00 00 00 00 00 00 00 00 00 00 00 00 00 00 00 00 00 00 00 00 00 00 00 00 00 00 00 00 00 00
cec2  a9 ce    LDA #$ce                        A:55 X:99 Y:88 P:67 SP:80  STACK: 00 00 c6 0b cb dc 00 00 00 00 00 00 00 00 00 00 00 00 00 00 00 00 00 00 00 00 00 00 00 00 00 00 00 00 00 00 00 00 00 00 00 00 00 00 00 00 00 00 00 00 00 00 00 00 00 00 00 00 00 00 00 00 00 00 00 00 00 00 00 00 00 00 00 00 00 00 00 00 00 00 00 00 00 00 00 00 00 00 00 00 00 00 00 00 00 00 00 00 00 00 00 00 00 00 00 00 00 00 00 00 00 00 00 00 00 00 00 00 00 00 00 00 00 00 00 00 00
cec4  48       PHA                             A:ce X:99 Y:88 P:e5 SP:80  STACK: 00 00 c6 0b cb dc 00 00 00 00 00 00 00 00 00 00 00 00 00 00 00 00 00 00 00 00 00 00 00 00 00 00 00 00 00 00 00 00 00 00 00 00 00 00 00 00 00 00 00 00 00 00 00 00 00 00 00 00 00 00 00 00 00 00 00 00 00 00 00 00 00 00 00 00 00 00 00 00 00 00 00 00 00 00 00 00 00 00 00 00 00 00 00 00 00 00 00 00 00 00 00 00 00 00 00 00 00 00 00 00 00 00 00 00 00 00 00 00 00 00 00 00 00 00 00 00 00
cec5  a9 ce    LDA #$ce                        A:ce X:99 Y:88 P:e5 SP:7f  STACK: 00 00 c6 0b cb dc 00 00 00 00 00 00 00 00 00 00 00 00 00 00 00 00 00 00 00 00 00 00 00 00 00 00 00 00 00 00 00 00 00 00 00 00 00 00 00 00 00 00 00 00 00 00 00 00 00 00 00 00 00 00 00 00 00 00 00 00 00 00 00 00 00 00 00 00 00 00 00 00 00 00 00 00 00 00 00 00 00 00 00 00 00 00 00 00 00 00 00 00 00 00 00 00 00 00 00 00 00 00 00 00 00 00 00 00 00 00 00 00 00 00 00 00 00 00 00 00 00 ce
cec7  48       PHA                             A:ce X:99 Y:88 P:e5 SP:7f  STACK: 00 00 c6 0b cb dc 00 00 00 00 00 00 00 00 00 00 00 00 00 00 00 00 00 00 00 00 00 00 00 00 00 00 00 00 00 00 00 00 00 00 00 00 00 00 00 00 00 00 00 00 00 00 00 00 00 00 00 00 00 00 00 00 00 00 00 00 00 00 00 00 00 00 00 00 00 00 00 00 00 00 00 00 00 00 00 00 00 00 00 00 00 00 00 00 00 00 00 00 00 00 00 00 00 00 00 00 00 00 00 00 00 00 00 00 00 00 00 00 00 00 00 00 00 00 00 00 00 ce
cec8  a9 87    LDA #$87                        A:ce X:99 Y:88 P:e5 SP:7e  STACK: 00 00 c6 0b cb dc 00 00 00 00 00 00 00 00 00 00 00 00 00 00 00 00 00 00 00 00 00 00 00 00 00 00 00 00 00 00 00 00 00 00 00 00 00 00 00 00 00 00 00 00 00 00 00 00 00 00 00 00 00 00 00 00 00 00 00 00 00 00 00 00 00 00 00 00 00 00 00 00 00 00 00 00 00 00 00 00 00 00 00 00 00 00 00 00 00 00 00 00 00 00 00 00 00 00 00 00 00 00 00 00 00 00 00 00 00 00 00 00 00 00 00 00 00 00 00 00 00 ce ce
ceca  48       PHA                             A:87 X:99 Y:88 P:e5 SP:7e  STACK: 00 00 c6 0b cb dc 00 00 00 00 00 00 00 00 00 00 00 00 00 00 00 00 00 00 00 00 00 00 00 00 00 00 00 00 00 00 00 00 00 00 00 00 00 00 00 00 00 00 00 00 00 00 00 00 00 00 00 00 00 00 00 00 00 00 00 00 00 00 00 00 00 00 00 00 00 00 00 00 00 00 00 00 00 00 00 00 00 00 00 00 00 00 00 00 00 00 00 00 00 00 00 00 00 00 00 00 00 00 00 00 00 00 00 00 00 00 00 00 00 00 00 00 00 00 00 00 00 ce ce
cecb  a9 55    LDA #$55                        A:87 X:99 Y:88 P:e5 SP:7d  STACK: 00 00 c6 0b cb dc 00 00 00 00 00 00 00 00 00 00 00 00 00 00 00 00 00 00 00 00 00 00 00 00 00 00 00 00 00 00 00 00 00 00 00 00 00 00 00 00 00 00 00 00 00 00 00 00 00 00 00 00 00 00 00 00 00 00 00 00 00 00 00 00 00 00 00 00 00 00 00 00 00 00 00 00 00 00 00 00 00 00 00 00 00 00 00 00 00 00 00 00 00 00 00 00 00 00 00 00 00 00 00 00 00 00 00 00 00 00 00 00 00 00 00 00 00 00 00 00 00 ce ce 87
cecd  40       RTI                             A:55 X:99 Y:88 P:65 SP:7d  STACK: 00 00 c6 0b cb dc 00 00 00 00 00 00 00 00 00 00 00 00 00 00 00 00 00 00 00 00 00 00 00 00 00 00 00 00 00 00 00 00 00 00 00 00 00 00 00 00 00 00 00 00 00 00 00 00 00 00 00 00 00 00 00 00 00 00 00 00 00 00 00 00 00 00 00 00 00 00 00 00 00 00 00 00 00 00 00 00 00 00 00 00 00 00 00 00 00 00 00 00 00 00 00 00 00 00 00 00 00 00 00 00 00 00 00 00 00 00 00 00 00 00 00 00 00 00 00 00 00 ce ce 87
cece  10 15    BPL $cee5                       A:55 X:99 Y:88 P:a7 SP:80  STACK: 00 00 c6 0b cb dc 00 00 00 00 00 00 00 00 00 00 00 00 00 00 00 00 00 00 00 00 00 00 00 00 00 00 00 00 00 00 00 00 00 00 00 00 00 00 00 00 00 00 00 00 00 00 00 00 00 00 00 00 00 00 00 00 00 00 00 00 00 00 00 00 00 00 00 00 00 00 00 00 00 00 00 00 00 00 00 00 00 00 00 00 00 00 00 00 00 00 00 00 00 00 00 00 00 00 00 00 00 00 00 00 00 00 00 00 00 00 00 00 00 00 00 00 00 00 00 00 00
ced0  70 13    BVS $cee5                       A:55 X:99 Y:88 P:a7 SP:80  STACK: 00 00 c6 0b cb dc 00 00 00 00 00 00 00 00 00 00 00 00 00 00 00 00 00 00 00 00 00 00 00 00 00 00 00 00 00 00 00 00 00 00 00 00 00 00 00 00 00 00 00 00 00 00 00 00 00 00 00 00 00 00 00 00 00 00 00 00 00 00 00 00 00 00 00 00 00 00 00 00 00 00 00 00 00 00 00 00 00 00 00 00 00 00 00 00 00 00 00 00 00 00 00 00 00 00 00 00 00 00 00 00 00 00 00 00 00 00 00 00 00 00 00 00 00 00 00 00 00
ced2  d0 11    BNE $cee5                       A:55 X:99 Y:88 P:a7 SP:80  STACK: 00 00 c6 0b cb dc 00 00 00 00 00 00 00 00 00 00 00 00 00 00 00 00 00 00 00 00 00 00 00 00 00 00 00 00 00 00 00 00 00 00 00 00 00 00 00 00 00 00 00 00 00 00 00 00 00 00 00 00 00 00 00 00 00 00 00 00 00 00 00 00 00 00 00 00 00 00 00 00 00 00 00 00 00 00 00 00 00 00 00 00 00 00 00 00 00 00 00 00 00 00 00 00 00 00 00 00 00 00 00 00 00 00 00 00 00 00 00 00 00 00 00 00 00 00 00 00 00
ced4  90 0f    BCC $cee5                       A:55 X:99 Y:88 P:a7 SP:80  STACK: 00 00 c6 0b cb dc 00 00 00 00 00 00 00 00 00 00 00 00 00 00 00 00 00 00 00 00 00 00 00 00 00 00 00 00 00 00 00 00 00 00 00 00 00 00 00 00 00 00 00 00 00 00 00 00 00 00 00 00 00 00 00 00 00 00 00 00 00 00 00 00 00 00 00 00 00 00 00 00 00 00 00 00 00 00 00 00 00 00 00 00 00 00 00 00 00 00 00 00 00 00 00 00 00 00 00 00 00 00 00 00 00 00 00 00 00 00 00 00 00 00 00 00 00 00 00 00 00
ced6  c9 55    CMP #$55                        A:55 X:99 Y:88 P:a7 SP:80  STACK: 00 00 c6 0b cb dc 00 00 00 00 00 00 00 00 00 00 00 00 00 00 00 00 00 00 00 00 00 00 00 00 00 00 00 00 00 00 00 00 00 00 00 00 00 00 00 00 00 00 00 00 00 00 00 00 00 00 00 00 00 00 00 00 00 00 00 00 00 00 00 00 00 00 00 00 00 00 00 00 00 00 00 00 00 00 00 00 00 00 00 00 00 00 00 00 00 00 00 00 00 00 00 00 00 00 00 00 00 00 00 00 00 00 00 00 00 00 00 00 00 00 00 00 00 00 00 00 00
ced8  d0 0b    BNE $cee5                       A:55 X:99 Y:88 P:27 SP:80  STACK: 00 00 c6 0b cb dc 00 00 00 00 00 00 00 00 00 00 00 00 00 00 00 00 00 00 00 00 00 00 00 00 00 00 00 00 00 00 00 00 00 00 00 00 00 00 00 00 00 00 00 00 00 00 00 00 00 00 00 00 00 00 00 00 00 00 00 00 00 00 00 00 00 00 00 00 00 00 00 00 00 00 00 00 00 00 00 00 00 00 00 00 00 00 00 00 00 00 00 00 00 00 00 00 00 00 00 00 00 00 00 00 00 00 00 00 00 00 00 00 00 00 00 00 00 00 00 00 00
ceda  c0 88    CPY #$88                        A:55 X:99 Y:88 P:27 SP:80  STACK: 00 00 c6 0b cb dc 00 00 00 00 00 00 00 00 00 00 00 00 00 00 00 00 00 00 00 00 00 00 00 00 00 00 00 00 00 00 00 00 00 00 00 00 00 00 00 00 00 00 00 00 00 00 00 00 00 00 00 00 00 00 00 00 00 00 00 00 00 00 00 00 00 00 00 00 00 00 00 00 00 00 00 00 00 00 00 00 00 00 00 00 00 00 00 00 00 00 00 00 00 00 00 00 00 00 00 00 00 00 00 00 00 00 00 00 00 00 00 00 00 00 00 00 00 00 00 00 00
cedc  d0 07    BNE $cee5                       A:55 X:99 Y:88 P:27 SP:80  STACK: 00 00 c6 0b cb dc 00 00 00 00 00 00 00 00 00 00 00 00 00 00 00 00 00 00 00 00 00 00 00 00 00 00 00 00 00 00 00 00 00 00 00 00 00 00 00 00 00 00 00 00 00 00 00 00 00 00 00 00 00 00 00 00 00 00 00 00 00 00 00 00 00 00 00 00 00 00 00 00 00 00 00 00 00 00 00 00 00 00 00 00 00 00 00 00 00 00 00 00 00 00 00 00 00 00 00 00 00 00 00 00 00 00 00 00 00 00 00 00 00 00 00 00 00 00 00 00 00
cede  e0 99    CPX #$99                        A:55 X:99 Y:88 P:27 SP:80  STACK: 00 00 c6 0b cb dc 00 00 00 00 00 00 00 00 00 00 00 00 00 00 00 00 00 00 00 00 00 00 00 00 00 00 00 00 00 00 00 00 00 00 00 00 00 00 00 00 00 00 00 00 00 00 00 00 00 00 00 00 00 00 00 00 00 00 00 00 00 00 00 00 00 00 00 00 00 00 00 00 00 00 00 00 00 00 00 00 00 00 00 00 00 00 00 00 00 00 00 00 00 00 00 00 00 00 00 00 00 00 00 00 00 00 00 00 00 00 00 00 00 00 00 00 00 00 00 00 00
cee0  d0 03    BNE $cee5                       A:55 X:99 Y:88 P:27 SP:80  STACK: 00 00 c6 0b cb dc 00 00 00 00 00 00 00 00 00 00 00 00 00 00 00 00 00 00 00 00 00 00 00 00 00 00 00 00 00 00 00 00 00 00 00 00 00 00 00 00 00 00 00 00 00 00 00 00 00 00 00 00 00 00 00 00 00 00 00 00 00 00 00 00 00 00 00 00 00 00 00 00 00 00 00 00 00 00 00 00 00 00 00 00 00 00 00 00 00 00 00 00 00 00 00 00 00 00 00 00 00 00 00 00 00 00 00 00 00 00 00 00 00 00 00 00 00 00 00 00 00
cee2  4c e9 ce JMP $cee9 = ae                  A:55 X:99 Y:88 P:27 SP:80  STACK: 00 00 c6 0b cb dc 00 00 00 00 00 00 00 00 00 00 00 00 00 00 00 00 00 00 00 00 00 00 00 00 00 00 00 00 00 00 00 00 00 00 00 00 00 00 00 00 00 00 00 00 00 00 00 00 00 00 00 00 00 00 00 00 00 00 00 00 00 00 00 00 00 00 00 00 00 00 00 00 00 00 00 00 00 00 00 00 00 00 00 00 00 00 00 00 00 00 00 00 00 00 00 00 00 00 00 00 00 00 00 00 00 00 00 00 00 00 00 00 00 00 00 00 00 00 00 00 00
cee9  ae ff 07 LDX $07ff = fb                  A:55 X:99 Y:88 P:27 SP:80  STACK: 00 00 c6 0b cb dc 00 00 00 00 00 00 00 00 00 00 00 00 00 00 00 00 00 00 00 00 00 00 00 00 00 00 00 00 00 00 00 00 00 00 00 00 00 00 00 00 00 00 00 00 00 00 00 00 00 00 00 00 00 00 00 00 00 00 00 00 00 00 00 00 00 00 00 00 00 00 00 00 00 00 00 00 00 00 00 00 00 00 00 00 00 00 00 00 00 00 00 00 00 00 00 00 00 00 00 00 00 00 00 00 00 00 00 00 00 00 00 00 00 00 00 00 00 00 00 00 00
ceec  9a       TXS                             A:55 X:fb Y:88 P:a5 SP:80  STACK: 00 00 c6 0b cb dc 00 00 00 00 00 00 00 00 00 00 00 00 00 00 00 00 00 00 00 00 00 00 00 00 00 00 00 00 00 00 00 00 00 00 00 00 00 00 00 00 00 00 00 00 00 00 00 00 00 00 00 00 00 00 00 00 00 00 00 00 00 00 00 00 00 00 00 00 00 00 00 00 00 00 00 00 00 00 00 00 00 00 00 00 00 00 00 00 00 00 00 00 00 00 00 00 00 00 00 00 00 00 00 00 00 00 00 00 00 00 00 00 00 00 00 00 00 00 00 00 00
ceed  60       RTS                             A:55 X:fb Y:88 P:a5 SP:fb  STACK: 00 00 c6 0b
c60c  20 ee ce JSR $ceee = a2                  A:55 X:fb Y:88 P:a5 SP:fd  STACK: 00 00
ceee  a2 55    LDX #$55                        A:55 X:fb Y:88 P:a5 SP:fb  STACK: 00 00 c6 0e
cef0  a0 69    LDY #$69                        A:55 X:55 Y:88 P:25 SP:fb  STACK: 00 00 c6 0e
cef2  a9 ff    LDA #$ff                        A:55 X:55 Y:69 P:25 SP:fb  STACK: 00 00 c6 0e
cef4  85 01    STA $01 = ff                    A:ff X:55 Y:69 P:a5 SP:fb  STACK: 00 00 c6 0e
cef6  ea       NOP                             A:ff X:55 Y:69 P:a5 SP:fb  STACK: 00 00 c6 0e
cef7  24 01    BIT $01 = ff                    A:ff X:55 Y:69 P:a5 SP:fb  STACK: 00 00 c6 0e
cef9  38       SEC                             A:ff X:55 Y:69 P:e5 SP:fb  STACK: 00 00 c6 0e
cefa  a9 01    LDA #$01                        A:ff X:55 Y:69 P:e5 SP:fb  STACK: 00 00 c6 0e
cefc  4a       LSR                             A:01 X:55 Y:69 P:65 SP:fb  STACK: 00 00 c6 0e
cefd  90 1d    BCC $cf1c                       A:01 X:55 Y:69 P:64 SP:fb  STACK: 00 00 c6 0e
cf1c  a2 4a    LDX #$4a                        A:01 X:55 Y:69 P:64 SP:fb  STACK: 00 00 c6 0e
cf1e  86 00    STX $00 = 22                    A:01 X:4a Y:69 P:64 SP:fb  STACK: 00 00 c6 0e
cf20  ea       NOP                             A:01 X:4a Y:69 P:64 SP:fb  STACK: 00 00 c6 0e
cf21  24 01    BIT $01 = ff                    A:01 X:4a Y:69 P:64 SP:fb  STACK: 00 00 c6 0e
cf23  38       SEC                             A:01 X:4a Y:69 P:e4 SP:fb  STACK: 00 00 c6 0e
cf24  a9 80    LDA #$80                        A:01 X:4a Y:69 P:e5 SP:fb  STACK: 00 00 c6 0e
cf26  0a       ASL                             A:80 X:4a Y:69 P:e5 SP:fb  STACK: 00 00 c6 0e
cf27  90 1e    BCC $cf47                       A:80 X:4a Y:69 P:e5 SP:fb  STACK: 00 00 c6 0e
cf29  d0 1c    BNE $cf47                       A:80 X:4a Y:69 P:e5 SP:fb  STACK: 00 00 c6 0e
cf47  a2 4b    LDX #$4b                        A:80 X:4a Y:69 P:e5 SP:fb  STACK: 00 00 c6 0e
cf49  86 00    STX $00 = 94                    A:80 X:4b Y:69 P:65 SP:fb  STACK: 00 00 c6 0e
cf4b  ea       NOP                             A:80 X:4b Y:69 P:65 SP:fb  STACK: 00 00 c6 0e
cf4c  24 01    BIT $01 = ff                    A:80 X:4b Y:69 P:65 SP:fb  STACK: 00 00 c6 0e
cf4e  38       SEC                             A:80 X:4b Y:69 P:e5 SP:fb  STACK: 00 00 c6 0e
cf4f  a9 01    LDA #$01                        A:80 X:4b Y:69 P:e5 SP:fb  STACK: 00 00 c6 0e
cf51  6a       ROR                             A:01 X:4b Y:69 P:65 SP:fb  STACK: 00 00 c6 0e
cf52  90 1e    BCC $cf72                       A:01 X:4b Y:69 P:65 SP:fb  STACK: 00 00 c6 0e
cf54  f0 1c    BEQ $cf72                       A:01 X:4b Y:69 P:65 SP:fb  STACK: 00 00 c6 0e
cf56  10 1a    BPL $cf72                       A:01 X:4b Y:69 P:65 SP:fb  STACK: 00 00 c6 0e
cf72  a2 4c    LDX #$4c                        A:01 X:4b Y:69 P:65 SP:fb  STACK: 00 00 c6 0e
cf74  86 00    STX $00 = 4b                    A:01 X:4c Y:69 P:65 SP:fb  STACK: 00 00 c6 0e
cf76  ea       NOP                             A:01 X:4c Y:69 P:65 SP:fb  STACK: 00 00 c6 0e
cf77  24 01    BIT $01 = ff                    A:01 X:4c Y:69 P:65 SP:fb  STACK: 00 00 c6 0e
cf79  38       SEC                             A:01 X:4c Y:69 P:e5 SP:fb  STACK: 00 00 c6 0e
cf7a  a9 80    LDA #$80                        A:01 X:4c Y:69 P:e5 SP:fb  STACK: 00 00 c6 0e
cf7c  2a       ROL                             A:80 X:4c Y:69 P:e5 SP:fb  STACK: 00 00 c6 0e
cf7d  90 1e    BCC $cf9d                       A:80 X:4c Y:69 P:e5 SP:fb  STACK: 00 00 c6 0e
cf7f  f0 1c    BEQ $cf9d                       A:80 X:4c Y:69 P:e5 SP:fb  STACK: 00 00 c6 0e
cf81  30 1a    BMI $cf9d                       A:80 X:4c Y:69 P:e5 SP:fb  STACK: 00 00 c6 0e
cf9d  a2 4d    LDX #$4d                        A:80 X:4c Y:69 P:e5 SP:fb  STACK: 00 00 c6 0e
cf9f  86 00    STX $00 = 4c                    A:80 X:4d Y:69 P:65 SP:fb  STACK: 00 00 c6 0e
cfa1  60       RTS                             A:80 X:4d Y:69 P:65 SP:fb  STACK: 00 00 c6 0e
c60f  20 a2 cf JSR $cfa2 = a5                  A:80 X:4d Y:69 P:65 SP:fd  STACK: 00 00
cfa2  a5 00    LDA $00 = 4d                    A:80 X:4d Y:69 P:65 SP:fb  STACK: 00 00 c6 11
cfa4  8d ff 07 STA $07ff = fb                  A:4d X:4d Y:69 P:65 SP:fb  STACK: 00 00 c6 11
cfa7  a9 00    LDA #$00                        A:4d X:4d Y:69 P:65 SP:fb  STACK: 00 00 c6 11
cfa9  85 80    STA $80 = 00                    A:00 X:4d Y:69 P:67 SP:fb  STACK: 00 00 c6 11
cfab  a9 02    LDA #$02                        A:00 X:4d Y:69 P:67 SP:fb  STACK: 00 00 c6 11
cfad  85 81    STA $81 = 00                    A:02 X:4d Y:69 P:65 SP:fb  STACK: 00 00 c6 11
cfaf  a9 ff    LDA #$ff                        A:02 X:4d Y:69 P:65 SP:fb  STACK: 00 00 c6 11
cfb1  85 01    STA $01 = ff                    A:ff X:4d Y:69 P:e5 SP:fb  STACK: 00 00 c6 11
cfb3  a9 00    LDA #$00                        A:ff X:4d Y:69 P:e5 SP:fb  STACK: 00 00 c6 11
cfb5  85 82    STA $82 = 00                    A:00 X:4d Y:69 P:67 SP:fb  STACK: 00 00 c6 11
cfb7  a9 03    LDA #$03                        A:00 X:4d Y:69 P:67 SP:fb  STACK: 00 00 c6 11
cfb9  85 83    STA $83 = 00                    A:03 X:4d Y:69 P:65 SP:fb  STACK: 00 00 c6 11
cfbb  85 84    STA $84 = 00                    A:03 X:4d Y:69 P:65 SP:fb  STACK: 00 00 c6 11
cfbd  a9 00    LDA #$00                        A:03 X:4d Y:69 P:65 SP:fb  STACK: 00 00 c6 11
cfbf  85 ff    STA $ff = 00                    A:00 X:4d Y:69 P:67 SP:fb  STACK: 00 00 c6 11
cfc1  a9 04    LDA #$04                        A:00 X:4d Y:69 P:67 SP:fb  STACK: 00 00 c6 11
cfc3  85 00    STA $00 = 4d                    A:04 X:4d Y:69 P:65 SP:fb  STACK: 00 00 c6 11
cfc5  a9 5a    LDA #$5a                        A:04 X:4d Y:69 P:65 SP:fb  STACK: 00 00 c6 11
cfc7  8d 00 02 STA $0200 = 00                  A:5a X:4d Y:69 P:65 SP:fb  STACK: 00 00 c6 11
cfca  a9 5b    LDA #$5b                        A:5a X:4d Y:69 P:65 SP:fb  STACK: 00 00 c6 11
cfcc  8d 00 03 STA $0300 = 00                  A:5b X:4d Y:69 P:65 SP:fb  STACK: 00 00 c6 11
cfcf  a9 5c    LDA #$5c                        A:5b X:4d Y:69 P:65 SP:fb  STACK: 00 00 c6 11
cfd1  8d 03 03 STA $0303 = 00                  A:5c X:4d Y:69 P:65 SP:fb  STACK: 00 00 c6 11
cfd4  a9 5d    LDA #$5d                        A:5c X:4d Y:69 P:65 SP:fb  STACK: 00 00 c6 11
cfd6  8d 00 04 STA $0400 = 00                  A:5d X:4d Y:69 P:65 SP:fb  STACK: 00 00 c6 11
cfd9  a2 00    LDX #$00                        A:5d X:4d Y:69 P:65 SP:fb  STACK: 00 00 c6 11
cfdb  a1 80    LDA ($80,X) @ 80 = 0200 = 5a    A:5d X:00 Y:69 P:67 SP:fb  STACK: 00 00 c6 11
cfdd  c9 5a    CMP #$5a                        A:5a X:00 Y:69 P:65 SP:fb  STACK: 00 00 c6 11
cfdf  d0 1f    BNE $d000                       A:5a X:00 Y:69 P:67 SP:fb  STACK: 00 00 c6 11
cfe1  e8       INX                             A:5a X:00 Y:69 P:67 SP:fb  STACK: 00 00 c6 11
cfe2  e8       INX                             A:5a X:00 Y:69 P:67 SP:fb  STACK: 00 00 c6 11
cfe3  a1 80    LDA ($80,X) @ 80 = 0200 = 5a    A:5a X:00 Y:69 P:67 SP:fb  STACK: 00 00 c6 11
cfe5  c9 5b    CMP #$5b                        A:5a X:00 Y:69 P:65 SP:fb  STACK: 00 00 c6 11
cfe7  d0 17    BNE $d000                       A:5a X:00 Y:69 P:e4 SP:fb  STACK: 00 00 c6 11
d000  a9 58    LDA #$58                        A:5a X:00 Y:69 P:e4 SP:fb  STACK: 00 00 c6 11
d002  8d ff 07 STA $07ff = 4d                  A:58 X:00 Y:69 P:64 SP:fb  STACK: 00 00 c6 11
d005  a9 aa    LDA #$aa                        A:58 X:00 Y:69 P:64 SP:fb  STACK: 00 00 c6 11
d007  a2 00    LDX #$00                        A:aa X:00 Y:69 P:e4 SP:fb  STACK: 00 00 c6 11
d009  81 80    STA ($80,X) @ 80 = 0200 = 5a    A:aa X:00 Y:69 P:66 SP:fb  STACK: 00 00 c6 11
d00b  e8       INX                             A:aa X:00 Y:69 P:66 SP:fb  STACK: 00 00 c6 11
d00c  e8       INX                             A:aa X:00 Y:69 P:66 SP:fb  STACK: 00 00 c6 11
d00d  a9 ab    LDA #$ab                        A:aa X:00 Y:69 P:66 SP:fb  STACK: 00 00 c6 11
d00f  81 80    STA ($80,X) @ 80 = 0200 = aa    A:ab X:00 Y:69 P:e4 SP:fb  STACK: 00 00 c6 11
d011  e8       INX                             A:ab X:00 Y:69 P:e4 SP:fb  STACK: 00 00 c6 11
d012  a9 ac    LDA #$ac                        A:ab X:00 Y:69 P:e4 SP:fb  STACK: 00 00 c6 11
d014  81 80    STA ($80,X) @ 80 = 0200 = ab    A:ac X:00 Y:69 P:e4 SP:fb  STACK: 00 00 c6 11
d016  a2 00    LDX #$00                        A:ac X:00 Y:69 P:e4 SP:fb  STACK: 00 00 c6 11
d018  a9 ad    LDA #$ad                        A:ac X:00 Y:69 P:66 SP:fb  STACK: 00 00 c6 11
d01a  81 ff    STA ($ff,X) @ ff = 0000 = 04    A:ad X:00 Y:69 P:e4 SP:fb  STACK: 00 00 c6 11
d01c  ad 00 02 LDA $0200 = ac                  A:ad X:00 Y:69 P:e4 SP:fb  STACK: 00 00 c6 11
d01f  c9 aa    CMP #$aa                        A:ac X:00 Y:69 P:e4 SP:fb  STACK: 00 00 c6 11
d021  d0 15    BNE $d038                       A:ac X:00 Y:69 P:65 SP:fb  STACK: 00 00 c6 11
d038  a9 59    LDA #$59                        A:ac X:00 Y:69 P:65 SP:fb  STACK: 00 00 c6 11
d03a  8d ff 07 STA $07ff = 58                  A:59 X:00 Y:69 P:65 SP:fb  STACK: 00 00 c6 11
d03d  ad ff 07 LDA $07ff = 59                  A:59 X:00 Y:69 P:65 SP:fb  STACK: 00 00 c6 11
d040  85 00    STA $00 = ad                    A:59 X:00 Y:69 P:65 SP:fb  STACK: 00 00 c6 11
d042  a9 00    LDA #$00                        A:59 X:00 Y:69 P:65 SP:fb  STACK: 00 00 c6 11
d044  8d 00 03 STA $0300 = 5b                  A:00 X:00 Y:69 P:67 SP:fb  STACK: 00 00 c6 11
d047  a9 aa    LDA #$aa                        A:00 X:00 Y:69 P:67 SP:fb  STACK: 00 00 c6 11
d049  8d 00 02 STA $0200 = ac                  A:aa X:00 Y:69 P:e5 SP:fb  STACK: 00 00 c6 11
d04c  a2 00    LDX #$00                        A:aa X:00 Y:69 P:e5 SP:fb  STACK: 00 00 c6 11
d04e  a0 5a    LDY #$5a                        A:aa X:00 Y:69 P:67 SP:fb  STACK: 00 00 c6 11
d050  20 b6 f7 JSR $f7b6 = 18                  A:aa X:00 Y:5a P:65 SP:fb  STACK: 00 00 c6 11
f7b6  18       CLC                             A:aa X:00 Y:5a P:65 SP:f9  STACK: 00 00 c6 11 d0 52
f7b7  a9 ff    LDA #$ff                        A:aa X:00 Y:5a P:64 SP:f9  STACK: 00 00 c6 11 d0 52
f7b9  85 01    STA $01 = ff                    A:ff X:00 Y:5a P:e4 SP:f9  STACK: 00 00 c6 11 d0 52
f7bb  24 01    BIT $01 = ff                    A:ff X:00 Y:5a P:e4 SP:f9  STACK: 00 00 c6 11 d0 52
f7bd  a9 55    LDA #$55                        A:ff X:00 Y:5a P:e4 SP:f9  STACK: 00 00 c6 11 d0 52
f7bf  60       RTS                             A:55 X:00 Y:5a P:64 SP:f9  STACK: 00 00 c6 11 d0 52
d053  01 80    ORA ($80,X) @ 80 = 0200 = aa    A:55 X:00 Y:5a P:64 SP:fb  STACK: 00 00 c6 11
d055  20 c0 f7 JSR $f7c0 = b0                  A:ff X:00 Y:5a P:e4 SP:fb  STACK: 00 00 c6 11
f7c0  b0 09    BCS $f7cb                       A:ff X:00 Y:5a P:e4 SP:f9  STACK: 00 00 c6 11 d0 57
f7c2  10 07    BPL $f7cb                       A:ff X:00 Y:5a P:e4 SP:f9  STACK: 00 00 c6 11 d0 57
f7c4  c9 ff    CMP #$ff                        A:ff X:00 Y:5a P:e4 SP:f9  STACK: 00 00 c6 11 d0 57
f7c6  d0 03    BNE $f7cb                       A:ff X:00 Y:5a P:67 SP:f9  STACK: 00 00 c6 11 d0 57
f7c8  50 01    BVC $f7cb                       A:ff X:00 Y:5a P:67 SP:f9  STACK: 00 00 c6 11 d0 57
f7ca  60       RTS                             A:ff X:00 Y:5a P:67 SP:f9  STACK: 00 00 c6 11 d0 57
d058  c8       INY                             A:ff X:00 Y:5a P:67 SP:fb  STACK: 00 00 c6 11
d059  20 ce f7 JSR $f7ce = 38                  A:ff X:00 Y:5a P:67 SP:fb  STACK: 00 00 c6 11
f7ce  38       SEC                             A:ff X:00 Y:5a P:67 SP:f9  STACK: 00 00 c6 11 d0 5b
f7cf  b8       CLV                             A:ff X:00 Y:5a P:67 SP:f9  STACK: 00 00 c6 11 d0 5b
f7d0  a9 00    LDA #$00                        A:ff X:00 Y:5a P:27 SP:f9  STACK: 00 00 c6 11 d0 5b
f7d2  60       RTS                             A:00 X:00 Y:5a P:27 SP:f9  STACK: 00 00 c6 11 d0 5b
d05c  01 82    ORA ($82,X) @ 82 = 0300 = 00    A:00 X:00 Y:5a P:27 SP:fb  STACK: 00 00 c6 11
d05e  20 d3 f7 JSR $f7d3 = d0                  A:00 X:00 Y:5a P:27 SP:fb  STACK: 00 00 c6 11
f7d3  d0 07    BNE $f7dc                       A:00 X:00 Y:5a P:27 SP:f9  STACK: 00 00 c6 11 d0 60
f7d5  70 05    BVS $f7dc                       A:00 X:00 Y:5a P:27 SP:f9  STACK: 00 00 c6 11 d0 60
f7d7  90 03    BCC $f7dc                       A:00 X:00 Y:5a P:27 SP:f9  STACK: 00 00 c6 11 d0 60
f7d9  30 01    BMI $f7dc                       A:00 X:00 Y:5a P:27 SP:f9  STACK: 00 00 c6 11 d0 60
f7db  60       RTS                             A:00 X:00 Y:5a P:27 SP:f9  STACK: 00 00 c6 11 d0 60
d061  c8       INY                             A:00 X:00 Y:5a P:27 SP:fb  STACK: 00 00 c6 11
d062  20 df f7 JSR $f7df = 18                  A:00 X:00 Y:5a P:27 SP:fb  STACK: 00 00 c6 11
f7df  18       CLC                             A:00 X:00 Y:5a P:27 SP:f9  STACK: 00 00 c6 11 d0 64
f7e0  24 01    BIT $01 = ff                    A:00 X:00 Y:5a P:26 SP:f9  STACK: 00 00 c6 11 d0 64
f7e2  a9 55    LDA #$55                        A:00 X:00 Y:5a P:e6 SP:f9  STACK: 00 00 c6 11 d0 64
f7e4  60       RTS                             A:55 X:00 Y:5a P:64 SP:f9  STACK: 00 00 c6 11 d0 64
d065  21 80    AND ($80,X) @ 80 = 0200 = aa    A:55 X:00 Y:5a P:64 SP:fb  STACK: 00 00 c6 11
d067  20 e5 f7 JSR $f7e5 = d0                  A:00 X:00 Y:5a P:66 SP:fb  STACK: 00 00 c6 11
f7e5  d0 07    BNE $f7ee                       A:00 X:00 Y:5a P:66 SP:f9  STACK: 00 00 c6 11 d0 69
f7e7  50 05    BVC $f7ee                       A:00 X:00 Y:5a P:66 SP:f9  STACK: 00 00 c6 11 d0 69
f7e9  b0 03    BCS $f7ee                       A:00 X:00 Y:5a P:66 SP:f9  STACK: 00 00 c6 11 d0 69
f7eb  30 01    BMI $f7ee                       A:00 X:00 Y:5a P:66 SP:f9  STACK: 00 00 c6 11 d0 69
f7ed  60       RTS                             A:00 X:00 Y:5a P:66 SP:f9  STACK: 00 00 c6 11 d0 69
d06a  c8       INY                             A:00 X:00 Y:5a P:66 SP:fb  STACK: 00 00 c6 11
d06b  a9 ef    LDA #$ef                        A:00 X:00 Y:5a P:66 SP:fb  STACK: 00 00 c6 11
d06d  8d 00 03 STA $0300 = 00                  A:ef X:00 Y:5a P:e4 SP:fb  STACK: 00 00 c6 11
d070  20 f1 f7 JSR $f7f1 = 38                  A:ef X:00 Y:5a P:e4 SP:fb  STACK: 00 00 c6 11
f7f1  38       SEC                             A:ef X:00 Y:5a P:e4 SP:f9  STACK: 00 00 c6 11 d0 72
f7f2  b8       CLV                             A:ef X:00 Y:5a P:e5 SP:f9  STACK: 00 00 c6 11 d0 72
f7f3  a9 f8    LDA #$f8                        A:ef X:00 Y:5a P:a5 SP:f9  STACK: 00 00 c6 11 d0 72
f7f5  60       RTS                             A:f8 X:00 Y:5a P:a5 SP:f9  STACK: 00 00 c6 11 d0 72
d073  21 82    AND ($82,X) @ 82 = 0300 = ef    A:f8 X:00 Y:5a P:a5 SP:fb  STACK: 00 00 c6 11
d075  20 f6 f7 JSR $f7f6 = 90                  A:e8 X:00 Y:5a P:a5 SP:fb  STACK: 00 00 c6 11
f7f6  90 09    BCC $f801                       A:e8 X:00 Y:5a P:a5 SP:f9  STACK: 00 00 c6 11 d0 77
f7f8  10 07    BPL $f801                       A:e8 X:00 Y:5a P:a5 SP:f9  STACK: 00 00 c6 11 d0 77
f7fa  c9 e8    CMP #$e8                        A:e8 X:00 Y:5a P:a5 SP:f9  STACK: 00 00 c6 11 d0 77
f7fc  d0 03    BNE $f801                       A:e8 X:00 Y:5a P:27 SP:f9  STACK: 00 00 c6 11 d0 77
f7fe  70 01    BVS $f801                       A:e8 X:00 Y:5a P:27 SP:f9  STACK: 00 00 c6 11 d0 77
f800  60       RTS                             A:e8 X:00 Y:5a P:27 SP:f9  STACK: 00 00 c6 11 d0 77
d078  c8       INY                             A:e8 X:00 Y:5a P:27 SP:fb  STACK: 00 00 c6 11
d079  20 04 f8 JSR $f804 = 18                  A:e8 X:00 Y:5a P:27 SP:fb  STACK: 00 00 c6 11
f804  18       CLC                             A:e8 X:00 Y:5a P:27 SP:f9  STACK: 00 00 c6 11 d0 7b
f805  24 01    BIT $01 = ff                    A:e8 X:00 Y:5a P:26 SP:f9  STACK: 00 00 c6 11 d0 7b
f807  a9 5f    LDA #$5f                        A:e8 X:00 Y:5a P:e4 SP:f9  STACK: 00 00 c6 11 d0 7b
f809  60       RTS                             A:5f X:00 Y:5a P:64 SP:f9  STACK: 00 00 c6 11 d0 7b
d07c  41 80    EOR ($80,X) @ 80 = 0200 = aa    A:5f X:00 Y:5a P:64 SP:fb  STACK: 00 00 c6 11
d07e  20 0a f8 JSR $f80a = b0                  A:f5 X:00 Y:5a P:e4 SP:fb  STACK: 00 00 c6 11
f80a  b0 09    BCS $f815                       A:f5 X:00 Y:5a P:e4 SP:f9  STACK: 00 00 c6 11 d0 80
f80c  10 07    BPL $f815                       A:f5 X:00 Y:5a P:e4 SP:f9  STACK: 00 00 c6 11 d0 80
f80e  c9 f5    CMP #$f5                        A:f5 X:00 Y:5a P:e4 SP:f9  STACK: 00 00 c6 11 d0 80
f810  d0 03    BNE $f815                       A:f5 X:00 Y:5a P:67 SP:f9  STACK: 00 00 c6 11 d0 80
f812  50 01    BVC $f815                       A:f5 X:00 Y:5a P:67 SP:f9  STACK: 00 00 c6 11 d0 80
f814  60       RTS                             A:f5 X:00 Y:5a P:67 SP:f9  STACK: 00 00 c6 11 d0 80
d081  c8       INY                             A:f5 X:00 Y:5a P:67 SP:fb  STACK: 00 00 c6 11
d082  a9 70    LDA #$70                        A:f5 X:00 Y:5a P:67 SP:fb  STACK: 00 00 c6 11
d084  8d 00 03 STA $0300 = ef                  A:70 X:00 Y:5a P:65 SP:fb  STACK: 00 00 c6 11
d087  20 18 f8 JSR $f818 = 38                  A:70 X:00 Y:5a P:65 SP:fb  STACK: 00 00 c6 11
f818  38       SEC                             A:70 X:00 Y:5a P:65 SP:f9  STACK: 00 00 c6 11 d0 89
f819  b8       CLV                             A:70 X:00 Y:5a P:65 SP:f9  STACK: 00 00 c6 11 d0 89
f81a  a9 70    LDA #$70                        A:70 X:00 Y:5a P:25 SP:f9  STACK: 00 00 c6 11 d0 89
f81c  60       RTS                             A:70 X:00 Y:5a P:25 SP:f9  STACK: 00 00 c6 11 d0 89
d08a  41 82    EOR ($82,X) @ 82 = 0300 = 70    A:70 X:00 Y:5a P:25 SP:fb  STACK: 00 00 c6 11
d08c  20 1d f8 JSR $f81d = d0                  A:00 X:00 Y:5a P:27 SP:fb  STACK: 00 00 c6 11
f81d  d0 07    BNE $f826                       A:00 X:00 Y:5a P:27 SP:f9  STACK: 00 00 c6 11 d0 8e
f81f  70 05    BVS $f826                       A:00 X:00 Y:5a P:27 SP:f9  STACK: 00 00 c6 11 d0 8e
f821  90 03    BCC $f826                       A:00 X:00 Y:5a P:27 SP:f9  STACK: 00 00 c6 11 d0 8e
f823  30 01    BMI $f826                       A:00 X:00 Y:5a P:27 SP:f9  STACK: 00 00 c6 11 d0 8e
f825  60       RTS                             A:00 X:00 Y:5a P:27 SP:f9  STACK: 00 00 c6 11 d0 8e
d08f  c8       INY                             A:00 X:00 Y:5a P:27 SP:fb  STACK: 00 00 c6 11
d090  a9 69    LDA #$69                        A:00 X:00 Y:5a P:27 SP:fb  STACK: 00 00 c6 11
d092  8d 00 02 STA $0200 = aa                  A:69 X:00 Y:5a P:25 SP:fb  STACK: 00 00 c6 11
d095  20 29 f8 JSR $f829 = 18                  A:69 X:00 Y:5a P:25 SP:fb  STACK: 00 00 c6 11
f829  18       CLC                             A:69 X:00 Y:5a P:25 SP:f9  STACK: 00 00 c6 11 d0 97
f82a  24 01    BIT $01 = ff                    A:69 X:00 Y:5a P:24 SP:f9  STACK: 00 00 c6 11 d0 97
f82c  a9 00    LDA #$00                        A:69 X:00 Y:5a P:e4 SP:f9  STACK: 00 00 c6 11 d0 97
f82e  60       RTS                             A:00 X:00 Y:5a P:66 SP:f9  STACK: 00 00 c6 11 d0 97
d098  61 80    ADC ($80,X) @ 80 = 0200 = 69    A:00 X:00 Y:5a P:66 SP:fb  STACK: 00 00 c6 11
d09a  20 2f f8 JSR $f82f = 30                  A:69 X:00 Y:5a P:a4 SP:fb  STACK: 00 00 c6 11
f82f  30 09    BMI $f83a                       A:69 X:00 Y:5a P:a4 SP:f9  STACK: 00 00 c6 11 d0 9c
f83a  84 00    STY $00 = 59                    A:69 X:00 Y:5a P:a4 SP:f9  STACK: 00 00 c6 11 d0 9c
f83c  60       RTS                             A:69 X:00 Y:5a P:a4 SP:f9  STACK: 00 00 c6 11 d0 9c
d09d  c8       INY                             A:69 X:00 Y:5a P:a4 SP:fb  STACK: 00 00 c6 11
d09e  20 3d f8 JSR $f83d = 38                  A:69 X:00 Y:5a P:a4 SP:fb  STACK: 00 00 c6 11
f83d  38       SEC                             A:69 X:00 Y:5a P:a4 SP:f9  STACK: 00 00 c6 11 d0 a0
f83e  24 01    BIT $01 = ff                    A:69 X:00 Y:5a P:a5 SP:f9  STACK: 00 00 c6 11 d0 a0
f840  a9 00    LDA #$00                        A:69 X:00 Y:5a P:e5 SP:f9  STACK: 00 00 c6 11 d0 a0
f842  60       RTS                             A:00 X:00 Y:5a P:67 SP:f9  STACK: 00 00 c6 11 d0 a0
d0a1  61 80    ADC ($80,X) @ 80 = 0200 = 69    A:00 X:00 Y:5a P:67 SP:fb  STACK: 00 00 c6 11
d0a3  20 43 f8 JSR $f843 = 30                  A:69 X:00 Y:5a P:a4 SP:fb  STACK: 00 00 c6 11
f843  30 09    BMI $f84e                       A:69 X:00 Y:5a P:a4 SP:f9  STACK: 00 00 c6 11 d0 a5
f84e  84 00    STY $00 = 5a                    A:69 X:00 Y:5a P:a4 SP:f9  STACK: 00 00 c6 11 d0 a5
f850  60       RTS                             A:69 X:00 Y:5a P:a4 SP:f9  STACK: 00 00 c6 11 d0 a5
d0a6  c8       INY                             A:69 X:00 Y:5a P:a4 SP:fb  STACK: 00 00 c6 11
d0a7  a9 7f    LDA #$7f                        A:69 X:00 Y:5a P:a4 SP:fb  STACK: 00 00 c6 11
d0a9  8d 00 02 STA $0200 = 69                  A:7f X:00 Y:5a P:24 SP:fb  STACK: 00 00 c6 11
d0ac  20 51 f8 JSR $f851 = 38                  A:7f X:00 Y:5a P:24 SP:fb  STACK: 00 00 c6 11
f851  38       SEC                             A:7f X:00 Y:5a P:24 SP:f9  STACK: 00 00 c6 11 d0 ae
f852  b8       CLV                             A:7f X:00 Y:5a P:25 SP:f9  STACK: 00 00 c6 11 d0 ae
f853  a9 7f    LDA #$7f                        A:7f X:00 Y:5a P:25 SP:f9  STACK: 00 00 c6 11 d0 ae
f855  60       RTS                             A:7f X:00 Y:5a P:25 SP:f9  STACK: 00 00 c6 11 d0 ae
d0af  61 80    ADC ($80,X) @ 80 = 0200 = 7f    A:7f X:00 Y:5a P:25 SP:fb  STACK: 00 00 c6 11
d0b1  20 56 f8 JSR $f856 = 10                  A:fe X:00 Y:5a P:64 SP:fb  STACK: 00 00 c6 11
f856  10 09    BPL $f861                       A:fe X:00 Y:5a P:64 SP:f9  STACK: 00 00 c6 11 d0 b3
f861  84 00    STY $00 = 5a                    A:fe X:00 Y:5a P:64 SP:f9  STACK: 00 00 c6 11 d0 b3
f863  60       RTS                             A:fe X:00 Y:5a P:64 SP:f9  STACK: 00 00 c6 11 d0 b3
d0b4  c8       INY                             A:fe X:00 Y:5a P:64 SP:fb  STACK: 00 00 c6 11
d0b5  a9 80    LDA #$80                        A:fe X:00 Y:5a P:64 SP:fb  STACK: 00 00 c6 11
d0b7  8d 00 02 STA $0200 = 7f                  A:80 X:00 Y:5a P:e4 SP:fb  STACK: 00 00 c6 11
d0ba  20 64 f8 JSR $f864 = 18                  A:80 X:00 Y:5a P:e4 SP:fb  STACK: 00 00 c6 11
f864  18       CLC                             A:80 X:00 Y:5a P:e4 SP:f9  STACK: 00 00 c6 11 d0 bc
f865  24 01    BIT $01 = ff                    A:80 X:00 Y:5a P:e4 SP:f9  STACK: 00 00 c6 11 d0 bc
f867  a9 7f    LDA #$7f                        A:80 X:00 Y:5a P:e4 SP:f9  STACK: 00 00 c6 11 d0 bc
f869  60       RTS                             A:7f X:00 Y:5a P:64 SP:f9  STACK: 00 00 c6 11 d0 bc
d0bd  61 80    ADC ($80,X) @ 80 = 0200 = 80    A:7f X:00 Y:5a P:64 SP:fb  STACK: 00 00 c6 11
d0bf  20 6a f8 JSR $f86a = 10                  A:ff X:00 Y:5a P:24 SP:fb  STACK: 00 00 c6 11
f86a  10 09    BPL $f875                       A:ff X:00 Y:5a P:24 SP:f9  STACK: 00 00 c6 11 d0 c1
f875  84 00    STY $00 = 5a                    A:ff X:00 Y:5a P:24 SP:f9  STACK: 00 00 c6 11 d0 c1
f877  60       RTS                             A:ff X:00 Y:5a P:24 SP:f9  STACK: 00 00 c6 11 d0 c1
d0c2  c8       INY                             A:ff X:00 Y:5a P:24 SP:fb  STACK: 00 00 c6 11
d0c3  20 78 f8 JSR $f878 = 38                  A:ff X:00 Y:5a P:24 SP:fb  STACK: 00 00 c6 11
f878  38       SEC                             A:ff X:00 Y:5a P:24 SP:f9  STACK: 00 00 c6 11 d0 c5
f879  b8       CLV                             A:ff X:00 Y:5a P:25 SP:f9  STACK: 00 00 c6 11 d0 c5
f87a  a9 7f    LDA #$7f                        A:ff X:00 Y:5a P:25 SP:f9  STACK: 00 00 c6 11 d0 c5
f87c  60       RTS                             A:7f X:00 Y:5a P:25 SP:f9  STACK: 00 00 c6 11 d0 c5
d0c6  61 80    ADC ($80,X) @ 80 = 0200 = 80    A:7f X:00 Y:5a P:25 SP:fb  STACK: 00 00 c6 11
d0c8  20 7d f8 JSR $f87d = d0                  A:ff X:00 Y:5a P:24 SP:fb  STACK: 00 00 c6 11
f87d  d0 07    BNE $f886                       A:ff X:00 Y:5a P:24 SP:f9  STACK: 00 00 c6 11 d0 ca
f886  84 00    STY $00 = 5a                    A:ff X:00 Y:5a P:24 SP:f9  STACK: 00 00 c6 11 d0 ca
f888  60       RTS                             A:ff X:00 Y:5a P:24 SP:f9  STACK: 00 00 c6 11 d0 ca
d0cb  c8       INY                             A:ff X:00 Y:5a P:24 SP:fb  STACK: 00 00 c6 11
d0cc  a9 40    LDA #$40                        A:ff X:00 Y:5a P:24 SP:fb  STACK: 00 00 c6 11
d0ce  8d 00 02 STA $0200 = 80                  A:40 X:00 Y:5a P:24 SP:fb  STACK: 00 00 c6 11
d0d1  20 89 f8 JSR $f889 = 24                  A:40 X:00 Y:5a P:24 SP:fb  STACK: 00 00 c6 11
f889  24 01    BIT $01 = ff                    A:40 X:00 Y:5a P:24 SP:f9  STACK: 00 00 c6 11 d0 d3
f88b  a9 40    LDA #$40                        A:40 X:00 Y:5a P:e4 SP:f9  STACK: 00 00 c6 11 d0 d3
f88d  60       RTS                             A:40 X:00 Y:5a P:64 SP:f9  STACK: 00 00 c6 11 d0 d3
d0d4  c1 80    CMP ($80,X) @ 80 = 0200 = 40    A:40 X:00 Y:5a P:64 SP:fb  STACK: 00 00 c6 11
d0d6  20 8e f8 JSR $f88e = 30                  A:40 X:00 Y:5a P:67 SP:fb  STACK: 00 00 c6 11
f88e  30 07    BMI $f897                       A:40 X:00 Y:5a P:67 SP:f9  STACK: 00 00 c6 11 d0 d8
f890  90 05    BCC $f897                       A:40 X:00 Y:5a P:67 SP:f9  STACK: 00 00 c6 11 d0 d8
f892  d0 03    BNE $f897                       A:40 X:00 Y:5a P:67 SP:f9  STACK: 00 00 c6 11 d0 d8
f894  50 01    BVC $f897                       A:40 X:00 Y:5a P:67 SP:f9  STACK: 00 00 c6 11 d0 d8
f896  60       RTS                             A:40 X:00 Y:5a P:67 SP:f9  STACK: 00 00 c6 11 d0 d8
d0d9  c8       INY                             A:40 X:00 Y:5a P:67 SP:fb  STACK: 00 00 c6 11
d0da  48       PHA                             A:40 X:00 Y:5a P:67 SP:fb  STACK: 00 00 c6 11
d0db  a9 3f    LDA #$3f                        A:40 X:00 Y:5a P:67 SP:fa  STACK: 00 00 c6 11 40
d0dd  8d 00 02 STA $0200 = 40                  A:3f X:00 Y:5a P:65 SP:fa  STACK: 00 00 c6 11 40
d0e0  68       PLA                             A:3f X:00 Y:5a P:65 SP:fa  STACK: 00 00 c6 11 40
d0e1  20 9a f8 JSR $f89a = b8                  A:40 X:00 Y:5a P:65 SP:fb  STACK: 00 00 c6 11
f89a  b8       CLV                             A:40 X:00 Y:5a P:65 SP:f9  STACK: 00 00 c6 11 d0 e3
f89b  60       RTS                             A:40 X:00 Y:5a P:25 SP:f9  STACK: 00 00 c6 11 d0 e3
d0e4  c1 80    CMP ($80,X) @ 80 = 0200 = 3f    A:40 X:00 Y:5a P:25 SP:fb  STACK: 00 00 c6 11
d0e6  20 9c f8 JSR $f89c = f0                  A:40 X:00 Y:5a P:25 SP:fb  STACK: 00 00 c6 11
f89c  f0 07    BEQ $f8a5                       A:40 X:00 Y:5a P:25 SP:f9  STACK: 00 00 c6 11 d0 e8
f89e  30 05    BMI $f8a5                       A:40 X:00 Y:5a P:25 SP:f9  STACK: 00 00 c6 11 d0 e8
f8a0  90 03    BCC $f8a5                       A:40 X:00 Y:5a P:25 SP:f9  STACK: 00 00 c6 11 d0 e8
f8a2  70 01    BVS $f8a5                       A:40 X:00 Y:5a P:25 SP:f9  STACK: 00 00 c6 11 d0 e8
f8a4  60       RTS                             A:40 X:00 Y:5a P:25 SP:f9  STACK: 00 00 c6 11 d0 e8
d0e9  c8       INY                             A:40 X:00 Y:5a P:25 SP:fb  STACK: 00 00 c6 11
d0ea  48       PHA                             A:40 X:00 Y:5a P:25 SP:fb  STACK: 00 00 c6 11
d0eb  a9 41    LDA #$41                        A:40 X:00 Y:5a P:25 SP:fa  STACK: 00 00 c6 11 40
d0ed  8d 00 02 STA $0200 = 3f                  A:41 X:00 Y:5a P:25 SP:fa  STACK: 00 00 c6 11 40
d0f0  68       PLA                             A:41 X:00 Y:5a P:25 SP:fa  STACK: 00 00 c6 11 40
d0f1  c1 80    CMP ($80,X) @ 80 = 0200 = 41    A:40 X:00 Y:5a P:25 SP:fb  STACK: 00 00 c6 11
d0f3  20 a8 f8 JSR $f8a8 = f0                  A:40 X:00 Y:5a P:a4 SP:fb  STACK: 00 00 c6 11
f8a8  f0 05    BEQ $f8af                       A:40 X:00 Y:5a P:a4 SP:f9  STACK: 00 00 c6 11 d0 f5
f8aa  10 03    BPL $f8af                       A:40 X:00 Y:5a P:a4 SP:f9  STACK: 00 00 c6 11 d0 f5
f8ac  10 01    BPL $f8af                       A:40 X:00 Y:5a P:a4 SP:f9  STACK: 00 00 c6 11 d0 f5
f8ae  60       RTS                             A:40 X:00 Y:5a P:a4 SP:f9  STACK: 00 00 c6 11 d0 f5
d0f6  c8       INY                             A:40 X:00 Y:5a P:a4 SP:fb  STACK: 00 00 c6 11
d0f7  48       PHA                             A:40 X:00 Y:5a P:a4 SP:fb  STACK: 00 00 c6 11
d0f8  a9 00    LDA #$00                        A:40 X:00 Y:5a P:a4 SP:fa  STACK: 00 00 c6 11 40
d0fa  8d 00 02 STA $0200 = 41                  A:00 X:00 Y:5a P:26 SP:fa  STACK: 00 00 c6 11 40
d0fd  68       PLA                             A:00 X:00 Y:5a P:26 SP:fa  STACK: 00 00 c6 11 40
d0fe  20 b2 f8 JSR $f8b2 = a9                  A:40 X:00 Y:5a P:24 SP:fb  STACK: 00 00 c6 11
f8b2  a9 80    LDA #$80                        A:40 X:00 Y:5a P:24 SP:f9  STACK: 00 00 c6 11 d1 00
f8b4  60       RTS                             A:80 X:00 Y:5a P:a4 SP:f9  STACK: 00 00 c6 11 d1 00
d101  c1 80    CMP ($80,X) @ 80 = 0200 = 00    A:80 X:00 Y:5a P:a4 SP:fb  STACK: 00 00 c6 11
d103  20 b5 f8 JSR $f8b5 = f0                  A:80 X:00 Y:5a P:a5 SP:fb  STACK: 00 00 c6 11
f8b5  f0 05    BEQ $f8bc                       A:80 X:00 Y:5a P:a5 SP:f9  STACK: 00 00 c6 11 d1 05
f8b7  10 03    BPL $f8bc                       A:80 X:00 Y:5a P:a5 SP:f9  STACK: 00 00 c6 11 d1 05
f8b9  90 01    BCC $f8bc                       A:80 X:00 Y:5a P:a5 SP:f9  STACK: 00 00 c6 11 d1 05
f8bb  60       RTS                             A:80 X:00 Y:5a P:a5 SP:f9  STACK: 00 00 c6 11 d1 05
d106  c8       INY                             A:80 X:00 Y:5a P:a5 SP:fb  STACK: 00 00 c6 11
d107  48       PHA                             A:80 X:00 Y:5a P:a5 SP:fb  STACK: 00 00 c6 11
d108  a9 80    LDA #$80                        A:80 X:00 Y:5a P:a5 SP:fa  STACK: 00 00 c6 11 80
d10a  8d 00 02 STA $0200 = 00                  A:80 X:00 Y:5a P:a5 SP:fa  STACK: 00 00 c6 11 80
d10d  68       PLA                             A:80 X:00 Y:5a P:a5 SP:fa  STACK: 00 00 c6 11 80
d10e  c1 80    CMP ($80,X) @ 80 = 0200 = 80    A:80 X:00 Y:5a P:a5 SP:fb  STACK: 00 00 c6 11
d110  20 bf f8 JSR $f8bf = d0                  A:80 X:00 Y:5a P:27 SP:fb  STACK: 00 00 c6 11
f8bf  d0 05    BNE $f8c6                       A:80 X:00 Y:5a P:27 SP:f9  STACK: 00 00 c6 11 d1 12
f8c1  30 03    BMI $f8c6                       A:80 X:00 Y:5a P:27 SP:f9  STACK: 00 00 c6 11 d1 12
f8c3  90 01    BCC $f8c6                       A:80 X:00 Y:5a P:27 SP:f9  STACK: 00 00 c6 11 d1 12
f8c5  60       RTS                             A:80 X:00 Y:5a P:27 SP:f9  STACK: 00 00 c6 11 d1 12
d113  c8       INY                             A:80 X:00 Y:5a P:27 SP:fb  STACK: 00 00 c6 11
d114  48       PHA                             A:80 X:00 Y:5a P:27 SP:fb  STACK: 00 00 c6 11
d115  a9 81    LDA #$81                        A:80 X:00 Y:5a P:27 SP:fa  STACK: 00 00 c6 11 80
d117  8d 00 02 STA $0200 = 80                  A:81 X:00 Y:5a P:a5 SP:fa  STACK: 00 00 c6 11 80
d11a  68       PLA                             A:81 X:00 Y:5a P:a5 SP:fa  STACK: 00 00 c6 11 80
d11b  c1 80    CMP ($80,X) @ 80 = 0200 = 81    A:80 X:00 Y:5a P:a5 SP:fb  STACK: 00 00 c6 11
d11d  20 c9 f8 JSR $f8c9 = b0                  A:80 X:00 Y:5a P:a4 SP:fb  STACK: 00 00 c6 11
f8c9  b0 05    BCS $f8d0                       A:80 X:00 Y:5a P:a4 SP:f9  STACK: 00 00 c6 11 d1 1f
f8cb  f0 03    BEQ $f8d0                       A:80 X:00 Y:5a P:a4 SP:f9  STACK: 00 00 c6 11 d1 1f
f8cd  10 01    BPL $f8d0                       A:80 X:00 Y:5a P:a4 SP:f9  STACK: 00 00 c6 11 d1 1f
f8cf  60       RTS                             A:80 X:00 Y:5a P:a4 SP:f9  STACK: 00 00 c6 11 d1 1f
d120  c8       INY                             A:80 X:00 Y:5a P:a4 SP:fb  STACK: 00 00 c6 11
d121  48       PHA                             A:80 X:00 Y:5a P:a4 SP:fb  STACK: 00 00 c6 11
d122  a9 7f    LDA #$7f                        A:80 X:00 Y:5a P:a4 SP:fa  STACK: 00 00 c6 11 80
d124  8d 00 02 STA $0200 = 81                  A:7f X:00 Y:5a P:24 SP:fa  STACK: 00 00 c6 11 80
d127  68       PLA                             A:7f X:00 Y:5a P:24 SP:fa  STACK: 00 00 c6 11 80
d128  c1 80    CMP ($80,X) @ 80 = 0200 = 7f    A:80 X:00 Y:5a P:a4 SP:fb  STACK: 00 00 c6 11
d12a  20 d3 f8 JSR $f8d3 = 90                  A:80 X:00 Y:5a P:25 SP:fb  STACK: 00 00 c6 11
f8d3  90 05    BCC $f8da                       A:80 X:00 Y:5a P:25 SP:f9  STACK: 00 00 c6 11 d1 2c
f8d5  f0 03    BEQ $f8da                       A:80 X:00 Y:5a P:25 SP:f9  STACK: 00 00 c6 11 d1 2c
f8d7  30 01    BMI $f8da                       A:80 X:00 Y:5a P:25 SP:f9  STACK: 00 00 c6 11 d1 2c
f8d9  60       RTS                             A:80 X:00 Y:5a P:25 SP:f9  STACK: 00 00 c6 11 d1 2c
d12d  c8       INY                             A:80 X:00 Y:5a P:25 SP:fb  STACK: 00 00 c6 11
d12e  a9 40    LDA #$40                        A:80 X:00 Y:5a P:25 SP:fb  STACK: 00 00 c6 11
d130  8d 00 02 STA $0200 = 7f                  A:40 X:00 Y:5a P:25 SP:fb  STACK: 00 00 c6 11
d133  20 31 f9 JSR $f931 = 24                  A:40 X:00 Y:5a P:25 SP:fb  STACK: 00 00 c6 11
f931  24 01    BIT $01 = ff                    A:40 X:00 Y:5a P:25 SP:f9  STACK: 00 00 c6 11 d1 35
f933  a9 40    LDA #$40                        A:40 X:00 Y:5a P:e5 SP:f9  STACK: 00 00 c6 11 d1 35
f935  38       SEC                             A:40 X:00 Y:5a P:65 SP:f9  STACK: 00 00 c6 11 d1 35
f936  60       RTS                             A:40 X:00 Y:5a P:65 SP:f9  STACK: 00 00 c6 11 d1 35
d136  e1 80    SBC ($80,X) @ 80 = 0200 = 40    A:40 X:00 Y:5a P:65 SP:fb  STACK: 00 00 c6 11
d138  20 37 f9 JSR $f937 = 30                  A:40 X:00 Y:5a P:65 SP:fb  STACK: 00 00 c6 11
f937  30 0b    BMI $f944                       A:40 X:00 Y:5a P:65 SP:f9  STACK: 00 00 c6 11 d1 3a
f939  90 09    BCC $f944                       A:40 X:00 Y:5a P:65 SP:f9  STACK: 00 00 c6 11 d1 3a
f93b  d0 07    BNE $f944                       A:40 X:00 Y:5a P:65 SP:f9  STACK: 00 00 c6 11 d1 3a
f944  84 00    STY $00 = 5a                    A:40 X:00 Y:5a P:65 SP:f9  STACK: 00 00 c6 11 d1 3a
f946  60       RTS                             A:40 X:00 Y:5a P:65 SP:f9  STACK: 00 00 c6 11 d1 3a
d13b  c8       INY                             A:40 X:00 Y:5a P:65 SP:fb  STACK: 00 00 c6 11
d13c  a9 3f    LDA #$3f                        A:40 X:00 Y:5a P:65 SP:fb  STACK: 00 00 c6 11
d13e  8d 00 02 STA $0200 = 40                  A:3f X:00 Y:5a P:65 SP:fb  STACK: 00 00 c6 11
d141  20 47 f9 JSR $f947 = b8                  A:3f X:00 Y:5a P:65 SP:fb  STACK: 00 00 c6 11
f947  b8       CLV                             A:3f X:00 Y:5a P:65 SP:f9  STACK: 00 00 c6 11 d1 43
f948  38       SEC                             A:3f X:00 Y:5a P:25 SP:f9  STACK: 00 00 c6 11 d1 43
f949  a9 40    LDA #$40                        A:3f X:00 Y:5a P:25 SP:f9  STACK: 00 00 c6 11 d1 43
f94b  60       RTS                             A:40 X:00 Y:5a P:25 SP:f9  STACK: 00 00 c6 11 d1 43
d144  e1 80    SBC ($80,X) @ 80 = 0200 = 3f    A:40 X:00 Y:5a P:25 SP:fb  STACK: 00 00 c6 11
d146  20 4c f9 JSR $f94c = f0                  A:40 X:00 Y:5a P:25 SP:fb  STACK: 00 00 c6 11
f94c  f0 0b    BEQ $f959                       A:40 X:00 Y:5a P:25 SP:f9  STACK: 00 00 c6 11 d1 48
f94e  30 09    BMI $f959                       A:40 X:00 Y:5a P:25 SP:f9  STACK: 00 00 c6 11 d1 48
f950  90 07    BCC $f959                       A:40 X:00 Y:5a P:25 SP:f9  STACK: 00 00 c6 11 d1 48
f952  70 05    BVS $f959                       A:40 X:00 Y:5a P:25 SP:f9  STACK: 00 00 c6 11 d1 48
f954  c9 01    CMP #$01                        A:40 X:00 Y:5a P:25 SP:f9  STACK: 00 00 c6 11 d1 48
f956  d0 01    BNE $f959                       A:40 X:00 Y:5a P:25 SP:f9  STACK: 00 00 c6 11 d1 48
f959  84 00    STY $00 = 5a                    A:40 X:00 Y:5a P:25 SP:f9  STACK: 00 00 c6 11 d1 48
f95b  60       RTS                             A:40 X:00 Y:5a P:25 SP:f9  STACK: 00 00 c6 11 d1 48
d149  c8       INY                             A:40 X:00 Y:5a P:25 SP:fb  STACK: 00 00 c6 11
d14a  a9 41    LDA #$41                        A:40 X:00 Y:5a P:25 SP:fb  STACK: 00 00 c6 11
d14c  8d 00 02 STA $0200 = 3f                  A:41 X:00 Y:5a P:25 SP:fb  STACK: 00 00 c6 11
d14f  20 5c f9 JSR $f95c = a9                  A:41 X:00 Y:5a P:25 SP:fb  STACK: 00 00 c6 11
f95c  a9 40    LDA #$40                        A:41 X:00 Y:5a P:25 SP:f9  STACK: 00 00 c6 11 d1 51
f95e  38       SEC                             A:40 X:00 Y:5a P:25 SP:f9  STACK: 00 00 c6 11 d1 51
f95f  24 01    BIT $01 = ff                    A:40 X:00 Y:5a P:25 SP:f9  STACK: 00 00 c6 11 d1 51
f961  60       RTS                             A:40 X:00 Y:5a P:e5 SP:f9  STACK: 00 00 c6 11 d1 51
d152  e1 80    SBC ($80,X) @ 80 = 0200 = 41    A:40 X:00 Y:5a P:e5 SP:fb  STACK: 00 00 c6 11
d154  20 62 f9 JSR $f962 = b0                  A:40 X:00 Y:5a P:e5 SP:fb  STACK: 00 00 c6 11
f962  b0 0b    BCS $f96f                       A:40 X:00 Y:5a P:e5 SP:f9  STACK: 00 00 c6 11 d1 56
f96f  84 00    STY $00 = 5a                    A:40 X:00 Y:5a P:e5 SP:f9  STACK: 00 00 c6 11 d1 56
f971  60       RTS                             A:40 X:00 Y:5a P:e5 SP:f9  STACK: 00 00 c6 11 d1 56
d157  c8       INY                             A:40 X:00 Y:5a P:e5 SP:fb  STACK: 00 00 c6 11
d158  a9 00    LDA #$00                        A:40 X:00 Y:5a P:e5 SP:fb  STACK: 00 00 c6 11
d15a  8d 00 02 STA $0200 = 41                  A:00 X:00 Y:5a P:67 SP:fb  STACK: 00 00 c6 11
d15d  20 72 f9 JSR $f972 = 18                  A:00 X:00 Y:5a P:67 SP:fb  STACK: 00 00 c6 11
f972  18       CLC                             A:00 X:00 Y:5a P:67 SP:f9  STACK: 00 00 c6 11 d1 5f
f973  a9 80    LDA #$80                        A:00 X:00 Y:5a P:66 SP:f9  STACK: 00 00 c6 11 d1 5f
f975  60       RTS                             A:80 X:00 Y:5a P:e4 SP:f9  STACK: 00 00 c6 11 d1 5f
d160  e1 80    SBC ($80,X) @ 80 = 0200 = 00    A:80 X:00 Y:5a P:e4 SP:fb  STACK: 00 00 c6 11
d162  20 76 f9 JSR $f976 = 90                  A:80 X:00 Y:5a P:e4 SP:fb  STACK: 00 00 c6 11
f976  90 05    BCC $f97d                       A:80 X:00 Y:5a P:e4 SP:f9  STACK: 00 00 c6 11 d1 64
f97d  84 00    STY $00 = 5a                    A:80 X:00 Y:5a P:e4 SP:f9  STACK: 00 00 c6 11 d1 64
f97f  60       RTS                             A:80 X:00 Y:5a P:e4 SP:f9  STACK: 00 00 c6 11 d1 64
d165  c8       INY                             A:80 X:00 Y:5a P:e4 SP:fb  STACK: 00 00 c6 11
d166  a9 7f    LDA #$7f                        A:80 X:00 Y:5a P:e4 SP:fb  STACK: 00 00 c6 11
d168  8d 00 02 STA $0200 = 00                  A:7f X:00 Y:5a P:64 SP:fb  STACK: 00 00 c6 11
d16b  20 80 f9 JSR $f980 = 38                  A:7f X:00 Y:5a P:64 SP:fb  STACK: 00 00 c6 11
f980  38       SEC                             A:7f X:00 Y:5a P:64 SP:f9  STACK: 00 00 c6 11 d1 6d
f981  a9 81    LDA #$81                        A:7f X:00 Y:5a P:65 SP:f9  STACK: 00 00 c6 11 d1 6d
f983  60       RTS                             A:81 X:00 Y:5a P:e5 SP:f9  STACK: 00 00 c6 11 d1 6d
d16e  e1 80    SBC ($80,X) @ 80 = 0200 = 7f    A:81 X:00 Y:5a P:e5 SP:fb  STACK: 00 00 c6 11
d170  20 84 f9 JSR $f984 = 50                  A:81 X:00 Y:5a P:e5 SP:fb  STACK: 00 00 c6 11
f984  50 07    BVC $f98d                       A:81 X:00 Y:5a P:e5 SP:f9  STACK: 00 00 c6 11 d1 72
f986  90 05    BCC $f98d                       A:81 X:00 Y:5a P:e5 SP:f9  STACK: 00 00 c6 11 d1 72
f988  c9 02    CMP #$02                        A:81 X:00 Y:5a P:e5 SP:f9  STACK: 00 00 c6 11 d1 72
f98a  d0 01    BNE $f98d                       A:81 X:00 Y:5a P:65 SP:f9  STACK: 00 00 c6 11 d1 72
f98d  84 00    STY $00 = 5a                    A:81 X:00 Y:5a P:65 SP:f9  STACK: 00 00 c6 11 d1 72
f98f  60       RTS                             A:81 X:00 Y:5a P:65 SP:f9  STACK: 00 00 c6 11 d1 72
d173  60       RTS                             A:81 X:00 Y:5a P:65 SP:fb  STACK: 00 00 c6 11
c612  20 74 d1 JSR $d174 = a9                  A:81 X:00 Y:5a P:65 SP:fd  STACK: 00 00
d174  a9 55    LDA #$55                        A:81 X:00 Y:5a P:65 SP:fb  STACK: 00 00 c6 14
d176  85 78    STA $78 = 00                    A:55 X:00 Y:5a P:65 SP:fb  STACK: 00 00 c6 14
d178  a9 ff    LDA #$ff                        A:55 X:00 Y:5a P:65 SP:fb  STACK: 00 00 c6 14
d17a  85 01    STA $01 = ff                    A:ff X:00 Y:5a P:e5 SP:fb  STACK: 00 00 c6 14
d17c  24 01    BIT $01 = ff                    A:ff X:00 Y:5a P:e5 SP:fb  STACK: 00 00 c6 14
d17e  a0 11    LDY #$11                        A:ff X:00 Y:5a P:e5 SP:fb  STACK: 00 00 c6 14
d180  a2 23    LDX #$23                        A:ff X:00 Y:11 P:65 SP:fb  STACK: 00 00 c6 14
d182  a9 00    LDA #$00                        A:ff X:23 Y:11 P:65 SP:fb  STACK: 00 00 c6 14
d184  a5 78    LDA $78 = 55                    A:00 X:23 Y:11 P:67 SP:fb  STACK: 00 00 c6 14
d186  f0 10    BEQ $d198                       A:55 X:23 Y:11 P:65 SP:fb  STACK: 00 00 c6 14
d188  30 0e    BMI $d198                       A:55 X:23 Y:11 P:65 SP:fb  STACK: 00 00 c6 14
d18a  c9 55    CMP #$55                        A:55 X:23 Y:11 P:65 SP:fb  STACK: 00 00 c6 14
d18c  d0 0a    BNE $d198                       A:55 X:23 Y:11 P:67 SP:fb  STACK: 00 00 c6 14
d18e  c0 11    CPY #$11                        A:55 X:23 Y:11 P:67 SP:fb  STACK: 00 00 c6 14
d190  d0 06    BNE $d198                       A:55 X:23 Y:11 P:67 SP:fb  STACK: 00 00 c6 14
d192  e0 23    CPX #$23                        A:55 X:23 Y:11 P:67 SP:fb  STACK: 00 00 c6 14
d194  50 02    BVC $d198                       A:55 X:23 Y:11 P:67 SP:fb  STACK: 00 00 c6 14
d196  f0 04    BEQ $d19c                       A:55 X:23 Y:11 P:67 SP:fb  STACK: 00 00 c6 14
d19c  a9 46    LDA #$46                        A:55 X:23 Y:11 P:67 SP:fb  STACK: 00 00 c6 14
d19e  24 01    BIT $01 = ff                    A:46 X:23 Y:11 P:65 SP:fb  STACK: 00 00 c6 14
d1a0  85 78    STA $78 = 55                    A:46 X:23 Y:11 P:e5 SP:fb  STACK: 00 00 c6 14
d1a2  f0 0a    BEQ $d1ae                       A:46 X:23 Y:11 P:e5 SP:fb  STACK: 00 00 c6 14
d1a4  10 08    BPL $d1ae                       A:46 X:23 Y:11 P:e5 SP:fb  STACK: 00 00 c6 14
d1a6  50 06    BVC $d1ae                       A:46 X:23 Y:11 P:e5 SP:fb  STACK: 00 00 c6 14
d1a8  a5 78    LDA $78 = 46                    A:46 X:23 Y:11 P:e5 SP:fb  STACK: 00 00 c6 14
d1aa  c9 46    CMP #$46                        A:46 X:23 Y:11 P:65 SP:fb  STACK: 00 00 c6 14
d1ac  f0 04    BEQ $d1b2                       A:46 X:23 Y:11 P:67 SP:fb  STACK: 00 00 c6 14
d1b2  a9 55    LDA #$55                        A:46 X:23 Y:11 P:67 SP:fb  STACK: 00 00 c6 14
d1b4  85 78    STA $78 = 46                    A:55 X:23 Y:11 P:65 SP:fb  STACK: 00 00 c6 14
d1b6  24 01    BIT $01 = ff                    A:55 X:23 Y:11 P:65 SP:fb  STACK: 00 00 c6 14
d1b8  a9 11    LDA #$11                        A:55 X:23 Y:11 P:e5 SP:fb  STACK: 00 00 c6 14
d1ba  a2 23    LDX #$23                        A:11 X:23 Y:11 P:65 SP:fb  STACK: 00 00 c6 14
d1bc  a0 00    LDY #$00                        A:11 X:23 Y:11 P:65 SP:fb  STACK: 00 00 c6 14
d1be  a4 78    LDY $78 = 55                    A:11 X:23 Y:00 P:67 SP:fb  STACK: 00 00 c6 14
d1c0  f0 10    BEQ $d1d2                       A:11 X:23 Y:55 P:65 SP:fb  STACK: 00 00 c6 14
d1c2  30 0e    BMI $d1d2                       A:11 X:23 Y:55 P:65 SP:fb  STACK: 00 00 c6 14
d1c4  c0 55    CPY #$55                        A:11 X:23 Y:55 P:65 SP:fb  STACK: 00 00 c6 14
d1c6  d0 0a    BNE $d1d2                       A:11 X:23 Y:55 P:67 SP:fb  STACK: 00 00 c6 14
d1c8  c9 11    CMP #$11                        A:11 X:23 Y:55 P:67 SP:fb  STACK: 00 00 c6 14
d1ca  d0 06    BNE $d1d2                       A:11 X:23 Y:55 P:67 SP:fb  STACK: 00 00 c6 14
d1cc  e0 23    CPX #$23                        A:11 X:23 Y:55 P:67 SP:fb  STACK: 00 00 c6 14
d1ce  50 02    BVC $d1d2                       A:11 X:23 Y:55 P:67 SP:fb  STACK: 00 00 c6 14
d1d0  f0 04    BEQ $d1d6                       A:11 X:23 Y:55 P:67 SP:fb  STACK: 00 00 c6 14
d1d6  a0 46    LDY #$46                        A:11 X:23 Y:55 P:67 SP:fb  STACK: 00 00 c6 14
d1d8  24 01    BIT $01 = ff                    A:11 X:23 Y:46 P:65 SP:fb  STACK: 00 00 c6 14
d1da  84 78    STY $78 = 55                    A:11 X:23 Y:46 P:e5 SP:fb  STACK: 00 00 c6 14
d1dc  f0 0a    BEQ $d1e8                       A:11 X:23 Y:46 P:e5 SP:fb  STACK: 00 00 c6 14
d1de  10 08    BPL $d1e8                       A:11 X:23 Y:46 P:e5 SP:fb  STACK: 00 00 c6 14
d1e0  50 06    BVC $d1e8                       A:11 X:23 Y:46 P:e5 SP:fb  STACK: 00 00 c6 14
d1e2  a4 78    LDY $78 = 46                    A:11 X:23 Y:46 P:e5 SP:fb  STACK: 00 00 c6 14
d1e4  c0 46    CPY #$46                        A:11 X:23 Y:46 P:65 SP:fb  STACK: 00 00 c6 14
d1e6  f0 04    BEQ $d1ec                       A:11 X:23 Y:46 P:67 SP:fb  STACK: 00 00 c6 14
d1ec  24 01    BIT $01 = ff                    A:11 X:23 Y:46 P:67 SP:fb  STACK: 00 00 c6 14
d1ee  a9 55    LDA #$55                        A:11 X:23 Y:46 P:e5 SP:fb  STACK: 00 00 c6 14
d1f0  85 78    STA $78 = 46                    A:55 X:23 Y:46 P:65 SP:fb  STACK: 00 00 c6 14
d1f2  a0 11    LDY #$11                        A:55 X:23 Y:46 P:65 SP:fb  STACK: 00 00 c6 14
d1f4  a9 23    LDA #$23                        A:55 X:23 Y:11 P:65 SP:fb  STACK: 00 00 c6 14
d1f6  a2 00    LDX #$00                        A:23 X:23 Y:11 P:65 SP:fb  STACK: 00 00 c6 14
d1f8  a6 78    LDX $78 = 55                    A:23 X:00 Y:11 P:67 SP:fb  STACK: 00 00 c6 14
d1fa  f0 10    BEQ $d20c                       A:23 X:55 Y:11 P:65 SP:fb  STACK: 00 00 c6 14
d1fc  30 0e    BMI $d20c                       A:23 X:55 Y:11 P:65 SP:fb  STACK: 00 00 c6 14
d1fe  e0 55    CPX #$55                        A:23 X:55 Y:11 P:65 SP:fb  STACK: 00 00 c6 14
d200  d0 0a    BNE $d20c                       A:23 X:55 Y:11 P:67 SP:fb  STACK: 00 00 c6 14
d202  c0 11    CPY #$11                        A:23 X:55 Y:11 P:67 SP:fb  STACK: 00 00 c6 14
d204  d0 06    BNE $d20c                       A:23 X:55 Y:11 P:67 SP:fb  STACK: 00 00 c6 14
d206  c9 23    CMP #$23                        A:23 X:55 Y:11 P:67 SP:fb  STACK: 00 00 c6 14
d208  50 02    BVC $d20c                       A:23 X:55 Y:11 P:67 SP:fb  STACK: 00 00 c6 14
d20a  f0 04    BEQ $d210                       A:23 X:55 Y:11 P:67 SP:fb  STACK: 00 00 c6 14
d210  a2 46    LDX #$46                        A:23 X:55 Y:11 P:67 SP:fb  STACK: 00 00 c6 14
d212  24 01    BIT $01 = ff                    A:23 X:46 Y:11 P:65 SP:fb  STACK: 00 00 c6 14
d214  86 78    STX $78 = 55                    A:23 X:46 Y:11 P:e5 SP:fb  STACK: 00 00 c6 14
d216  f0 0a    BEQ $d222                       A:23 X:46 Y:11 P:e5 SP:fb  STACK: 00 00 c6 14
d218  10 08    BPL $d222                       A:23 X:46 Y:11 P:e5 SP:fb  STACK: 00 00 c6 14
d21a  50 06    BVC $d222                       A:23 X:46 Y:11 P:e5 SP:fb  STACK: 00 00 c6 14
d21c  a6 78    LDX $78 = 46                    A:23 X:46 Y:11 P:e5 SP:fb  STACK: 00 00 c6 14
d21e  e0 46    CPX #$46                        A:23 X:46 Y:11 P:65 SP:fb  STACK: 00 00 c6 14
d220  f0 04    BEQ $d226                       A:23 X:46 Y:11 P:67 SP:fb  STACK: 00 00 c6 14
d226  a9 c0    LDA #$c0                        A:23 X:46 Y:11 P:67 SP:fb  STACK: 00 00 c6 14
d228  85 78    STA $78 = 46                    A:c0 X:46 Y:11 P:e5 SP:fb  STACK: 00 00 c6 14
d22a  a2 33    LDX #$33                        A:c0 X:46 Y:11 P:e5 SP:fb  STACK: 00 00 c6 14
d22c  a0 88    LDY #$88                        A:c0 X:33 Y:11 P:65 SP:fb  STACK: 00 00 c6 14
d22e  a9 05    LDA #$05                        A:c0 X:33 Y:88 P:e5 SP:fb  STACK: 00 00 c6 14
d230  24 78    BIT $78 = c0                    A:05 X:33 Y:88 P:65 SP:fb  STACK: 00 00 c6 14
d232  10 10    BPL $d244                       A:05 X:33 Y:88 P:e7 SP:fb  STACK: 00 00 c6 14
d234  50 0e    BVC $d244                       A:05 X:33 Y:88 P:e7 SP:fb  STACK: 00 00 c6 14
d236  d0 0c    BNE $d244                       A:05 X:33 Y:88 P:e7 SP:fb  STACK: 00 00 c6 14
d238  c9 05    CMP #$05                        A:05 X:33 Y:88 P:e7 SP:fb  STACK: 00 00 c6 14
d23a  d0 08    BNE $d244                       A:05 X:33 Y:88 P:67 SP:fb  STACK: 00 00 c6 14
d23c  e0 33    CPX #$33                        A:05 X:33 Y:88 P:67 SP:fb  STACK: 00 00 c6 14
d23e  d0 04    BNE $d244                       A:05 X:33 Y:88 P:67 SP:fb  STACK: 00 00 c6 14
d240  c0 88    CPY #$88                        A:05 X:33 Y:88 P:67 SP:fb  STACK: 00 00 c6 14
d242  f0 04    BEQ $d248                       A:05 X:33 Y:88 P:67 SP:fb  STACK: 00 00 c6 14
d248  a9 03    LDA #$03                        A:05 X:33 Y:88 P:67 SP:fb  STACK: 00 00 c6 14
d24a  85 78    STA $78 = c0                    A:03 X:33 Y:88 P:65 SP:fb  STACK: 00 00 c6 14
d24c  a9 01    LDA #$01                        A:03 X:33 Y:88 P:65 SP:fb  STACK: 00 00 c6 14
d24e  24 78    BIT $78 = 03                    A:01 X:33 Y:88 P:65 SP:fb  STACK: 00 00 c6 14
d250  30 08    BMI $d25a                       A:01 X:33 Y:88 P:25 SP:fb  STACK: 00 00 c6 14
d252  70 06    BVS $d25a                       A:01 X:33 Y:88 P:25 SP:fb  STACK: 00 00 c6 14
d254  f0 04    BEQ $d25a                       A:01 X:33 Y:88 P:25 SP:fb  STACK: 00 00 c6 14
d256  c9 01    CMP #$01                        A:01 X:33 Y:88 P:25 SP:fb  STACK: 00 00 c6 14
d258  f0 04    BEQ $d25e                       A:01 X:33 Y:88 P:27 SP:fb  STACK: 00 00 c6 14
d25e  a0 7e    LDY #$7e                        A:01 X:33 Y:88 P:27 SP:fb  STACK: 00 00 c6 14
d260  a9 aa    LDA #$aa                        A:01 X:33 Y:7e P:25 SP:fb  STACK: 00 00 c6 14
d262  85 78    STA $78 = 03                    A:aa X:33 Y:7e P:a5 SP:fb  STACK: 00 00 c6 14
d264  20 b6 f7 JSR $f7b6 = 18                  A:aa X:33 Y:7e P:a5 SP:fb  STACK: 00 00 c6 14
f7b6  18       CLC                             A:aa X:33 Y:7e P:a5 SP:f9  STACK: 00 00 c6 14 d2 66
f7b7  a9 ff    LDA #$ff                        A:aa X:33 Y:7e P:a4 SP:f9  STACK: 00 00 c6 14 d2 66
f7b9  85 01    STA $01 = ff                    A:ff X:33 Y:7e P:a4 SP:f9  STACK: 00 00 c6 14 d2 66
f7bb  24 01    BIT $01 = ff                    A:ff X:33 Y:7e P:a4 SP:f9  STACK: 00 00 c6 14 d2 66
f7bd  a9 55    LDA #$55                        A:ff X:33 Y:7e P:e4 SP:f9  STACK: 00 00 c6 14 d2 66
f7bf  60       RTS                             A:55 X:33 Y:7e P:64 SP:f9  STACK: 00 00 c6 14 d2 66
d267  05 78    ORA $78 = aa                    A:55 X:33 Y:7e P:64 SP:fb  STACK: 00 00 c6 14
d269  20 c0 f7 JSR $f7c0 = b0                  A:ff X:33 Y:7e P:e4 SP:fb  STACK: 00 00 c6 14
f7c0  b0 09    BCS $f7cb                       A:ff X:33 Y:7e P:e4 SP:f9  STACK: 00 00 c6 14 d2 6b
f7c2  10 07    BPL $f7cb                       A:ff X:33 Y:7e P:e4 SP:f9  STACK: 00 00 c6 14 d2 6b
f7c4  c9 ff    CMP #$ff                        A:ff X:33 Y:7e P:e4 SP:f9  STACK: 00 00 c6 14 d2 6b
f7c6  d0 03    BNE $f7cb                       A:ff X:33 Y:7e P:67 SP:f9  STACK: 00 00 c6 14 d2 6b
f7c8  50 01    BVC $f7cb                       A:ff X:33 Y:7e P:67 SP:f9  STACK: 00 00 c6 14 d2 6b
f7ca  60       RTS                             A:ff X:33 Y:7e P:67 SP:f9  STACK: 00 00 c6 14 d2 6b
d26c  c8       INY                             A:ff X:33 Y:7e P:67 SP:fb  STACK: 00 00 c6 14
d26d  a9 00    LDA #$00                        A:ff X:33 Y:7e P:67 SP:fb  STACK: 00 00 c6 14
d26f  85 78    STA $78 = aa                    A:00 X:33 Y:7e P:67 SP:fb  STACK: 00 00 c6 14
d271  20 ce f7 JSR $f7ce = 38                  A:00 X:33 Y:7e P:67 SP:fb  STACK: 00 00 c6 14
f7ce  38       SEC                             A:00 X:33 Y:7e P:67 SP:f9  STACK: 00 00 c6 14 d2 73
f7cf  b8       CLV                             A:00 X:33 Y:7e P:67 SP:f9  STACK: 00 00 c6 14 d2 73
f7d0  a9 00    LDA #$00                        A:00 X:33 Y:7e P:27 SP:f9  STACK: 00 00 c6 14 d2 73
f7d2  60       RTS                             A:00 X:33 Y:7e P:27 SP:f9  STACK: 00 00 c6 14 d2 73
d274  05 78    ORA $78 = 00                    A:00 X:33 Y:7e P:27 SP:fb  STACK: 00 00 c6 14
d276  20 d3 f7 JSR $f7d3 = d0                  A:00 X:33 Y:7e P:27 SP:fb  STACK: 00 00 c6 14
f7d3  d0 07    BNE $f7dc                       A:00 X:33 Y:7e P:27 SP:f9  STACK: 00 00 c6 14 d2 78
f7d5  70 05    BVS $f7dc                       A:00 X:33 Y:7e P:27 SP:f9  STACK: 00 00 c6 14 d2 78
f7d7  90 03    BCC $f7dc                       A:00 X:33 Y:7e P:27 SP:f9  STACK: 00 00 c6 14 d2 78
f7d9  30 01    BMI $f7dc                       A:00 X:33 Y:7e P:27 SP:f9  STACK: 00 00 c6 14 d2 78
f7db  60       RTS                             A:00 X:33 Y:7e P:27 SP:f9  STACK: 00 00 c6 14 d2 78
d279  c8       INY                             A:00 X:33 Y:7e P:27 SP:fb  STACK: 00 00 c6 14
d27a  a9 aa    LDA #$aa                        A:00 X:33 Y:7e P:27 SP:fb  STACK: 00 00 c6 14
d27c  85 78    STA $78 = 00                    A:aa X:33 Y:7e P:a5 SP:fb  STACK: 00 00 c6 14
d27e  20 df f7 JSR $f7df = 18                  A:aa X:33 Y:7e P:a5 SP:fb  STACK: 00 00 c6 14
f7df  18       CLC                             A:aa X:33 Y:7e P:a5 SP:f9  STACK: 00 00 c6 14 d2 80
f7e0  24 01    BIT $01 = ff                    A:aa X:33 Y:7e P:a4 SP:f9  STACK: 00 00 c6 14 d2 80
f7e2  a9 55    LDA #$55                        A:aa X:33 Y:7e P:e4 SP:f9  STACK: 00 00 c6 14 d2 80
f7e4  60       RTS                             A:55 X:33 Y:7e P:64 SP:f9  STACK: 00 00 c6 14 d2 80
d281  25 78    AND $78 = aa                    A:55 X:33 Y:7e P:64 SP:fb  STACK: 00 00 c6 14
d283  20 e5 f7 JSR $f7e5 = d0                  A:00 X:33 Y:7e P:66 SP:fb  STACK: 00 00 c6 14
f7e5  d0 07    BNE $f7ee                       A:00 X:33 Y:7e P:66 SP:f9  STACK: 00 00 c6 14 d2 85
f7e7  50 05    BVC $f7ee                       A:00 X:33 Y:7e P:66 SP:f9  STACK: 00 00 c6 14 d2 85
f7e9  b0 03    BCS $f7ee                       A:00 X:33 Y:7e P:66 SP:f9  STACK: 00 00 c6 14 d2 85
f7eb  30 01    BMI $f7ee                       A:00 X:33 Y:7e P:66 SP:f9  STACK: 00 00 c6 14 d2 85
f7ed  60       RTS                             A:00 X:33 Y:7e P:66 SP:f9  STACK: 00 00 c6 14 d2 85
d286  c8       INY                             A:00 X:33 Y:7e P:66 SP:fb  STACK: 00 00 c6 14
d287  a9 ef    LDA #$ef                        A:00 X:33 Y:7e P:66 SP:fb  STACK: 00 00 c6 14
d289  85 78    STA $78 = aa                    A:ef X:33 Y:7e P:e4 SP:fb  STACK: 00 00 c6 14
d28b  20 f1 f7 JSR $f7f1 = 38                  A:ef X:33 Y:7e P:e4 SP:fb  STACK: 00 00 c6 14
f7f1  38       SEC                             A:ef X:33 Y:7e P:e4 SP:f9  STACK: 00 00 c6 14 d2 8d
f7f2  b8       CLV                             A:ef X:33 Y:7e P:e5 SP:f9  STACK: 00 00 c6 14 d2 8d
f7f3  a9 f8    LDA #$f8                        A:ef X:33 Y:7e P:a5 SP:f9  STACK: 00 00 c6 14 d2 8d
f7f5  60       RTS                             A:f8 X:33 Y:7e P:a5 SP:f9  STACK: 00 00 c6 14 d2 8d
d28e  25 78    AND $78 = ef                    A:f8 X:33 Y:7e P:a5 SP:fb  STACK: 00 00 c6 14
d290  20 f6 f7 JSR $f7f6 = 90                  A:e8 X:33 Y:7e P:a5 SP:fb  STACK: 00 00 c6 14
f7f6  90 09    BCC $f801                       A:e8 X:33 Y:7e P:a5 SP:f9  STACK: 00 00 c6 14 d2 92
f7f8  10 07    BPL $f801                       A:e8 X:33 Y:7e P:a5 SP:f9  STACK: 00 00 c6 14 d2 92
f7fa  c9 e8    CMP #$e8                        A:e8 X:33 Y:7e P:a5 SP:f9  STACK: 00 00 c6 14 d2 92
f7fc  d0 03    BNE $f801                       A:e8 X:33 Y:7e P:27 SP:f9  STACK: 00 00 c6 14 d2 92
f7fe  70 01    BVS $f801                       A:e8 X:33 Y:7e P:27 SP:f9  STACK: 00 00 c6 14 d2 92
f800  60       RTS                             A:e8 X:33 Y:7e P:27 SP:f9  STACK: 00 00 c6 14 d2 92
d293  c8       INY                             A:e8 X:33 Y:7e P:27 SP:fb  STACK: 00 00 c6 14
d294  a9 aa    LDA #$aa                        A:e8 X:33 Y:7e P:27 SP:fb  STACK: 00 00 c6 14
d296  85 78    STA $78 = ef                    A:aa X:33 Y:7e P:a5 SP:fb  STACK: 00 00 c6 14
d298  20 04 f8 JSR $f804 = 18                  A:aa X:33 Y:7e P:a5 SP:fb  STACK: 00 00 c6 14
f804  18       CLC                             A:aa X:33 Y:7e P:a5 SP:f9  STACK: 00 00 c6 14 d2 9a
f805  24 01    BIT $01 = ff                    A:aa X:33 Y:7e P:a4 SP:f9  STACK: 00 00 c6 14 d2 9a
f807  a9 5f    LDA #$5f                        A:aa X:33 Y:7e P:e4 SP:f9  STACK: 00 00 c6 14 d2 9a
f809  60       RTS                             A:5f X:33 Y:7e P:64 SP:f9  STACK: 00 00 c6 14 d2 9a
d29b  45 78    EOR $78 = aa                    A:5f X:33 Y:7e P:64 SP:fb  STACK: 00 00 c6 14
d29d  20 0a f8 JSR $f80a = b0                  A:f5 X:33 Y:7e P:e4 SP:fb  STACK: 00 00 c6 14
f80a  b0 09    BCS $f815                       A:f5 X:33 Y:7e P:e4 SP:f9  STACK: 00 00 c6 14 d2 9f
f80c  10 07    BPL $f815                       A:f5 X:33 Y:7e P:e4 SP:f9  STACK: 00 00 c6 14 d2 9f
f80e  c9 f5    CMP #$f5                        A:f5 X:33 Y:7e P:e4 SP:f9  STACK: 00 00 c6 14 d2 9f
f810  d0 03    BNE $f815                       A:f5 X:33 Y:7e P:67 SP:f9  STACK: 00 00 c6 14 d2 9f
f812  50 01    BVC $f815                       A:f5 X:33 Y:7e P:67 SP:f9  STACK: 00 00 c6 14 d2 9f
f814  60       RTS                             A:f5 X:33 Y:7e P:67 SP:f9  STACK: 00 00 c6 14 d2 9f
d2a0  c8       INY                             A:f5 X:33 Y:7e P:67 SP:fb  STACK: 00 00 c6 14
d2a1  a9 70    LDA #$70                        A:f5 X:33 Y:7e P:67 SP:fb  STACK: 00 00 c6 14
d2a3  85 78    STA $78 = aa                    A:70 X:33 Y:7e P:65 SP:fb  STACK: 00 00 c6 14
d2a5  20 18 f8 JSR $f818 = 38                  A:70 X:33 Y:7e P:65 SP:fb  STACK: 00 00 c6 14
f818  38       SEC                             A:70 X:33 Y:7e P:65 SP:f9  STACK: 00 00 c6 14 d2 a7
f819  b8       CLV                             A:70 X:33 Y:7e P:65 SP:f9  STACK: 00 00 c6 14 d2 a7
f81a  a9 70    LDA #$70                        A:70 X:33 Y:7e P:25 SP:f9  STACK: 00 00 c6 14 d2 a7
f81c  60       RTS                             A:70 X:33 Y:7e P:25 SP:f9  STACK: 00 00 c6 14 d2 a7
d2a8  45 78    EOR $78 = 70                    A:70 X:33 Y:7e P:25 SP:fb  STACK: 00 00 c6 14
d2aa  20 1d f8 JSR $f81d = d0                  A:00 X:33 Y:7e P:27 SP:fb  STACK: 00 00 c6 14
f81d  d0 07    BNE $f826                       A:00 X:33 Y:7e P:27 SP:f9  STACK: 00 00 c6 14 d2 ac
f81f  70 05    BVS $f826                       A:00 X:33 Y:7e P:27 SP:f9  STACK: 00 00 c6 14 d2 ac
f821  90 03    BCC $f826                       A:00 X:33 Y:7e P:27 SP:f9  STACK: 00 00 c6 14 d2 ac
f823  30 01    BMI $f826                       A:00 X:33 Y:7e P:27 SP:f9  STACK: 00 00 c6 14 d2 ac
f825  60       RTS                             A:00 X:33 Y:7e P:27 SP:f9  STACK: 00 00 c6 14 d2 ac
d2ad  c8       INY                             A:00 X:33 Y:7e P:27 SP:fb  STACK: 00 00 c6 14
d2ae  a9 69    LDA #$69                        A:00 X:33 Y:7e P:27 SP:fb  STACK: 00 00 c6 14
d2b0  85 78    STA $78 = 70                    A:69 X:33 Y:7e P:25 SP:fb  STACK: 00 00 c6 14
d2b2  20 29 f8 JSR $f829 = 18                  A:69 X:33 Y:7e P:25 SP:fb  STACK: 00 00 c6 14
f829  18       CLC                             A:69 X:33 Y:7e P:25 SP:f9  STACK: 00 00 c6 14 d2 b4
f82a  24 01    BIT $01 = ff                    A:69 X:33 Y:7e P:24 SP:f9  STACK: 00 00 c6 14 d2 b4
f82c  a9 00    LDA #$00                        A:69 X:33 Y:7e P:e4 SP:f9  STACK: 00 00 c6 14 d2 b4
f82e  60       RTS                             A:00 X:33 Y:7e P:66 SP:f9  STACK: 00 00 c6 14 d2 b4
d2b5  65 78    ADC $78 = 69                    A:00 X:33 Y:7e P:66 SP:fb  STACK: 00 00 c6 14
d2b7  20 2f f8 JSR $f82f = 30                  A:69 X:33 Y:7e P:a4 SP:fb  STACK: 00 00 c6 14
f82f  30 09    BMI $f83a                       A:69 X:33 Y:7e P:a4 SP:f9  STACK: 00 00 c6 14 d2 b9
f83a  84 00    STY $00 = 5a                    A:69 X:33 Y:7e P:a4 SP:f9  STACK: 00 00 c6 14 d2 b9
f83c  60       RTS                             A:69 X:33 Y:7e P:a4 SP:f9  STACK: 00 00 c6 14 d2 b9
d2ba  c8       INY                             A:69 X:33 Y:7e P:a4 SP:fb  STACK: 00 00 c6 14
d2bb  20 3d f8 JSR $f83d = 38                  A:69 X:33 Y:7e P:a4 SP:fb  STACK: 00 00 c6 14
f83d  38       SEC                             A:69 X:33 Y:7e P:a4 SP:f9  STACK: 00 00 c6 14 d2 bd
f83e  24 01    BIT $01 = ff                    A:69 X:33 Y:7e P:a5 SP:f9  STACK: 00 00 c6 14 d2 bd
f840  a9 00    LDA #$00                        A:69 X:33 Y:7e P:e5 SP:f9  STACK: 00 00 c6 14 d2 bd
f842  60       RTS                             A:00 X:33 Y:7e P:67 SP:f9  STACK: 00 00 c6 14 d2 bd
d2be  65 78    ADC $78 = 69                    A:00 X:33 Y:7e P:67 SP:fb  STACK: 00 00 c6 14
d2c0  20 43 f8 JSR $f843 = 30                  A:69 X:33 Y:7e P:a4 SP:fb  STACK: 00 00 c6 14
f843  30 09    BMI $f84e                       A:69 X:33 Y:7e P:a4 SP:f9  STACK: 00 00 c6 14 d2 c2
f84e  84 00    STY $00 = 7e                    A:69 X:33 Y:7e P:a4 SP:f9  STACK: 00 00 c6 14 d2 c2
f850  60       RTS                             A:69 X:33 Y:7e P:a4 SP:f9  STACK: 00 00 c6 14 d2 c2
d2c3  c8       INY                             A:69 X:33 Y:7e P:a4 SP:fb  STACK: 00 00 c6 14
d2c4  a9 7f    LDA #$7f                        A:69 X:33 Y:7e P:a4 SP:fb  STACK: 00 00 c6 14
d2c6  85 78    STA $78 = 69                    A:7f X:33 Y:7e P:24 SP:fb  STACK: 00 00 c6 14
d2c8  20 51 f8 JSR $f851 = 38                  A:7f X:33 Y:7e P:24 SP:fb  STACK: 00 00 c6 14
f851  38       SEC                             A:7f X:33 Y:7e P:24 SP:f9  STACK: 00 00 c6 14 d2 ca
f852  b8       CLV                             A:7f X:33 Y:7e P:25 SP:f9  STACK: 00 00 c6 14 d2 ca
f853  a9 7f    LDA #$7f                        A:7f X:33 Y:7e P:25 SP:f9  STACK: 00 00 c6 14 d2 ca
f855  60       RTS                             A:7f X:33 Y:7e P:25 SP:f9  STACK: 00 00 c6 14 d2 ca
d2cb  65 78    ADC $78 = 7f                    A:7f X:33 Y:7e P:25 SP:fb  STACK: 00 00 c6 14
d2cd  20 56 f8 JSR $f856 = 10                  A:fe X:33 Y:7e P:64 SP:fb  STACK: 00 00 c6 14
f856  10 09    BPL $f861                       A:fe X:33 Y:7e P:64 SP:f9  STACK: 00 00 c6 14 d2 cf
f861  84 00    STY $00 = 7e                    A:fe X:33 Y:7e P:64 SP:f9  STACK: 00 00 c6 14 d2 cf
f863  60       RTS                             A:fe X:33 Y:7e P:64 SP:f9  STACK: 00 00 c6 14 d2 cf
d2d0  c8       INY                             A:fe X:33 Y:7e P:64 SP:fb  STACK: 00 00 c6 14
d2d1  a9 80    LDA #$80                        A:fe X:33 Y:7e P:64 SP:fb  STACK: 00 00 c6 14
d2d3  85 78    STA $78 = 7f                    A:80 X:33 Y:7e P:e4 SP:fb  STACK: 00 00 c6 14
d2d5  20 64 f8 JSR $f864 = 18                  A:80 X:33 Y:7e P:e4 SP:fb  STACK: 00 00 c6 14
f864  18       CLC                             A:80 X:33 Y:7e P:e4 SP:f9  STACK: 00 00 c6 14 d2 d7
f865  24 01    BIT $01 = ff                    A:80 X:33 Y:7e P:e4 SP:f9  STACK: 00 00 c6 14 d2 d7
f867  a9 7f    LDA #$7f                        A:80 X:33 Y:7e P:e4 SP:f9  STACK: 00 00 c6 14 d2 d7
f869  60       RTS                             A:7f X:33 Y:7e P:64 SP:f9  STACK: 00 00 c6 14 d2 d7
d2d8  65 78    ADC $78 = 80                    A:7f X:33 Y:7e P:64 SP:fb  STACK: 00 00 c6 14
d2da  20 6a f8 JSR $f86a = 10                  A:ff X:33 Y:7e P:24 SP:fb  STACK: 00 00 c6 14
f86a  10 09    BPL $f875                       A:ff X:33 Y:7e P:24 SP:f9  STACK: 00 00 c6 14 d2 dc
f875  84 00    STY $00 = 7e                    A:ff X:33 Y:7e P:24 SP:f9  STACK: 00 00 c6 14 d2 dc
f877  60       RTS                             A:ff X:33 Y:7e P:24 SP:f9  STACK: 00 00 c6 14 d2 dc
d2dd  c8       INY                             A:ff X:33 Y:7e P:24 SP:fb  STACK: 00 00 c6 14
d2de  20 78 f8 JSR $f878 = 38                  A:ff X:33 Y:7e P:24 SP:fb  STACK: 00 00 c6 14
f878  38       SEC                             A:ff X:33 Y:7e P:24 SP:f9  STACK: 00 00 c6 14 d2 e0
f879  b8       CLV                             A:ff X:33 Y:7e P:25 SP:f9  STACK: 00 00 c6 14 d2 e0
f87a  a9 7f    LDA #$7f                        A:ff X:33 Y:7e P:25 SP:f9  STACK: 00 00 c6 14 d2 e0
f87c  60       RTS                             A:7f X:33 Y:7e P:25 SP:f9  STACK: 00 00 c6 14 d2 e0
d2e1  65 78    ADC $78 = 80                    A:7f X:33 Y:7e P:25 SP:fb  STACK: 00 00 c6 14
d2e3  20 7d f8 JSR $f87d = d0                  A:ff X:33 Y:7e P:24 SP:fb  STACK: 00 00 c6 14
f87d  d0 07    BNE $f886                       A:ff X:33 Y:7e P:24 SP:f9  STACK: 00 00 c6 14 d2 e5
f886  84 00    STY $00 = 7e                    A:ff X:33 Y:7e P:24 SP:f9  STACK: 00 00 c6 14 d2 e5
f888  60       RTS                             A:ff X:33 Y:7e P:24 SP:f9  STACK: 00 00 c6 14 d2 e5
d2e6  c8       INY                             A:ff X:33 Y:7e P:24 SP:fb  STACK: 00 00 c6 14
d2e7  a9 40    LDA #$40                        A:ff X:33 Y:7e P:24 SP:fb  STACK: 00 00 c6 14
d2e9  85 78    STA $78 = 80                    A:40 X:33 Y:7e P:24 SP:fb  STACK: 00 00 c6 14
d2eb  20 89 f8 JSR $f889 = 24                  A:40 X:33 Y:7e P:24 SP:fb  STACK: 00 00 c6 14
f889  24 01    BIT $01 = ff                    A:40 X:33 Y:7e P:24 SP:f9  STACK: 00 00 c6 14 d2 ed
f88b  a9 40    LDA #$40                        A:40 X:33 Y:7e P:e4 SP:f9  STACK: 00 00 c6 14 d2 ed
f88d  60       RTS                             A:40 X:33 Y:7e P:64 SP:f9  STACK: 00 00 c6 14 d2 ed
d2ee  c5 78    CMP $78 = 40                    A:40 X:33 Y:7e P:64 SP:fb  STACK: 00 00 c6 14
d2f0  20 8e f8 JSR $f88e = 30                  A:40 X:33 Y:7e P:67 SP:fb  STACK: 00 00 c6 14
f88e  30 07    BMI $f897                       A:40 X:33 Y:7e P:67 SP:f9  STACK: 00 00 c6 14 d2 f2
f890  90 05    BCC $f897                       A:40 X:33 Y:7e P:67 SP:f9  STACK: 00 00 c6 14 d2 f2
f892  d0 03    BNE $f897                       A:40 X:33 Y:7e P:67 SP:f9  STACK: 00 00 c6 14 d2 f2
f894  50 01    BVC $f897                       A:40 X:33 Y:7e P:67 SP:f9  STACK: 00 00 c6 14 d2 f2
f896  60       RTS                             A:40 X:33 Y:7e P:67 SP:f9  STACK: 00 00 c6 14 d2 f2
d2f3  c8       INY                             A:40 X:33 Y:7e P:67 SP:fb  STACK: 00 00 c6 14
d2f4  48       PHA                             A:40 X:33 Y:7e P:67 SP:fb  STACK: 00 00 c6 14
d2f5  a9 3f    LDA #$3f                        A:40 X:33 Y:7e P:67 SP:fa  STACK: 00 00 c6 14 40
d2f7  85 78    STA $78 = 40                    A:3f X:33 Y:7e P:65 SP:fa  STACK: 00 00 c6 14 40
d2f9  68       PLA                             A:3f X:33 Y:7e P:65 SP:fa  STACK: 00 00 c6 14 40
d2fa  20 9a f8 JSR $f89a = b8                  A:40 X:33 Y:7e P:65 SP:fb  STACK: 00 00 c6 14
f89a  b8       CLV                             A:40 X:33 Y:7e P:65 SP:f9  STACK: 00 00 c6 14 d2 fc
f89b  60       RTS                             A:40 X:33 Y:7e P:25 SP:f9  STACK: 00 00 c6 14 d2 fc
d2fd  c5 78    CMP $78 = 3f                    A:40 X:33 Y:7e P:25 SP:fb  STACK: 00 00 c6 14
d2ff  20 9c f8 JSR $f89c = f0                  A:40 X:33 Y:7e P:25 SP:fb  STACK: 00 00 c6 14
f89c  f0 07    BEQ $f8a5                       A:40 X:33 Y:7e P:25 SP:f9  STACK: 00 00 c6 14 d3 01
f89e  30 05    BMI $f8a5                       A:40 X:33 Y:7e P:25 SP:f9  STACK: 00 00 c6 14 d3 01
f8a0  90 03    BCC $f8a5                       A:40 X:33 Y:7e P:25 SP:f9  STACK: 00 00 c6 14 d3 01
f8a2  70 01    BVS $f8a5                       A:40 X:33 Y:7e P:25 SP:f9  STACK: 00 00 c6 14 d3 01
f8a4  60       RTS                             A:40 X:33 Y:7e P:25 SP:f9  STACK: 00 00 c6 14 d3 01
d302  c8       INY                             A:40 X:33 Y:7e P:25 SP:fb  STACK: 00 00 c6 14
d303  48       PHA                             A:40 X:33 Y:7e P:25 SP:fb  STACK: 00 00 c6 14
d304  a9 41    LDA #$41                        A:40 X:33 Y:7e P:25 SP:fa  STACK: 00 00 c6 14 40
d306  85 78    STA $78 = 3f                    A:41 X:33 Y:7e P:25 SP:fa  STACK: 00 00 c6 14 40
d308  68       PLA                             A:41 X:33 Y:7e P:25 SP:fa  STACK: 00 00 c6 14 40
d309  c5 78    CMP $78 = 41                    A:40 X:33 Y:7e P:25 SP:fb  STACK: 00 00 c6 14
d30b  20 a8 f8 JSR $f8a8 = f0                  A:40 X:33 Y:7e P:a4 SP:fb  STACK: 00 00 c6 14
f8a8  f0 05    BEQ $f8af                       A:40 X:33 Y:7e P:a4 SP:f9  STACK: 00 00 c6 14 d3 0d
f8aa  10 03    BPL $f8af                       A:40 X:33 Y:7e P:a4 SP:f9  STACK: 00 00 c6 14 d3 0d
f8ac  10 01    BPL $f8af                       A:40 X:33 Y:7e P:a4 SP:f9  STACK: 00 00 c6 14 d3 0d
f8ae  60       RTS                             A:40 X:33 Y:7e P:a4 SP:f9  STACK: 00 00 c6 14 d3 0d
d30e  c8       INY                             A:40 X:33 Y:7e P:a4 SP:fb  STACK: 00 00 c6 14
d30f  48       PHA                             A:40 X:33 Y:7e P:a4 SP:fb  STACK: 00 00 c6 14
d310  a9 00    LDA #$00                        A:40 X:33 Y:7e P:a4 SP:fa  STACK: 00 00 c6 14 40
d312  85 78    STA $78 = 41                    A:00 X:33 Y:7e P:26 SP:fa  STACK: 00 00 c6 14 40
d314  68       PLA                             A:00 X:33 Y:7e P:26 SP:fa  STACK: 00 00 c6 14 40
d315  20 b2 f8 JSR $f8b2 = a9                  A:40 X:33 Y:7e P:24 SP:fb  STACK: 00 00 c6 14
f8b2  a9 80    LDA #$80                        A:40 X:33 Y:7e P:24 SP:f9  STACK: 00 00 c6 14 d3 17
f8b4  60       RTS                             A:80 X:33 Y:7e P:a4 SP:f9  STACK: 00 00 c6 14 d3 17
d318  c5 78    CMP $78 = 00                    A:80 X:33 Y:7e P:a4 SP:fb  STACK: 00 00 c6 14
d31a  20 b5 f8 JSR $f8b5 = f0                  A:80 X:33 Y:7e P:a5 SP:fb  STACK: 00 00 c6 14
f8b5  f0 05    BEQ $f8bc                       A:80 X:33 Y:7e P:a5 SP:f9  STACK: 00 00 c6 14 d3 1c
f8b7  10 03    BPL $f8bc                       A:80 X:33 Y:7e P:a5 SP:f9  STACK: 00 00 c6 14 d3 1c
f8b9  90 01    BCC $f8bc                       A:80 X:33 Y:7e P:a5 SP:f9  STACK: 00 00 c6 14 d3 1c
f8bb  60       RTS                             A:80 X:33 Y:7e P:a5 SP:f9  STACK: 00 00 c6 14 d3 1c
d31d  c8       INY                             A:80 X:33 Y:7e P:a5 SP:fb  STACK: 00 00 c6 14
d31e  48       PHA                             A:80 X:33 Y:7e P:a5 SP:fb  STACK: 00 00 c6 14
d31f  a9 80    LDA #$80                        A:80 X:33 Y:7e P:a5 SP:fa  STACK: 00 00 c6 14 80
d321  85 78    STA $78 = 00                    A:80 X:33 Y:7e P:a5 SP:fa  STACK: 00 00 c6 14 80
d323  68       PLA                             A:80 X:33 Y:7e P:a5 SP:fa  STACK: 00 00 c6 14 80
d324  c5 78    CMP $78 = 80                    A:80 X:33 Y:7e P:a5 SP:fb  STACK: 00 00 c6 14
d326  20 bf f8 JSR $f8bf = d0                  A:80 X:33 Y:7e P:27 SP:fb  STACK: 00 00 c6 14
f8bf  d0 05    BNE $f8c6                       A:80 X:33 Y:7e P:27 SP:f9  STACK: 00 00 c6 14 d3 28
f8c1  30 03    BMI $f8c6                       A:80 X:33 Y:7e P:27 SP:f9  STACK: 00 00 c6 14 d3 28
f8c3  90 01    BCC $f8c6                       A:80 X:33 Y:7e P:27 SP:f9  STACK: 00 00 c6 14 d3 28
f8c5  60       RTS                             A:80 X:33 Y:7e P:27 SP:f9  STACK: 00 00 c6 14 d3 28
d329  c8       INY                             A:80 X:33 Y:7e P:27 SP:fb  STACK: 00 00 c6 14
d32a  48       PHA                             A:80 X:33 Y:7e P:27 SP:fb  STACK: 00 00 c6 14
d32b  a9 81    LDA #$81                        A:80 X:33 Y:7e P:27 SP:fa  STACK: 00 00 c6 14 80
d32d  85 78    STA $78 = 80                    A:81 X:33 Y:7e P:a5 SP:fa  STACK: 00 00 c6 14 80
d32f  68       PLA                             A:81 X:33 Y:7e P:a5 SP:fa  STACK: 00 00 c6 14 80
d330  c5 78    CMP $78 = 81                    A:80 X:33 Y:7e P:a5 SP:fb  STACK: 00 00 c6 14
d332  20 c9 f8 JSR $f8c9 = b0                  A:80 X:33 Y:7e P:a4 SP:fb  STACK: 00 00 c6 14
f8c9  b0 05    BCS $f8d0                       A:80 X:33 Y:7e P:a4 SP:f9  STACK: 00 00 c6 14 d3 34
f8cb  f0 03    BEQ $f8d0                       A:80 X:33 Y:7e P:a4 SP:f9  STACK: 00 00 c6 14 d3 34
f8cd  10 01    BPL $f8d0                       A:80 X:33 Y:7e P:a4 SP:f9  STACK: 00 00 c6 14 d3 34
f8cf  60       RTS                             A:80 X:33 Y:7e P:a4 SP:f9  STACK: 00 00 c6 14 d3 34
d335  c8       INY                             A:80 X:33 Y:7e P:a4 SP:fb  STACK: 00 00 c6 14
d336  48       PHA                             A:80 X:33 Y:7e P:a4 SP:fb  STACK: 00 00 c6 14
d337  a9 7f    LDA #$7f                        A:80 X:33 Y:7e P:a4 SP:fa  STACK: 00 00 c6 14 80
d339  85 78    STA $78 = 81                    A:7f X:33 Y:7e P:24 SP:fa  STACK: 00 00 c6 14 80
d33b  68       PLA                             A:7f X:33 Y:7e P:24 SP:fa  STACK: 00 00 c6 14 80
d33c  c5 78    CMP $78 = 7f                    A:80 X:33 Y:7e P:a4 SP:fb  STACK: 00 00 c6 14
d33e  20 d3 f8 JSR $f8d3 = 90                  A:80 X:33 Y:7e P:25 SP:fb  STACK: 00 00 c6 14
f8d3  90 05    BCC $f8da                       A:80 X:33 Y:7e P:25 SP:f9  STACK: 00 00 c6 14 d3 40
f8d5  f0 03    BEQ $f8da                       A:80 X:33 Y:7e P:25 SP:f9  STACK: 00 00 c6 14 d3 40
f8d7  30 01    BMI $f8da                       A:80 X:33 Y:7e P:25 SP:f9  STACK: 00 00 c6 14 d3 40
f8d9  60       RTS                             A:80 X:33 Y:7e P:25 SP:f9  STACK: 00 00 c6 14 d3 40
d341  c8       INY                             A:80 X:33 Y:7e P:25 SP:fb  STACK: 00 00 c6 14
d342  a9 40    LDA #$40                        A:80 X:33 Y:7e P:25 SP:fb  STACK: 00 00 c6 14
d344  85 78    STA $78 = 7f                    A:40 X:33 Y:7e P:25 SP:fb  STACK: 00 00 c6 14
d346  20 31 f9 JSR $f931 = 24                  A:40 X:33 Y:7e P:25 SP:fb  STACK: 00 00 c6 14
f931  24 01    BIT $01 = ff                    A:40 X:33 Y:7e P:25 SP:f9  STACK: 00 00 c6 14 d3 48
f933  a9 40    LDA #$40                        A:40 X:33 Y:7e P:e5 SP:f9  STACK: 00 00 c6 14 d3 48
f935  38       SEC                             A:40 X:33 Y:7e P:65 SP:f9  STACK: 00 00 c6 14 d3 48
f936  60       RTS                             A:40 X:33 Y:7e P:65 SP:f9  STACK: 00 00 c6 14 d3 48
d349  e5 78    SBC $78 = 40                    A:40 X:33 Y:7e P:65 SP:fb  STACK: 00 00 c6 14
d34b  20 37 f9 JSR $f937 = 30                  A:40 X:33 Y:7e P:65 SP:fb  STACK: 00 00 c6 14
f937  30 0b    BMI $f944                       A:40 X:33 Y:7e P:65 SP:f9  STACK: 00 00 c6 14 d3 4d
f939  90 09    BCC $f944                       A:40 X:33 Y:7e P:65 SP:f9  STACK: 00 00 c6 14 d3 4d
f93b  d0 07    BNE $f944                       A:40 X:33 Y:7e P:65 SP:f9  STACK: 00 00 c6 14 d3 4d
f944  84 00    STY $00 = 7e                    A:40 X:33 Y:7e P:65 SP:f9  STACK: 00 00 c6 14 d3 4d
f946  60       RTS                             A:40 X:33 Y:7e P:65 SP:f9  STACK: 00 00 c6 14 d3 4d
d34e  c8       INY                             A:40 X:33 Y:7e P:65 SP:fb  STACK: 00 00 c6 14
d34f  a9 3f    LDA #$3f                        A:40 X:33 Y:7e P:65 SP:fb  STACK: 00 00 c6 14
d351  85 78    STA $78 = 40                    A:3f X:33 Y:7e P:65 SP:fb  STACK: 00 00 c6 14
d353  20 47 f9 JSR $f947 = b8                  A:3f X:33 Y:7e P:65 SP:fb  STACK: 00 00 c6 14
f947  b8       CLV                             A:3f X:33 Y:7e P:65 SP:f9  STACK: 00 00 c6 14 d3 55
f948  38       SEC                             A:3f X:33 Y:7e P:25 SP:f9  STACK: 00 00 c6 14 d3 55
f949  a9 40    LDA #$40                        A:3f X:33 Y:7e P:25 SP:f9  STACK: 00 00 c6 14 d3 55
f94b  60       RTS                             A:40 X:33 Y:7e P:25 SP:f9  STACK: 00 00 c6 14 d3 55
d356  e5 78    SBC $78 = 3f                    A:40 X:33 Y:7e P:25 SP:fb  STACK: 00 00 c6 14
d358  20 4c f9 JSR $f94c = f0                  A:40 X:33 Y:7e P:25 SP:fb  STACK: 00 00 c6 14
f94c  f0 0b    BEQ $f959                       A:40 X:33 Y:7e P:25 SP:f9  STACK: 00 00 c6 14 d3 5a
f94e  30 09    BMI $f959                       A:40 X:33 Y:7e P:25 SP:f9  STACK: 00 00 c6 14 d3 5a
f950  90 07    BCC $f959                       A:40 X:33 Y:7e P:25 SP:f9  STACK: 00 00 c6 14 d3 5a
f952  70 05    BVS $f959                       A:40 X:33 Y:7e P:25 SP:f9  STACK: 00 00 c6 14 d3 5a
f954  c9 01    CMP #$01                        A:40 X:33 Y:7e P:25 SP:f9  STACK: 00 00 c6 14 d3 5a
f956  d0 01    BNE $f959                       A:40 X:33 Y:7e P:25 SP:f9  STACK: 00 00 c6 14 d3 5a
f959  84 00    STY $00 = 7e                    A:40 X:33 Y:7e P:25 SP:f9  STACK: 00 00 c6 14 d3 5a
f95b  60       RTS                             A:40 X:33 Y:7e P:25 SP:f9  STACK: 00 00 c6 14 d3 5a
d35b  c8       INY                             A:40 X:33 Y:7e P:25 SP:fb  STACK: 00 00 c6 14
d35c  a9 41    LDA #$41                        A:40 X:33 Y:7e P:25 SP:fb  STACK: 00 00 c6 14
d35e  85 78    STA $78 = 3f                    A:41 X:33 Y:7e P:25 SP:fb  STACK: 00 00 c6 14
d360  20 5c f9 JSR $f95c = a9                  A:41 X:33 Y:7e P:25 SP:fb  STACK: 00 00 c6 14
f95c  a9 40    LDA #$40                        A:41 X:33 Y:7e P:25 SP:f9  STACK: 00 00 c6 14 d3 62
f95e  38       SEC                             A:40 X:33 Y:7e P:25 SP:f9  STACK: 00 00 c6 14 d3 62
f95f  24 01    BIT $01 = ff                    A:40 X:33 Y:7e P:25 SP:f9  STACK: 00 00 c6 14 d3 62
f961  60       RTS                             A:40 X:33 Y:7e P:e5 SP:f9  STACK: 00 00 c6 14 d3 62
d363  e5 78    SBC $78 = 41                    A:40 X:33 Y:7e P:e5 SP:fb  STACK: 00 00 c6 14
d365  20 62 f9 JSR $f962 = b0                  A:40 X:33 Y:7e P:e5 SP:fb  STACK: 00 00 c6 14
f962  b0 0b    BCS $f96f                       A:40 X:33 Y:7e P:e5 SP:f9  STACK: 00 00 c6 14 d3 67
f96f  84 00    STY $00 = 7e                    A:40 X:33 Y:7e P:e5 SP:f9  STACK: 00 00 c6 14 d3 67
f971  60       RTS                             A:40 X:33 Y:7e P:e5 SP:f9  STACK: 00 00 c6 14 d3 67
d368  c8       INY                             A:40 X:33 Y:7e P:e5 SP:fb  STACK: 00 00 c6 14
d369  a9 00    LDA #$00                        A:40 X:33 Y:7e P:e5 SP:fb  STACK: 00 00 c6 14
d36b  85 78    STA $78 = 41                    A:00 X:33 Y:7e P:67 SP:fb  STACK: 00 00 c6 14
d36d  20 72 f9 JSR $f972 = 18                  A:00 X:33 Y:7e P:67 SP:fb  STACK: 00 00 c6 14
f972  18       CLC                             A:00 X:33 Y:7e P:67 SP:f9  STACK: 00 00 c6 14 d3 6f
f973  a9 80    LDA #$80                        A:00 X:33 Y:7e P:66 SP:f9  STACK: 00 00 c6 14 d3 6f
f975  60       RTS                             A:80 X:33 Y:7e P:e4 SP:f9  STACK: 00 00 c6 14 d3 6f
d370  e5 78    SBC $78 = 00                    A:80 X:33 Y:7e P:e4 SP:fb  STACK: 00 00 c6 14
d372  20 76 f9 JSR $f976 = 90                  A:80 X:33 Y:7e P:e4 SP:fb  STACK: 00 00 c6 14
f976  90 05    BCC $f97d                       A:80 X:33 Y:7e P:e4 SP:f9  STACK: 00 00 c6 14 d3 74
f97d  84 00    STY $00 = 7e                    A:80 X:33 Y:7e P:e4 SP:f9  STACK: 00 00 c6 14 d3 74
f97f  60       RTS                             A:80 X:33 Y:7e P:e4 SP:f9  STACK: 00 00 c6 14 d3 74
d375  c8       INY                             A:80 X:33 Y:7e P:e4 SP:fb  STACK: 00 00 c6 14
d376  a9 7f    LDA #$7f                        A:80 X:33 Y:7e P:e4 SP:fb  STACK: 00 00 c6 14
d378  85 78    STA $78 = 00                    A:7f X:33 Y:7e P:64 SP:fb  STACK: 00 00 c6 14
d37a  20 80 f9 JSR $f980 = 38                  A:7f X:33 Y:7e P:64 SP:fb  STACK: 00 00 c6 14
f980  38       SEC                             A:7f X:33 Y:7e P:64 SP:f9  STACK: 00 00 c6 14 d3 7c
f981  a9 81    LDA #$81                        A:7f X:33 Y:7e P:65 SP:f9  STACK: 00 00 c6 14 d3 7c
f983  60       RTS                             A:81 X:33 Y:7e P:e5 SP:f9  STACK: 00 00 c6 14 d3 7c
d37d  e5 78    SBC $78 = 7f                    A:81 X:33 Y:7e P:e5 SP:fb  STACK: 00 00 c6 14
d37f  20 84 f9 JSR $f984 = 50                  A:81 X:33 Y:7e P:e5 SP:fb  STACK: 00 00 c6 14
f984  50 07    BVC $f98d                       A:81 X:33 Y:7e P:e5 SP:f9  STACK: 00 00 c6 14 d3 81
f986  90 05    BCC $f98d                       A:81 X:33 Y:7e P:e5 SP:f9  STACK: 00 00 c6 14 d3 81
f988  c9 02    CMP #$02                        A:81 X:33 Y:7e P:e5 SP:f9  STACK: 00 00 c6 14 d3 81
f98a  d0 01    BNE $f98d                       A:81 X:33 Y:7e P:65 SP:f9  STACK: 00 00 c6 14 d3 81
f98d  84 00    STY $00 = 7e                    A:81 X:33 Y:7e P:65 SP:f9  STACK: 00 00 c6 14 d3 81
f98f  60       RTS                             A:81 X:33 Y:7e P:65 SP:f9  STACK: 00 00 c6 14 d3 81
d382  c8       INY                             A:81 X:33 Y:7e P:65 SP:fb  STACK: 00 00 c6 14
d383  a9 40    LDA #$40                        A:81 X:33 Y:7e P:65 SP:fb  STACK: 00 00 c6 14
d385  85 78    STA $78 = 7f                    A:40 X:33 Y:7e P:65 SP:fb  STACK: 00 00 c6 14
d387  20 89 f8 JSR $f889 = 24                  A:40 X:33 Y:7e P:65 SP:fb  STACK: 00 00 c6 14
f889  24 01    BIT $01 = ff                    A:40 X:33 Y:7e P:65 SP:f9  STACK: 00 00 c6 14 d3 89
f88b  a9 40    LDA #$40                        A:40 X:33 Y:7e P:e5 SP:f9  STACK: 00 00 c6 14 d3 89
f88d  60       RTS                             A:40 X:33 Y:7e P:65 SP:f9  STACK: 00 00 c6 14 d3 89
d38a  aa       TAX                             A:40 X:33 Y:7e P:65 SP:fb  STACK: 00 00 c6 14
d38b  e4 78    CPX $78 = 40                    A:40 X:40 Y:7e P:65 SP:fb  STACK: 00 00 c6 14
d38d  20 8e f8 JSR $f88e = 30                  A:40 X:40 Y:7e P:67 SP:fb  STACK: 00 00 c6 14
f88e  30 07    BMI $f897                       A:40 X:40 Y:7e P:67 SP:f9  STACK: 00 00 c6 14 d3 8f
f890  90 05    BCC $f897                       A:40 X:40 Y:7e P:67 SP:f9  STACK: 00 00 c6 14 d3 8f
f892  d0 03    BNE $f897                       A:40 X:40 Y:7e P:67 SP:f9  STACK: 00 00 c6 14 d3 8f
f894  50 01    BVC $f897                       A:40 X:40 Y:7e P:67 SP:f9  STACK: 00 00 c6 14 d3 8f
f896  60       RTS                             A:40 X:40 Y:7e P:67 SP:f9  STACK: 00 00 c6 14 d3 8f
d390  c8       INY                             A:40 X:40 Y:7e P:67 SP:fb  STACK: 00 00 c6 14
d391  a9 3f    LDA #$3f                        A:40 X:40 Y:7e P:67 SP:fb  STACK: 00 00 c6 14
d393  85 78    STA $78 = 40                    A:3f X:40 Y:7e P:65 SP:fb  STACK: 00 00 c6 14
d395  20 9a f8 JSR $f89a = b8                  A:3f X:40 Y:7e P:65 SP:fb  STACK: 00 00 c6 14
f89a  b8       CLV                             A:3f X:40 Y:7e P:65 SP:f9  STACK: 00 00 c6 14 d3 97
f89b  60       RTS                             A:3f X:40 Y:7e P:25 SP:f9  STACK: 00 00 c6 14 d3 97
d398  e4 78    CPX $78 = 3f                    A:3f X:40 Y:7e P:25 SP:fb  STACK: 00 00 c6 14
d39a  20 9c f8 JSR $f89c = f0                  A:3f X:40 Y:7e P:25 SP:fb  STACK: 00 00 c6 14
f89c  f0 07    BEQ $f8a5                       A:3f X:40 Y:7e P:25 SP:f9  STACK: 00 00 c6 14 d3 9c
f89e  30 05    BMI $f8a5                       A:3f X:40 Y:7e P:25 SP:f9  STACK: 00 00 c6 14 d3 9c
f8a0  90 03    BCC $f8a5                       A:3f X:40 Y:7e P:25 SP:f9  STACK: 00 00 c6 14 d3 9c
f8a2  70 01    BVS $f8a5                       A:3f X:40 Y:7e P:25 SP:f9  STACK: 00 00 c6 14 d3 9c
f8a4  60       RTS                             A:3f X:40 Y:7e P:25 SP:f9  STACK: 00 00 c6 14 d3 9c
d39d  c8       INY                             A:3f X:40 Y:7e P:25 SP:fb  STACK: 00 00 c6 14
d39e  a9 41    LDA #$41                        A:3f X:40 Y:7e P:25 SP:fb  STACK: 00 00 c6 14
d3a0  85 78    STA $78 = 3f                    A:41 X:40 Y:7e P:25 SP:fb  STACK: 00 00 c6 14
d3a2  e4 78    CPX $78 = 41                    A:41 X:40 Y:7e P:25 SP:fb  STACK: 00 00 c6 14
d3a4  20 a8 f8 JSR $f8a8 = f0                  A:41 X:40 Y:7e P:a4 SP:fb  STACK: 00 00 c6 14
f8a8  f0 05    BEQ $f8af                       A:41 X:40 Y:7e P:a4 SP:f9  STACK: 00 00 c6 14 d3 a6
f8aa  10 03    BPL $f8af                       A:41 X:40 Y:7e P:a4 SP:f9  STACK: 00 00 c6 14 d3 a6
f8ac  10 01    BPL $f8af                       A:41 X:40 Y:7e P:a4 SP:f9  STACK: 00 00 c6 14 d3 a6
f8ae  60       RTS                             A:41 X:40 Y:7e P:a4 SP:f9  STACK: 00 00 c6 14 d3 a6
d3a7  c8       INY                             A:41 X:40 Y:7e P:a4 SP:fb  STACK: 00 00 c6 14
d3a8  a9 00    LDA #$00                        A:41 X:40 Y:7e P:a4 SP:fb  STACK: 00 00 c6 14
d3aa  85 78    STA $78 = 41                    A:00 X:40 Y:7e P:26 SP:fb  STACK: 00 00 c6 14
d3ac  20 b2 f8 JSR $f8b2 = a9                  A:00 X:40 Y:7e P:26 SP:fb  STACK: 00 00 c6 14
f8b2  a9 80    LDA #$80                        A:00 X:40 Y:7e P:26 SP:f9  STACK: 00 00 c6 14 d3 ae
f8b4  60       RTS                             A:80 X:40 Y:7e P:a4 SP:f9  STACK: 00 00 c6 14 d3 ae
d3af  aa       TAX                             A:80 X:40 Y:7e P:a4 SP:fb  STACK: 00 00 c6 14
d3b0  e4 78    CPX $78 = 00                    A:80 X:80 Y:7e P:a4 SP:fb  STACK: 00 00 c6 14
d3b2  20 b5 f8 JSR $f8b5 = f0                  A:80 X:80 Y:7e P:a5 SP:fb  STACK: 00 00 c6 14
f8b5  f0 05    BEQ $f8bc                       A:80 X:80 Y:7e P:a5 SP:f9  STACK: 00 00 c6 14 d3 b4
f8b7  10 03    BPL $f8bc                       A:80 X:80 Y:7e P:a5 SP:f9  STACK: 00 00 c6 14 d3 b4
f8b9  90 01    BCC $f8bc                       A:80 X:80 Y:7e P:a5 SP:f9  STACK: 00 00 c6 14 d3 b4
f8bb  60       RTS                             A:80 X:80 Y:7e P:a5 SP:f9  STACK: 00 00 c6 14 d3 b4
d3b5  c8       INY                             A:80 X:80 Y:7e P:a5 SP:fb  STACK: 00 00 c6 14
d3b6  a9 80    LDA #$80                        A:80 X:80 Y:7e P:a5 SP:fb  STACK: 00 00 c6 14
d3b8  85 78    STA $78 = 00                    A:80 X:80 Y:7e P:a5 SP:fb  STACK: 00 00 c6 14
d3ba  e4 78    CPX $78 = 80                    A:80 X:80 Y:7e P:a5 SP:fb  STACK: 00 00 c6 14
d3bc  20 bf f8 JSR $f8bf = d0                  A:80 X:80 Y:7e P:27 SP:fb  STACK: 00 00 c6 14
f8bf  d0 05    BNE $f8c6                       A:80 X:80 Y:7e P:27 SP:f9  STACK: 00 00 c6 14 d3 be
f8c1  30 03    BMI $f8c6                       A:80 X:80 Y:7e P:27 SP:f9  STACK: 00 00 c6 14 d3 be
f8c3  90 01    BCC $f8c6                       A:80 X:80 Y:7e P:27 SP:f9  STACK: 00 00 c6 14 d3 be
f8c5  60       RTS                             A:80 X:80 Y:7e P:27 SP:f9  STACK: 00 00 c6 14 d3 be
d3bf  c8       INY                             A:80 X:80 Y:7e P:27 SP:fb  STACK: 00 00 c6 14
d3c0  a9 81    LDA #$81                        A:80 X:80 Y:7e P:27 SP:fb  STACK: 00 00 c6 14
d3c2  85 78    STA $78 = 80                    A:81 X:80 Y:7e P:a5 SP:fb  STACK: 00 00 c6 14
d3c4  e4 78    CPX $78 = 81                    A:81 X:80 Y:7e P:a5 SP:fb  STACK: 00 00 c6 14
d3c6  20 c9 f8 JSR $f8c9 = b0                  A:81 X:80 Y:7e P:a4 SP:fb  STACK: 00 00 c6 14
f8c9  b0 05    BCS $f8d0                       A:81 X:80 Y:7e P:a4 SP:f9  STACK: 00 00 c6 14 d3 c8
f8cb  f0 03    BEQ $f8d0                       A:81 X:80 Y:7e P:a4 SP:f9  STACK: 00 00 c6 14 d3 c8
f8cd  10 01    BPL $f8d0                       A:81 X:80 Y:7e P:a4 SP:f9  STACK: 00 00 c6 14 d3 c8
f8cf  60       RTS                             A:81 X:80 Y:7e P:a4 SP:f9  STACK: 00 00 c6 14 d3 c8
d3c9  c8       INY                             A:81 X:80 Y:7e P:a4 SP:fb  STACK: 00 00 c6 14
d3ca  a9 7f    LDA #$7f                        A:81 X:80 Y:7e P:a4 SP:fb  STACK: 00 00 c6 14
d3cc  85 78    STA $78 = 81                    A:7f X:80 Y:7e P:24 SP:fb  STACK: 00 00 c6 14
d3ce  e4 78    CPX $78 = 7f                    A:7f X:80 Y:7e P:24 SP:fb  STACK: 00 00 c6 14
d3d0  20 d3 f8 JSR $f8d3 = 90                  A:7f X:80 Y:7e P:25 SP:fb  STACK: 00 00 c6 14
f8d3  90 05    BCC $f8da                       A:7f X:80 Y:7e P:25 SP:f9  STACK: 00 00 c6 14 d3 d2
f8d5  f0 03    BEQ $f8da                       A:7f X:80 Y:7e P:25 SP:f9  STACK: 00 00 c6 14 d3 d2
f8d7  30 01    BMI $f8da                       A:7f X:80 Y:7e P:25 SP:f9  STACK: 00 00 c6 14 d3 d2
f8d9  60       RTS                             A:7f X:80 Y:7e P:25 SP:f9  STACK: 00 00 c6 14 d3 d2
d3d3  c8       INY                             A:7f X:80 Y:7e P:25 SP:fb  STACK: 00 00 c6 14
d3d4  98       TYA                             A:7f X:80 Y:7e P:25 SP:fb  STACK: 00 00 c6 14
d3d5  aa       TAX                             A:7e X:80 Y:7e P:25 SP:fb  STACK: 00 00 c6 14
d3d6  a9 40    LDA #$40                        A:7e X:7e Y:7e P:25 SP:fb  STACK: 00 00 c6 14
d3d8  85 78    STA $78 = 7f                    A:40 X:7e Y:7e P:25 SP:fb  STACK: 00 00 c6 14
d3da  20 dd f8 JSR $f8dd = 24                  A:40 X:7e Y:7e P:25 SP:fb  STACK: 00 00 c6 14
f8dd  24 01    BIT $01 = ff                    A:40 X:7e Y:7e P:25 SP:f9  STACK: 00 00 c6 14 d3 dc
f8df  a0 40    LDY #$40                        A:40 X:7e Y:7e P:e5 SP:f9  STACK: 00 00 c6 14 d3 dc
f8e1  60       RTS                             A:40 X:7e Y:40 P:65 SP:f9  STACK: 00 00 c6 14 d3 dc
d3dd  c4 78    CPY $78 = 40                    A:40 X:7e Y:40 P:65 SP:fb  STACK: 00 00 c6 14
d3df  20 e2 f8 JSR $f8e2 = 30                  A:40 X:7e Y:40 P:67 SP:fb  STACK: 00 00 c6 14
f8e2  30 07    BMI $f8eb                       A:40 X:7e Y:40 P:67 SP:f9  STACK: 00 00 c6 14 d3 e1
f8e4  90 05    BCC $f8eb                       A:40 X:7e Y:40 P:67 SP:f9  STACK: 00 00 c6 14 d3 e1
f8e6  d0 03    BNE $f8eb                       A:40 X:7e Y:40 P:67 SP:f9  STACK: 00 00 c6 14 d3 e1
f8e8  50 01    BVC $f8eb                       A:40 X:7e Y:40 P:67 SP:f9  STACK: 00 00 c6 14 d3 e1
f8ea  60       RTS                             A:40 X:7e Y:40 P:67 SP:f9  STACK: 00 00 c6 14 d3 e1
d3e2  e8       INX                             A:40 X:7e Y:40 P:67 SP:fb  STACK: 00 00 c6 14
d3e3  a9 3f    LDA #$3f                        A:40 X:7e Y:40 P:67 SP:fb  STACK: 00 00 c6 14
d3e5  85 78    STA $78 = 40                    A:3f X:7e Y:40 P:65 SP:fb  STACK: 00 00 c6 14
d3e7  20 ee f8 JSR $f8ee = b8                  A:3f X:7e Y:40 P:65 SP:fb  STACK: 00 00 c6 14
f8ee  b8       CLV                             A:3f X:7e Y:40 P:65 SP:f9  STACK: 00 00 c6 14 d3 e9
f8ef  60       RTS                             A:3f X:7e Y:40 P:25 SP:f9  STACK: 00 00 c6 14 d3 e9
d3ea  c4 78    CPY $78 = 3f                    A:3f X:7e Y:40 P:25 SP:fb  STACK: 00 00 c6 14
d3ec  20 f0 f8 JSR $f8f0 = f0                  A:3f X:7e Y:40 P:25 SP:fb  STACK: 00 00 c6 14
f8f0  f0 07    BEQ $f8f9                       A:3f X:7e Y:40 P:25 SP:f9  STACK: 00 00 c6 14 d3 ee
f8f2  30 05    BMI $f8f9                       A:3f X:7e Y:40 P:25 SP:f9  STACK: 00 00 c6 14 d3 ee
f8f4  90 03    BCC $f8f9                       A:3f X:7e Y:40 P:25 SP:f9  STACK: 00 00 c6 14 d3 ee
f8f6  70 01    BVS $f8f9                       A:3f X:7e Y:40 P:25 SP:f9  STACK: 00 00 c6 14 d3 ee
f8f8  60       RTS                             A:3f X:7e Y:40 P:25 SP:f9  STACK: 00 00 c6 14 d3 ee
d3ef  e8       INX                             A:3f X:7e Y:40 P:25 SP:fb  STACK: 00 00 c6 14
d3f0  a9 41    LDA #$41                        A:3f X:7e Y:40 P:25 SP:fb  STACK: 00 00 c6 14
d3f2  85 78    STA $78 = 3f                    A:41 X:7e Y:40 P:25 SP:fb  STACK: 00 00 c6 14
d3f4  c4 78    CPY $78 = 41                    A:41 X:7e Y:40 P:25 SP:fb  STACK: 00 00 c6 14
d3f6  20 fc f8 JSR $f8fc = f0                  A:41 X:7e Y:40 P:a4 SP:fb  STACK: 00 00 c6 14
f8fc  f0 05    BEQ $f903                       A:41 X:7e Y:40 P:a4 SP:f9  STACK: 00 00 c6 14 d3 f8
f8fe  10 03    BPL $f903                       A:41 X:7e Y:40 P:a4 SP:f9  STACK: 00 00 c6 14 d3 f8
f900  10 01    BPL $f903                       A:41 X:7e Y:40 P:a4 SP:f9  STACK: 00 00 c6 14 d3 f8
f902  60       RTS                             A:41 X:7e Y:40 P:a4 SP:f9  STACK: 00 00 c6 14 d3 f8
d3f9  e8       INX                             A:41 X:7e Y:40 P:a4 SP:fb  STACK: 00 00 c6 14
d3fa  a9 00    LDA #$00                        A:41 X:7e Y:40 P:a4 SP:fb  STACK: 00 00 c6 14
d3fc  85 78    STA $78 = 41                    A:00 X:7e Y:40 P:26 SP:fb  STACK: 00 00 c6 14
d3fe  20 06 f9 JSR $f906 = a0                  A:00 X:7e Y:40 P:26 SP:fb  STACK: 00 00 c6 14
f906  a0 80    LDY #$80                        A:00 X:7e Y:40 P:26 SP:f9  STACK: 00 00 c6 14 d4 00
f908  60       RTS                             A:00 X:7e Y:80 P:a4 SP:f9  STACK: 00 00 c6 14 d4 00
d401  c4 78    CPY $78 = 00                    A:00 X:7e Y:80 P:a4 SP:fb  STACK: 00 00 c6 14
d403  20 09 f9 JSR $f909 = f0                  A:00 X:7e Y:80 P:a5 SP:fb  STACK: 00 00 c6 14
f909  f0 05    BEQ $f910                       A:00 X:7e Y:80 P:a5 SP:f9  STACK: 00 00 c6 14 d4 05
f90b  10 03    BPL $f910                       A:00 X:7e Y:80 P:a5 SP:f9  STACK: 00 00 c6 14 d4 05
f90d  90 01    BCC $f910                       A:00 X:7e Y:80 P:a5 SP:f9  STACK: 00 00 c6 14 d4 05
f90f  60       RTS                             A:00 X:7e Y:80 P:a5 SP:f9  STACK: 00 00 c6 14 d4 05
d406  e8       INX                             A:00 X:7e Y:80 P:a5 SP:fb  STACK: 00 00 c6 14
d407  a9 80    LDA #$80                        A:00 X:7e Y:80 P:a5 SP:fb  STACK: 00 00 c6 14
d409  85 78    STA $78 = 00                    A:80 X:7e Y:80 P:a5 SP:fb  STACK: 00 00 c6 14
d40b  c4 78    CPY $78 = 80                    A:80 X:7e Y:80 P:a5 SP:fb  STACK: 00 00 c6 14
d40d  20 13 f9 JSR $f913 = d0                  A:80 X:7e Y:80 P:27 SP:fb  STACK: 00 00 c6 14
f913  d0 05    BNE $f91a                       A:80 X:7e Y:80 P:27 SP:f9  STACK: 00 00 c6 14 d4 0f
f915  30 03    BMI $f91a                       A:80 X:7e Y:80 P:27 SP:f9  STACK: 00 00 c6 14 d4 0f
f917  90 01    BCC $f91a                       A:80 X:7e Y:80 P:27 SP:f9  STACK: 00 00 c6 14 d4 0f
f919  60       RTS                             A:80 X:7e Y:80 P:27 SP:f9  STACK: 00 00 c6 14 d4 0f
d410  e8       INX                             A:80 X:7e Y:80 P:27 SP:fb  STACK: 00 00 c6 14
d411  a9 81    LDA #$81                        A:80 X:7e Y:80 P:27 SP:fb  STACK: 00 00 c6 14
d413  85 78    STA $78 = 80                    A:81 X:7e Y:80 P:a5 SP:fb  STACK: 00 00 c6 14
d415  c4 78    CPY $78 = 81                    A:81 X:7e Y:80 P:a5 SP:fb  STACK: 00 00 c6 14
d417  20 1d f9 JSR $f91d = b0                  A:81 X:7e Y:80 P:a4 SP:fb  STACK: 00 00 c6 14
f91d  b0 05    BCS $f924                       A:81 X:7e Y:80 P:a4 SP:f9  STACK: 00 00 c6 14 d4 19
f91f  f0 03    BEQ $f924                       A:81 X:7e Y:80 P:a4 SP:f9  STACK: 00 00 c6 14 d4 19
f921  10 01    BPL $f924                       A:81 X:7e Y:80 P:a4 SP:f9  STACK: 00 00 c6 14 d4 19
f923  60       RTS                             A:81 X:7e Y:80 P:a4 SP:f9  STACK: 00 00 c6 14 d4 19
d41a  e8       INX                             A:81 X:7e Y:80 P:a4 SP:fb  STACK: 00 00 c6 14
d41b  a9 7f    LDA #$7f                        A:81 X:7e Y:80 P:a4 SP:fb  STACK: 00 00 c6 14
d41d  85 78    STA $78 = 81                    A:7f X:7e Y:80 P:24 SP:fb  STACK: 00 00 c6 14
d41f  c4 78    CPY $78 = 7f                    A:7f X:7e Y:80 P:24 SP:fb  STACK: 00 00 c6 14
d421  20 27 f9 JSR $f927 = 90                  A:7f X:7e Y:80 P:25 SP:fb  STACK: 00 00 c6 14
f927  90 05    BCC $f92e                       A:7f X:7e Y:80 P:25 SP:f9  STACK: 00 00 c6 14 d4 23
f929  f0 03    BEQ $f92e                       A:7f X:7e Y:80 P:25 SP:f9  STACK: 00 00 c6 14 d4 23
f92b  30 01    BMI $f92e                       A:7f X:7e Y:80 P:25 SP:f9  STACK: 00 00 c6 14 d4 23
f92d  60       RTS                             A:7f X:7e Y:80 P:25 SP:f9  STACK: 00 00 c6 14 d4 23
d424  e8       INX                             A:7f X:7e Y:80 P:25 SP:fb  STACK: 00 00 c6 14
d425  8a       TXA                             A:7f X:7e Y:80 P:25 SP:fb  STACK: 00 00 c6 14
d426  a8       TAY                             A:7e X:7e Y:80 P:25 SP:fb  STACK: 00 00 c6 14
d427  20 90 f9 JSR $f990 = a2                  A:7e X:7e Y:7e P:25 SP:fb  STACK: 00 00 c6 14
f990  a2 55    LDX #$55                        A:7e X:7e Y:7e P:25 SP:f9  STACK: 00 00 c6 14 d4 29
f992  a9 ff    LDA #$ff                        A:7e X:55 Y:7e P:25 SP:f9  STACK: 00 00 c6 14 d4 29
f994  85 01    STA $01 = ff                    A:ff X:55 Y:7e P:a5 SP:f9  STACK: 00 00 c6 14 d4 29
f996  ea       NOP                             A:ff X:55 Y:7e P:a5 SP:f9  STACK: 00 00 c6 14 d4 29
f997  24 01    BIT $01 = ff                    A:ff X:55 Y:7e P:a5 SP:f9  STACK: 00 00 c6 14 d4 29
f999  38       SEC                             A:ff X:55 Y:7e P:e5 SP:f9  STACK: 00 00 c6 14 d4 29
f99a  a9 01    LDA #$01                        A:ff X:55 Y:7e P:e5 SP:f9  STACK: 00 00 c6 14 d4 29
f99c  60       RTS                             A:01 X:55 Y:7e P:65 SP:f9  STACK: 00 00 c6 14 d4 29
d42a  85 78    STA $78 = 7f                    A:01 X:55 Y:7e P:65 SP:fb  STACK: 00 00 c6 14
d42c  46 78    LSR $78 = 01                    A:01 X:55 Y:7e P:65 SP:fb  STACK: 00 00 c6 14
