C000  4C F5 C5  JMP $C5F5                       A:00 X:00 Y:00 P:24 SP:FD STACK: 00 00
C5F5  A2 00     LDX #$00                        A:00 X:00 Y:00 P:24 SP:FD STACK: 00 00
C5F7  86 00     STX $00 = 00                    A:00 X:00 Y:00 P:26 SP:FD STACK: 00 00
C5F9  86 10     STX $10 = 00                    A:00 X:00 Y:00 P:26 SP:FD STACK: 00 00
C5FB  86 11     STX $11 = 00                    A:00 X:00 Y:00 P:26 SP:FD STACK: 00 00
C5FD  20 2D C7  JSR $C72D                       A:00 X:00 Y:00 P:26 SP:FD STACK: 00 00
C72D  EA        NOP                             A:00 X:00 Y:00 P:26 SP:FB STACK: 00 00 C5 FF
C72E  38        SEC                             A:00 X:00 Y:00 P:26 SP:FB STACK: 00 00 C5 FF
C72F  B0 04     BCS $C735                       A:00 X:00 Y:00 P:27 SP:FB STACK: 00 00 C5 FF
C735  EA        NOP                             A:00 X:00 Y:00 P:27 SP:FB STACK: 00 00 C5 FF
C736  18        CLC                             A:00 X:00 Y:00 P:27 SP:FB STACK: 00 00 C5 FF
C737  B0 03     BCS $C73C                       A:00 X:00 Y:00 P:26 SP:FB STACK: 00 00 C5 FF
C739  4C 40 C7  JMP $C740                       A:00 X:00 Y:00 P:26 SP:FB STACK: 00 00 C5 FF
C740  EA        NOP                             A:00 X:00 Y:00 P:26 SP:FB STACK: 00 00 C5 FF
C741  38        SEC                             A:00 X:00 Y:00 P:26 SP:FB STACK: 00 00 C5 FF
C742  90 03     BCC $C747                       A:00 X:00 Y:00 P:27 SP:FB STACK: 00 00 C5 FF
C744  4C 4B C7  JMP $C74B                       A:00 X:00 Y:00 P:27 SP:FB STACK: 00 00 C5 FF
C74B  EA        NOP                             A:00 X:00 Y:00 P:27 SP:FB STACK: 00 00 C5 FF
C74C  18        CLC                             A:00 X:00 Y:00 P:27 SP:FB STACK: 00 00 C5 FF
C74D  90 04     BCC $C753                       A:00 X:00 Y:00 P:26 SP:FB STACK: 00 00 C5 FF
C753  EA        NOP                             A:00 X:00 Y:00 P:26 SP:FB STACK: 00 00 C5 FF
C754  A9 00     LDA #$00                        A:00 X:00 Y:00 P:26 SP:FB STACK: 00 00 C5 FF
C756  F0 04     BEQ $C75C                       A:00 X:00 Y:00 P:26 SP:FB STACK: 00 00 C5 FF
C75C  EA        NOP                             A:00 X:00 Y:00 P:26 SP:FB STACK: 00 00 C5 FF
C75D  A9 40     LDA #$40                        A:00 X:00 Y:00 P:26 SP:FB STACK: 00 00 C5 FF
C75F  F0 03     BEQ $C764                       A:40 X:00 Y:00 P:24 SP:FB STACK: 00 00 C5 FF
C761  4C 68 C7  JMP $C768                       A:40 X:00 Y:00 P:24 SP:FB STACK: 00 00 C5 FF
C768  EA        NOP                             A:40 X:00 Y:00 P:24 SP:FB STACK: 00 00 C5 FF
C769  A9 40     LDA #$40                        A:40 X:00 Y:00 P:24 SP:FB STACK: 00 00 C5 FF
C76B  D0 04     BNE $C771                       A:40 X:00 Y:00 P:24 SP:FB STACK: 00 00 C5 FF
C771  EA        NOP                             A:40 X:00 Y:00 P:24 SP:FB STACK: 00 00 C5 FF
C772  A9 00     LDA #$00                        A:40 X:00 Y:00 P:24 SP:FB STACK: 00 00 C5 FF
C774  D0 03     BNE $C779                       A:00 X:00 Y:00 P:26 SP:FB STACK: 00 00 C5 FF
C776  4C 7D C7  JMP $C77D                       A:00 X:00 Y:00 P:26 SP:FB STACK: 00 00 C5 FF
C77D  EA        NOP                             A:00 X:00 Y:00 P:26 SP:FB STACK: 00 00 C5 FF
C77E  A9 FF     LDA #$FF                        A:00 X:00 Y:00 P:26 SP:FB STACK: 00 00 C5 FF
C780  85 01     STA $01 = 00                    A:FF X:00 Y:00 P:A4 SP:FB STACK: 00 00 C5 FF
C782  24 01     BIT $01 = FF                    A:FF X:00 Y:00 P:A4 SP:FB STACK: 00 00 C5 FF
C784  70 04     BVS $C78A                       A:FF X:00 Y:00 P:E4 SP:FB STACK: 00 00 C5 FF
C78A  EA        NOP                             A:FF X:00 Y:00 P:E4 SP:FB STACK: 00 00 C5 FF
C78B  24 01     BIT $01 = FF                    A:FF X:00 Y:00 P:E4 SP:FB STACK: 00 00 C5 FF
C78D  50 03     BVC $C792                       A:FF X:00 Y:00 P:E4 SP:FB STACK: 00 00 C5 FF
C78F  4C 96 C7  JMP $C796                       A:FF X:00 Y:00 P:E4 SP:FB STACK: 00 00 C5 FF
C796  EA        NOP                             A:FF X:00 Y:00 P:E4 SP:FB STACK: 00 00 C5 FF
C797  A9 00     LDA #$00                        A:FF X:00 Y:00 P:E4 SP:FB STACK: 00 00 C5 FF
C799  85 01     STA $01 = FF                    A:00 X:00 Y:00 P:66 SP:FB STACK: 00 00 C5 FF
C79B  24 01     BIT $01 = 00                    A:00 X:00 Y:00 P:66 SP:FB STACK: 00 00 C5 FF
C79D  50 04     BVC $C7A3                       A:00 X:00 Y:00 P:26 SP:FB STACK: 00 00 C5 FF
C7A3  EA        NOP                             A:00 X:00 Y:00 P:26 SP:FB STACK: 00 00 C5 FF
C7A4  24 01     BIT $01 = 00                    A:00 X:00 Y:00 P:26 SP:FB STACK: 00 00 C5 FF
C7A6  70 03     BVS $C7AB                       A:00 X:00 Y:00 P:26 SP:FB STACK: 00 00 C5 FF
C7A8  4C AF C7  JMP $C7AF                       A:00 X:00 Y:00 P:26 SP:FB STACK: 00 00 C5 FF
C7AF  EA        NOP                             A:00 X:00 Y:00 P:26 SP:FB STACK: 00 00 C5 FF
C7B0  A9 00     LDA #$00                        A:00 X:00 Y:00 P:26 SP:FB STACK: 00 00 C5 FF
C7B2  10 04     BPL $C7B8                       A:00 X:00 Y:00 P:26 SP:FB STACK: 00 00 C5 FF
C7B8  EA        NOP                             A:00 X:00 Y:00 P:26 SP:FB STACK: 00 00 C5 FF
C7B9  A9 80     LDA #$80                        A:00 X:00 Y:00 P:26 SP:FB STACK: 00 00 C5 FF
C7BB  10 03     BPL $C7C0                       A:80 X:00 Y:00 P:A4 SP:FB STACK: 00 00 C5 FF
C7BD  4C D9 C7  JMP $C7D9                       A:80 X:00 Y:00 P:A4 SP:FB STACK: 00 00 C5 FF
C7D9  EA        NOP                             A:80 X:00 Y:00 P:A4 SP:FB STACK: 00 00 C5 FF
C7DA  60        RTS                             A:80 X:00 Y:00 P:A4 SP:FB STACK: 00 00 C5 FF
C600  20 DB C7  JSR $C7DB                       A:80 X:00 Y:00 P:A4 SP:FD STACK: 00 00
C7DB  EA        NOP                             A:80 X:00 Y:00 P:A4 SP:FB STACK: 00 00 C6 02
C7DC  A9 FF     LDA #$FF                        A:80 X:00 Y:00 P:A4 SP:FB STACK: 00 00 C6 02
C7DE  85 01     STA $01 = 00                    A:FF X:00 Y:00 P:A4 SP:FB STACK: 00 00 C6 02
C7E0  24 01     BIT $01 = FF                    A:FF X:00 Y:00 P:A4 SP:FB STACK: 00 00 C6 02
C7E2  A9 00     LDA #$00                        A:FF X:00 Y:00 P:E4 SP:FB STACK: 00 00 C6 02
C7E4  38        SEC                             A:00 X:00 Y:00 P:66 SP:FB STACK: 00 00 C6 02
C7E5  78        SEI                             A:00 X:00 Y:00 P:67 SP:FB STACK: 00 00 C6 02
C7E6  F8        SED                             A:00 X:00 Y:00 P:67 SP:FB STACK: 00 00 C6 02
C7E7  08        PHP                             A:00 X:00 Y:00 P:6F SP:FB STACK: 00 00 C6 02
C7E8  68        PLA                             A:00 X:00 Y:00 P:6F SP:FA STACK: 00 00 C6 02 6F
C7E9  29 EF     AND #$EF                        A:6F X:00 Y:00 P:6D SP:FB STACK: 00 00 C6 02
C7EB  C9 6F     CMP #$6F                        A:6F X:00 Y:00 P:6D SP:FB STACK: 00 00 C6 02
C7ED  F0 04     BEQ $C7F3                       A:6F X:00 Y:00 P:6F SP:FB STACK: 00 00 C6 02
C7F3  EA        NOP                             A:6F X:00 Y:00 P:6F SP:FB STACK: 00 00 C6 02
C7F4  A9 40     LDA #$40                        A:6F X:00 Y:00 P:6F SP:FB STACK: 00 00 C6 02
C7F6  85 01     STA $01 = FF                    A:40 X:00 Y:00 P:6D SP:FB STACK: 00 00 C6 02
C7F8  24 01     BIT $01 = 40                    A:40 X:00 Y:00 P:6D SP:FB STACK: 00 00 C6 02
C7FA  D8        CLD                             A:40 X:00 Y:00 P:6D SP:FB STACK: 00 00 C6 02
C7FB  A9 10     LDA #$10                        A:40 X:00 Y:00 P:65 SP:FB STACK: 00 00 C6 02
C7FD  18        CLC                             A:10 X:00 Y:00 P:65 SP:FB STACK: 00 00 C6 02
C7FE  08        PHP                             A:10 X:00 Y:00 P:64 SP:FB STACK: 00 00 C6 02
C7FF  68        PLA                             A:10 X:00 Y:00 P:64 SP:FA STACK: 00 00 C6 02 64
C800  29 EF     AND #$EF                        A:64 X:00 Y:00 P:64 SP:FB STACK: 00 00 C6 02
C802  C9 64     CMP #$64                        A:64 X:00 Y:00 P:64 SP:FB STACK: 00 00 C6 02
C804  F0 04     BEQ $C80A                       A:64 X:00 Y:00 P:67 SP:FB STACK: 00 00 C6 02
C80A  EA        NOP                             A:64 X:00 Y:00 P:67 SP:FB STACK: 00 00 C6 02
C80B  A9 80     LDA #$80                        A:64 X:00 Y:00 P:67 SP:FB STACK: 00 00 C6 02
C80D  85 01     STA $01 = 40                    A:80 X:00 Y:00 P:E5 SP:FB STACK: 00 00 C6 02
C80F  24 01     BIT $01 = 80                    A:80 X:00 Y:00 P:E5 SP:FB STACK: 00 00 C6 02
C811  F8        SED                             A:80 X:00 Y:00 P:A5 SP:FB STACK: 00 00 C6 02
C812  A9 00     LDA #$00                        A:80 X:00 Y:00 P:AD SP:FB STACK: 00 00 C6 02
C814  38        SEC                             A:00 X:00 Y:00 P:2F SP:FB STACK: 00 00 C6 02
C815  08        PHP                             A:00 X:00 Y:00 P:2F SP:FB STACK: 00 00 C6 02
C816  68        PLA                             A:00 X:00 Y:00 P:2F SP:FA STACK: 00 00 C6 02 2F
C817  29 EF     AND #$EF                        A:2F X:00 Y:00 P:2D SP:FB STACK: 00 00 C6 02
C819  C9 2F     CMP #$2F                        A:2F X:00 Y:00 P:2D SP:FB STACK: 00 00 C6 02
C81B  F0 04     BEQ $C821                       A:2F X:00 Y:00 P:2F SP:FB STACK: 00 00 C6 02
C821  EA        NOP                             A:2F X:00 Y:00 P:2F SP:FB STACK: 00 00 C6 02
C822  A9 FF     LDA #$FF                        A:2F X:00 Y:00 P:2F SP:FB STACK: 00 00 C6 02
C824  48        PHA                             A:FF X:00 Y:00 P:AD SP:FB STACK: 00 00 C6 02
C825  28        PLP                             A:FF X:00 Y:00 P:AD SP:FA STACK: 00 00 C6 02 FF
C826  D0 09     BNE $C831                       A:FF X:00 Y:00 P:EF SP:FB STACK: 00 00 C6 02
C828  10 07     BPL $C831                       A:FF X:00 Y:00 P:EF SP:FB STACK: 00 00 C6 02
C82A  50 05     BVC $C831                       A:FF X:00 Y:00 P:EF SP:FB STACK: 00 00 C6 02
C82C  90 03     BCC $C831                       A:FF X:00 Y:00 P:EF SP:FB STACK: 00 00 C6 02
C82E  4C 35 C8  JMP $C835                       A:FF X:00 Y:00 P:EF SP:FB STACK: 00 00 C6 02
C835  EA        NOP                             A:FF X:00 Y:00 P:EF SP:FB STACK: 00 00 C6 02
C836  A9 04     LDA #$04                        A:FF X:00 Y:00 P:EF SP:FB STACK: 00 00 C6 02
C838  48        PHA                             A:04 X:00 Y:00 P:6D SP:FB STACK: 00 00 C6 02
C839  28        PLP                             A:04 X:00 Y:00 P:6D SP:FA STACK: 00 00 C6 02 04
C83A  F0 09     BEQ $C845                       A:04 X:00 Y:00 P:24 SP:FB STACK: 00 00 C6 02
C83C  30 07     BMI $C845                       A:04 X:00 Y:00 P:24 SP:FB STACK: 00 00 C6 02
C83E  70 05     BVS $C845                       A:04 X:00 Y:00 P:24 SP:FB STACK: 00 00 C6 02
C840  B0 03     BCS $C845                       A:04 X:00 Y:00 P:24 SP:FB STACK: 00 00 C6 02
C842  4C 49 C8  JMP $C849                       A:04 X:00 Y:00 P:24 SP:FB STACK: 00 00 C6 02
C849  EA        NOP                             A:04 X:00 Y:00 P:24 SP:FB STACK: 00 00 C6 02
C84A  F8        SED                             A:04 X:00 Y:00 P:24 SP:FB STACK: 00 00 C6 02
C84B  A9 FF     LDA #$FF                        A:04 X:00 Y:00 P:2C SP:FB STACK: 00 00 C6 02
C84D  85 01     STA $01 = 80                    A:FF X:00 Y:00 P:AC SP:FB STACK: 00 00 C6 02
C84F  24 01     BIT $01 = FF                    A:FF X:00 Y:00 P:AC SP:FB STACK: 00 00 C6 02
C851  18        CLC                             A:FF X:00 Y:00 P:EC SP:FB STACK: 00 00 C6 02
C852  A9 00     LDA #$00                        A:FF X:00 Y:00 P:EC SP:FB STACK: 00 00 C6 02
C854  48        PHA                             A:00 X:00 Y:00 P:6E SP:FB STACK: 00 00 C6 02
C855  A9 FF     LDA #$FF                        A:00 X:00 Y:00 P:6E SP:FA STACK: 00 00 C6 02 00
C857  68        PLA                             A:FF X:00 Y:00 P:EC SP:FA STACK: 00 00 C6 02 00
C858  D0 09     BNE $C863                       A:00 X:00 Y:00 P:6E SP:FB STACK: 00 00 C6 02
C85A  30 07     BMI $C863                       A:00 X:00 Y:00 P:6E SP:FB STACK: 00 00 C6 02
C85C  50 05     BVC $C863                       A:00 X:00 Y:00 P:6E SP:FB STACK: 00 00 C6 02
C85E  B0 03     BCS $C863                       A:00 X:00 Y:00 P:6E SP:FB STACK: 00 00 C6 02
C860  4C 67 C8  JMP $C867                       A:00 X:00 Y:00 P:6E SP:FB STACK: 00 00 C6 02
C867  EA        NOP                             A:00 X:00 Y:00 P:6E SP:FB STACK: 00 00 C6 02
C868  A9 00     LDA #$00                        A:00 X:00 Y:00 P:6E SP:FB STACK: 00 00 C6 02
C86A  85 01     STA $01 = FF                    A:00 X:00 Y:00 P:6E SP:FB STACK: 00 00 C6 02
C86C  24 01     BIT $01 = 00                    A:00 X:00 Y:00 P:6E SP:FB STACK: 00 00 C6 02
C86E  38        SEC                             A:00 X:00 Y:00 P:2E SP:FB STACK: 00 00 C6 02
C86F  A9 FF     LDA #$FF                        A:00 X:00 Y:00 P:2F SP:FB STACK: 00 00 C6 02
C871  48        PHA                             A:FF X:00 Y:00 P:AD SP:FB STACK: 00 00 C6 02
C872  A9 00     LDA #$00                        A:FF X:00 Y:00 P:AD SP:FA STACK: 00 00 C6 02 FF
C874  68        PLA                             A:00 X:00 Y:00 P:2F SP:FA STACK: 00 00 C6 02 FF
C875  F0 09     BEQ $C880                       A:FF X:00 Y:00 P:AD SP:FB STACK: 00 00 C6 02
C877  10 07     BPL $C880                       A:FF X:00 Y:00 P:AD SP:FB STACK: 00 00 C6 02
C879  70 05     BVS $C880                       A:FF X:00 Y:00 P:AD SP:FB STACK: 00 00 C6 02
C87B  90 03     BCC $C880                       A:FF X:00 Y:00 P:AD SP:FB STACK: 00 00 C6 02
C87D  4C 84 C8  JMP $C884                       A:FF X:00 Y:00 P:AD SP:FB STACK: 00 00 C6 02
C884  60        RTS                             A:FF X:00 Y:00 P:AD SP:FB STACK: 00 00 C6 02
C603  20 85 C8  JSR $C885                       A:FF X:00 Y:00 P:AD SP:FD STACK: 00 00
C885  EA        NOP                             A:FF X:00 Y:00 P:AD SP:FB STACK: 00 00 C6 05
C886  18        CLC                             A:FF X:00 Y:00 P:AD SP:FB STACK: 00 00 C6 05
C887  A9 FF     LDA #$FF                        A:FF X:00 Y:00 P:AC SP:FB STACK: 00 00 C6 05
C889  85 01     STA $01 = 00                    A:FF X:00 Y:00 P:AC SP:FB STACK: 00 00 C6 05
C88B  24 01     BIT $01 = FF                    A:FF X:00 Y:00 P:AC SP:FB STACK: 00 00 C6 05
C88D  A9 55     LDA #$55                        A:FF X:00 Y:00 P:EC SP:FB STACK: 00 00 C6 05
C88F  09 AA     ORA #$AA                        A:55 X:00 Y:00 P:6C SP:FB STACK: 00 00 C6 05
C891  B0 0B     BCS $C89E                       A:FF X:00 Y:00 P:EC SP:FB STACK: 00 00 C6 05
C893  10 09     BPL $C89E                       A:FF X:00 Y:00 P:EC SP:FB STACK: 00 00 C6 05
C895  C9 FF     CMP #$FF                        A:FF X:00 Y:00 P:EC SP:FB STACK: 00 00 C6 05
C897  D0 05     BNE $C89E                       A:FF X:00 Y:00 P:6F SP:FB STACK: 00 00 C6 05
C899  50 03     BVC $C89E                       A:FF X:00 Y:00 P:6F SP:FB STACK: 00 00 C6 05
C89B  4C A2 C8  JMP $C8A2                       A:FF X:00 Y:00 P:6F SP:FB STACK: 00 00 C6 05
C8A2  EA        NOP                             A:FF X:00 Y:00 P:6F SP:FB STACK: 00 00 C6 05
C8A3  38        SEC                             A:FF X:00 Y:00 P:6F SP:FB STACK: 00 00 C6 05
C8A4  B8        CLV                             A:FF X:00 Y:00 P:6F SP:FB STACK: 00 00 C6 05
C8A5  A9 00     LDA #$00                        A:FF X:00 Y:00 P:2F SP:FB STACK: 00 00 C6 05
C8A7  09 00     ORA #$00                        A:00 X:00 Y:00 P:2F SP:FB STACK: 00 00 C6 05
C8A9  D0 09     BNE $C8B4                       A:00 X:00 Y:00 P:2F SP:FB STACK: 00 00 C6 05
C8AB  70 07     BVS $C8B4                       A:00 X:00 Y:00 P:2F SP:FB STACK: 00 00 C6 05
C8AD  90 05     BCC $C8B4                       A:00 X:00 Y:00 P:2F SP:FB STACK: 00 00 C6 05
C8AF  30 03     BMI $C8B4                       A:00 X:00 Y:00 P:2F SP:FB STACK: 00 00 C6 05
C8B1  4C B8 C8  JMP $C8B8                       A:00 X:00 Y:00 P:2F SP:FB STACK: 00 00 C6 05
C8B8  EA        NOP                             A:00 X:00 Y:00 P:2F SP:FB STACK: 00 00 C6 05
C8B9  18        CLC                             A:00 X:00 Y:00 P:2F SP:FB STACK: 00 00 C6 05
C8BA  24 01     BIT $01 = FF                    A:00 X:00 Y:00 P:2E SP:FB STACK: 00 00 C6 05
C8BC  A9 55     LDA #$55                        A:00 X:00 Y:00 P:EE SP:FB STACK: 00 00 C6 05
C8BE  29 AA     AND #$AA                        A:55 X:00 Y:00 P:6C SP:FB STACK: 00 00 C6 05
C8C0  D0 09     BNE $C8CB                       A:00 X:00 Y:00 P:6E SP:FB STACK: 00 00 C6 05
C8C2  50 07     BVC $C8CB                       A:00 X:00 Y:00 P:6E SP:FB STACK: 00 00 C6 05
C8C4  B0 05     BCS $C8CB                       A:00 X:00 Y:00 P:6E SP:FB STACK: 00 00 C6 05
C8C6  30 03     BMI $C8CB                       A:00 X:00 Y:00 P:6E SP:FB STACK: 00 00 C6 05
C8C8  4C CF C8  JMP $C8CF                       A:00 X:00 Y:00 P:6E SP:FB STACK: 00 00 C6 05
C8CF  EA        NOP                             A:00 X:00 Y:00 P:6E SP:FB STACK: 00 00 C6 05
C8D0  38        SEC                             A:00 X:00 Y:00 P:6E SP:FB STACK: 00 00 C6 05
C8D1  B8        CLV                             A:00 X:00 Y:00 P:6F SP:FB STACK: 00 00 C6 05
C8D2  A9 F8     LDA #$F8                        A:00 X:00 Y:00 P:2F SP:FB STACK: 00 00 C6 05
C8D4  29 EF     AND #$EF                        A:F8 X:00 Y:00 P:AD SP:FB STACK: 00 00 C6 05
C8D6  90 0B     BCC $C8E3                       A:E8 X:00 Y:00 P:AD SP:FB STACK: 00 00 C6 05
C8D8  10 09     BPL $C8E3                       A:E8 X:00 Y:00 P:AD SP:FB STACK: 00 00 C6 05
C8DA  C9 E8     CMP #$E8                        A:E8 X:00 Y:00 P:AD SP:FB STACK: 00 00 C6 05
C8DC  D0 05     BNE $C8E3                       A:E8 X:00 Y:00 P:2F SP:FB STACK: 00 00 C6 05
C8DE  70 03     BVS $C8E3                       A:E8 X:00 Y:00 P:2F SP:FB STACK: 00 00 C6 05
C8E0  4C E7 C8  JMP $C8E7                       A:E8 X:00 Y:00 P:2F SP:FB STACK: 00 00 C6 05
C8E7  EA        NOP                             A:E8 X:00 Y:00 P:2F SP:FB STACK: 00 00 C6 05
C8E8  18        CLC                             A:E8 X:00 Y:00 P:2F SP:FB STACK: 00 00 C6 05
C8E9  24 01     BIT $01 = FF                    A:E8 X:00 Y:00 P:2E SP:FB STACK: 00 00 C6 05
C8EB  A9 5F     LDA #$5F                        A:E8 X:00 Y:00 P:EC SP:FB STACK: 00 00 C6 05
C8ED  49 AA     EOR #$AA                        A:5F X:00 Y:00 P:6C SP:FB STACK: 00 00 C6 05
C8EF  B0 0B     BCS $C8FC                       A:F5 X:00 Y:00 P:EC SP:FB STACK: 00 00 C6 05
C8F1  10 09     BPL $C8FC                       A:F5 X:00 Y:00 P:EC SP:FB STACK: 00 00 C6 05
C8F3  C9 F5     CMP #$F5                        A:F5 X:00 Y:00 P:EC SP:FB STACK: 00 00 C6 05
C8F5  D0 05     BNE $C8FC                       A:F5 X:00 Y:00 P:6F SP:FB STACK: 00 00 C6 05
C8F7  50 03     BVC $C8FC                       A:F5 X:00 Y:00 P:6F SP:FB STACK: 00 00 C6 05
C8F9  4C 00 C9  JMP $C900                       A:F5 X:00 Y:00 P:6F SP:FB STACK: 00 00 C6 05
C900  EA        NOP                             A:F5 X:00 Y:00 P:6F SP:FB STACK: 00 00 C6 05
C901  38        SEC                             A:F5 X:00 Y:00 P:6F SP:FB STACK: 00 00 C6 05
C902  B8        CLV                             A:F5 X:00 Y:00 P:6F SP:FB STACK: 00 00 C6 05
C903  A9 70     LDA #$70                        A:F5 X:00 Y:00 P:2F SP:FB STACK: 00 00 C6 05
C905  49 70     EOR #$70                        A:70 X:00 Y:00 P:2D SP:FB STACK: 00 00 C6 05
C907  D0 09     BNE $C912                       A:00 X:00 Y:00 P:2F SP:FB STACK: 00 00 C6 05
C909  70 07     BVS $C912                       A:00 X:00 Y:00 P:2F SP:FB STACK: 00 00 C6 05
C90B  90 05     BCC $C912                       A:00 X:00 Y:00 P:2F SP:FB STACK: 00 00 C6 05
C90D  30 03     BMI $C912                       A:00 X:00 Y:00 P:2F SP:FB STACK: 00 00 C6 05
C90F  4C 16 C9  JMP $C916                       A:00 X:00 Y:00 P:2F SP:FB STACK: 00 00 C6 05
C916  EA        NOP                             A:00 X:00 Y:00 P:2F SP:FB STACK: 00 00 C6 05
C917  18        CLC                             A:00 X:00 Y:00 P:2F SP:FB STACK: 00 00 C6 05
C918  24 01     BIT $01 = FF                    A:00 X:00 Y:00 P:2E SP:FB STACK: 00 00 C6 05
C91A  A9 00     LDA #$00                        A:00 X:00 Y:00 P:EE SP:FB STACK: 00 00 C6 05
C91C  69 69     ADC #$69                        A:00 X:00 Y:00 P:6E SP:FB STACK: 00 00 C6 05
C91E  30 0B     BMI $C92B                       A:69 X:00 Y:00 P:2C SP:FB STACK: 00 00 C6 05
C920  B0 09     BCS $C92B                       A:69 X:00 Y:00 P:2C SP:FB STACK: 00 00 C6 05
C922  C9 69     CMP #$69                        A:69 X:00 Y:00 P:2C SP:FB STACK: 00 00 C6 05
C924  D0 05     BNE $C92B                       A:69 X:00 Y:00 P:2F SP:FB STACK: 00 00 C6 05
C926  70 03     BVS $C92B                       A:69 X:00 Y:00 P:2F SP:FB STACK: 00 00 C6 05
C928  4C 2F C9  JMP $C92F                       A:69 X:00 Y:00 P:2F SP:FB STACK: 00 00 C6 05
C92F  EA        NOP                             A:69 X:00 Y:00 P:2F SP:FB STACK: 00 00 C6 05
C930  38        SEC                             A:69 X:00 Y:00 P:2F SP:FB STACK: 00 00 C6 05
C931  F8        SED                             A:69 X:00 Y:00 P:2F SP:FB STACK: 00 00 C6 05
C932  24 01     BIT $01 = FF                    A:69 X:00 Y:00 P:2F SP:FB STACK: 00 00 C6 05
C934  A9 01     LDA #$01                        A:69 X:00 Y:00 P:ED SP:FB STACK: 00 00 C6 05
C936  69 69     ADC #$69                        A:01 X:00 Y:00 P:6D SP:FB STACK: 00 00 C6 05
C938  30 0B     BMI $C945                       A:6B X:00 Y:00 P:2C SP:FB STACK: 00 00 C6 05
C93A  B0 09     BCS $C945                       A:6B X:00 Y:00 P:2C SP:FB STACK: 00 00 C6 05
C93C  C9 6B     CMP #$6B                        A:6B X:00 Y:00 P:2C SP:FB STACK: 00 00 C6 05
C93E  D0 05     BNE $C945                       A:6B X:00 Y:00 P:2F SP:FB STACK: 00 00 C6 05
C940  70 03     BVS $C945                       A:6B X:00 Y:00 P:2F SP:FB STACK: 00 00 C6 05
C942  4C 49 C9  JMP $C949                       A:6B X:00 Y:00 P:2F SP:FB STACK: 00 00 C6 05
C949  EA        NOP                             A:6B X:00 Y:00 P:2F SP:FB STACK: 00 00 C6 05
C94A  D8        CLD                             A:6B X:00 Y:00 P:2F SP:FB STACK: 00 00 C6 05
C94B  38        SEC                             A:6B X:00 Y:00 P:27 SP:FB STACK: 00 00 C6 05
C94C  B8        CLV                             A:6B X:00 Y:00 P:27 SP:FB STACK: 00 00 C6 05
C94D  A9 7F     LDA #$7F                        A:6B X:00 Y:00 P:27 SP:FB STACK: 00 00 C6 05
C94F  69 7F     ADC #$7F                        A:7F X:00 Y:00 P:25 SP:FB STACK: 00 00 C6 05
C951  10 0B     BPL $C95E                       A:FF X:00 Y:00 P:E4 SP:FB STACK: 00 00 C6 05
C953  B0 09     BCS $C95E                       A:FF X:00 Y:00 P:E4 SP:FB STACK: 00 00 C6 05
C955  C9 FF     CMP #$FF                        A:FF X:00 Y:00 P:E4 SP:FB STACK: 00 00 C6 05
C957  D0 05     BNE $C95E                       A:FF X:00 Y:00 P:67 SP:FB STACK: 00 00 C6 05
C959  50 03     BVC $C95E                       A:FF X:00 Y:00 P:67 SP:FB STACK: 00 00 C6 05
C95B  4C 62 C9  JMP $C962                       A:FF X:00 Y:00 P:67 SP:FB STACK: 00 00 C6 05
C962  EA        NOP                             A:FF X:00 Y:00 P:67 SP:FB STACK: 00 00 C6 05
C963  18        CLC                             A:FF X:00 Y:00 P:67 SP:FB STACK: 00 00 C6 05
C964  24 01     BIT $01 = FF                    A:FF X:00 Y:00 P:66 SP:FB STACK: 00 00 C6 05
C966  A9 7F     LDA #$7F                        A:FF X:00 Y:00 P:E4 SP:FB STACK: 00 00 C6 05
C968  69 80     ADC #$80                        A:7F X:00 Y:00 P:64 SP:FB STACK: 00 00 C6 05
C96A  10 0B     BPL $C977                       A:FF X:00 Y:00 P:A4 SP:FB STACK: 00 00 C6 05
C96C  B0 09     BCS $C977                       A:FF X:00 Y:00 P:A4 SP:FB STACK: 00 00 C6 05
C96E  C9 FF     CMP #$FF                        A:FF X:00 Y:00 P:A4 SP:FB STACK: 00 00 C6 05
C970  D0 05     BNE $C977                       A:FF X:00 Y:00 P:27 SP:FB STACK: 00 00 C6 05
C972  70 03     BVS $C977                       A:FF X:00 Y:00 P:27 SP:FB STACK: 00 00 C6 05
C974  4C 7B C9  JMP $C97B                       A:FF X:00 Y:00 P:27 SP:FB STACK: 00 00 C6 05
C97B  EA        NOP                             A:FF X:00 Y:00 P:27 SP:FB STACK: 00 00 C6 05
C97C  38        SEC                             A:FF X:00 Y:00 P:27 SP:FB STACK: 00 00 C6 05
C97D  B8        CLV                             A:FF X:00 Y:00 P:27 SP:FB STACK: 00 00 C6 05
C97E  A9 7F     LDA #$7F                        A:FF X:00 Y:00 P:27 SP:FB STACK: 00 00 C6 05
C980  69 80     ADC #$80                        A:7F X:00 Y:00 P:25 SP:FB STACK: 00 00 C6 05
C982  D0 09     BNE $C98D                       A:00 X:00 Y:00 P:27 SP:FB STACK: 00 00 C6 05
C984  30 07     BMI $C98D                       A:00 X:00 Y:00 P:27 SP:FB STACK: 00 00 C6 05
C986  70 05     BVS $C98D                       A:00 X:00 Y:00 P:27 SP:FB STACK: 00 00 C6 05
C988  90 03     BCC $C98D                       A:00 X:00 Y:00 P:27 SP:FB STACK: 00 00 C6 05
C98A  4C 91 C9  JMP $C991                       A:00 X:00 Y:00 P:27 SP:FB STACK: 00 00 C6 05
C991  EA        NOP                             A:00 X:00 Y:00 P:27 SP:FB STACK: 00 00 C6 05
C992  38        SEC                             A:00 X:00 Y:00 P:27 SP:FB STACK: 00 00 C6 05
C993  B8        CLV                             A:00 X:00 Y:00 P:27 SP:FB STACK: 00 00 C6 05
C994  A9 9F     LDA #$9F                        A:00 X:00 Y:00 P:27 SP:FB STACK: 00 00 C6 05
C996  F0 09     BEQ $C9A1                       A:9F X:00 Y:00 P:A5 SP:FB STACK: 00 00 C6 05
C998  10 07     BPL $C9A1                       A:9F X:00 Y:00 P:A5 SP:FB STACK: 00 00 C6 05
C99A  70 05     BVS $C9A1                       A:9F X:00 Y:00 P:A5 SP:FB STACK: 00 00 C6 05
C99C  90 03     BCC $C9A1                       A:9F X:00 Y:00 P:A5 SP:FB STACK: 00 00 C6 05
C99E  4C A5 C9  JMP $C9A5                       A:9F X:00 Y:00 P:A5 SP:FB STACK: 00 00 C6 05
C9A5  EA        NOP                             A:9F X:00 Y:00 P:A5 SP:FB STACK: 00 00 C6 05
C9A6  18        CLC                             A:9F X:00 Y:00 P:A5 SP:FB STACK: 00 00 C6 05
C9A7  24 01     BIT $01 = FF                    A:9F X:00 Y:00 P:A4 SP:FB STACK: 00 00 C6 05
C9A9  A9 00     LDA #$00                        A:9F X:00 Y:00 P:E4 SP:FB STACK: 00 00 C6 05
C9AB  D0 09     BNE $C9B6                       A:00 X:00 Y:00 P:66 SP:FB STACK: 00 00 C6 05
C9AD  30 07     BMI $C9B6                       A:00 X:00 Y:00 P:66 SP:FB STACK: 00 00 C6 05
C9AF  50 05     BVC $C9B6                       A:00 X:00 Y:00 P:66 SP:FB STACK: 00 00 C6 05
C9B1  B0 03     BCS $C9B6                       A:00 X:00 Y:00 P:66 SP:FB STACK: 00 00 C6 05
C9B3  4C BA C9  JMP $C9BA                       A:00 X:00 Y:00 P:66 SP:FB STACK: 00 00 C6 05
C9BA  EA        NOP                             A:00 X:00 Y:00 P:66 SP:FB STACK: 00 00 C6 05
C9BB  24 01     BIT $01 = FF                    A:00 X:00 Y:00 P:66 SP:FB STACK: 00 00 C6 05
C9BD  A9 40     LDA #$40                        A:00 X:00 Y:00 P:E6 SP:FB STACK: 00 00 C6 05
C9BF  C9 40     CMP #$40                        A:40 X:00 Y:00 P:64 SP:FB STACK: 00 00 C6 05
C9C1  30 09     BMI $C9CC                       A:40 X:00 Y:00 P:67 SP:FB STACK: 00 00 C6 05
C9C3  90 07     BCC $C9CC                       A:40 X:00 Y:00 P:67 SP:FB STACK: 00 00 C6 05
C9C5  D0 05     BNE $C9CC                       A:40 X:00 Y:00 P:67 SP:FB STACK: 00 00 C6 05
C9C7  50 03     BVC $C9CC                       A:40 X:00 Y:00 P:67 SP:FB STACK: 00 00 C6 05
C9C9  4C D0 C9  JMP $C9D0                       A:40 X:00 Y:00 P:67 SP:FB STACK: 00 00 C6 05
C9D0  EA        NOP                             A:40 X:00 Y:00 P:67 SP:FB STACK: 00 00 C6 05
C9D1  B8        CLV                             A:40 X:00 Y:00 P:67 SP:FB STACK: 00 00 C6 05
C9D2  C9 3F     CMP #$3F                        A:40 X:00 Y:00 P:27 SP:FB STACK: 00 00 C6 05
C9D4  F0 09     BEQ $C9DF                       A:40 X:00 Y:00 P:25 SP:FB STACK: 00 00 C6 05
C9D6  30 07     BMI $C9DF                       A:40 X:00 Y:00 P:25 SP:FB STACK: 00 00 C6 05
C9D8  90 05     BCC $C9DF                       A:40 X:00 Y:00 P:25 SP:FB STACK: 00 00 C6 05
C9DA  70 03     BVS $C9DF                       A:40 X:00 Y:00 P:25 SP:FB STACK: 00 00 C6 05
C9DC  4C E3 C9  JMP $C9E3                       A:40 X:00 Y:00 P:25 SP:FB STACK: 00 00 C6 05
C9E3  EA        NOP                             A:40 X:00 Y:00 P:25 SP:FB STACK: 00 00 C6 05
C9E4  C9 41     CMP #$41                        A:40 X:00 Y:00 P:25 SP:FB STACK: 00 00 C6 05
C9E6  F0 07     BEQ $C9EF                       A:40 X:00 Y:00 P:A4 SP:FB STACK: 00 00 C6 05
C9E8  10 05     BPL $C9EF                       A:40 X:00 Y:00 P:A4 SP:FB STACK: 00 00 C6 05
C9EA  10 03     BPL $C9EF                       A:40 X:00 Y:00 P:A4 SP:FB STACK: 00 00 C6 05
C9EC  4C F3 C9  JMP $C9F3                       A:40 X:00 Y:00 P:A4 SP:FB STACK: 00 00 C6 05
C9F3  EA        NOP                             A:40 X:00 Y:00 P:A4 SP:FB STACK: 00 00 C6 05
C9F4  A9 80     LDA #$80                        A:40 X:00 Y:00 P:A4 SP:FB STACK: 00 00 C6 05
C9F6  C9 00     CMP #$00                        A:80 X:00 Y:00 P:A4 SP:FB STACK: 00 00 C6 05
C9F8  F0 07     BEQ $CA01                       A:80 X:00 Y:00 P:A5 SP:FB STACK: 00 00 C6 05
C9FA  10 05     BPL $CA01                       A:80 X:00 Y:00 P:A5 SP:FB STACK: 00 00 C6 05
C9FC  90 03     BCC $CA01                       A:80 X:00 Y:00 P:A5 SP:FB STACK: 00 00 C6 05
C9FE  4C 05 CA  JMP $CA05                       A:80 X:00 Y:00 P:A5 SP:FB STACK: 00 00 C6 05
CA05  EA        NOP                             A:80 X:00 Y:00 P:A5 SP:FB STACK: 00 00 C6 05
CA06  C9 80     CMP #$80                        A:80 X:00 Y:00 P:A5 SP:FB STACK: 00 00 C6 05
CA08  D0 07     BNE $CA11                       A:80 X:00 Y:00 P:27 SP:FB STACK: 00 00 C6 05
CA0A  30 05     BMI $CA11                       A:80 X:00 Y:00 P:27 SP:FB STACK: 00 00 C6 05
CA0C  90 03     BCC $CA11                       A:80 X:00 Y:00 P:27 SP:FB STACK: 00 00 C6 05
CA0E  4C 15 CA  JMP $CA15                       A:80 X:00 Y:00 P:27 SP:FB STACK: 00 00 C6 05
CA15  EA        NOP                             A:80 X:00 Y:00 P:27 SP:FB STACK: 00 00 C6 05
CA16  C9 81     CMP #$81                        A:80 X:00 Y:00 P:27 SP:FB STACK: 00 00 C6 05
CA18  B0 07     BCS $CA21                       A:80 X:00 Y:00 P:A4 SP:FB STACK: 00 00 C6 05
CA1A  F0 05     BEQ $CA21                       A:80 X:00 Y:00 P:A4 SP:FB STACK: 00 00 C6 05
CA1C  10 03     BPL $CA21                       A:80 X:00 Y:00 P:A4 SP:FB STACK: 00 00 C6 05
CA1E  4C 25 CA  JMP $CA25                       A:80 X:00 Y:00 P:A4 SP:FB STACK: 00 00 C6 05
CA25  EA        NOP                             A:80 X:00 Y:00 P:A4 SP:FB STACK: 00 00 C6 05
CA26  C9 7F     CMP #$7F                        A:80 X:00 Y:00 P:A4 SP:FB STACK: 00 00 C6 05
CA28  90 07     BCC $CA31                       A:80 X:00 Y:00 P:25 SP:FB STACK: 00 00 C6 05
CA2A  F0 05     BEQ $CA31                       A:80 X:00 Y:00 P:25 SP:FB STACK: 00 00 C6 05
CA2C  30 03     BMI $CA31                       A:80 X:00 Y:00 P:25 SP:FB STACK: 00 00 C6 05
CA2E  4C 35 CA  JMP $CA35                       A:80 X:00 Y:00 P:25 SP:FB STACK: 00 00 C6 05
CA35  EA        NOP                             A:80 X:00 Y:00 P:25 SP:FB STACK: 00 00 C6 05
CA36  24 01     BIT $01 = FF                    A:80 X:00 Y:00 P:25 SP:FB STACK: 00 00 C6 05
CA38  A0 40     LDY #$40                        A:80 X:00 Y:00 P:E5 SP:FB STACK: 00 00 C6 05
CA3A  C0 40     CPY #$40                        A:80 X:00 Y:40 P:65 SP:FB STACK: 00 00 C6 05
CA3C  D0 09     BNE $CA47                       A:80 X:00 Y:40 P:67 SP:FB STACK: 00 00 C6 05
CA3E  30 07     BMI $CA47                       A:80 X:00 Y:40 P:67 SP:FB STACK: 00 00 C6 05
CA40  90 05     BCC $CA47                       A:80 X:00 Y:40 P:67 SP:FB STACK: 00 00 C6 05
CA42  50 03     BVC $CA47                       A:80 X:00 Y:40 P:67 SP:FB STACK: 00 00 C6 05
CA44  4C 4B CA  JMP $CA4B                       A:80 X:00 Y:40 P:67 SP:FB STACK: 00 00 C6 05
CA4B  EA        NOP                             A:80 X:00 Y:40 P:67 SP:FB STACK: 00 00 C6 05
CA4C  B8        CLV                             A:80 X:00 Y:40 P:67 SP:FB STACK: 00 00 C6 05
CA4D  C0 3F     CPY #$3F                        A:80 X:00 Y:40 P:27 SP:FB STACK: 00 00 C6 05
CA4F  F0 09     BEQ $CA5A                       A:80 X:00 Y:40 P:25 SP:FB STACK: 00 00 C6 05
CA51  30 07     BMI $CA5A                       A:80 X:00 Y:40 P:25 SP:FB STACK: 00 00 C6 05
CA53  90 05     BCC $CA5A                       A:80 X:00 Y:40 P:25 SP:FB STACK: 00 00 C6 05
CA55  70 03     BVS $CA5A                       A:80 X:00 Y:40 P:25 SP:FB STACK: 00 00 C6 05
CA57  4C 5E CA  JMP $CA5E                       A:80 X:00 Y:40 P:25 SP:FB STACK: 00 00 C6 05
CA5E  EA        NOP                             A:80 X:00 Y:40 P:25 SP:FB STACK: 00 00 C6 05
CA5F  C0 41     CPY #$41                        A:80 X:00 Y:40 P:25 SP:FB STACK: 00 00 C6 05
CA61  F0 07     BEQ $CA6A                       A:80 X:00 Y:40 P:A4 SP:FB STACK: 00 00 C6 05
CA63  10 05     BPL $CA6A                       A:80 X:00 Y:40 P:A4 SP:FB STACK: 00 00 C6 05
CA65  10 03     BPL $CA6A                       A:80 X:00 Y:40 P:A4 SP:FB STACK: 00 00 C6 05
CA67  4C 6E CA  JMP $CA6E                       A:80 X:00 Y:40 P:A4 SP:FB STACK: 00 00 C6 05
CA6E  EA        NOP                             A:80 X:00 Y:40 P:A4 SP:FB STACK: 00 00 C6 05
CA6F  A0 80     LDY #$80                        A:80 X:00 Y:40 P:A4 SP:FB STACK: 00 00 C6 05
CA71  C0 00     CPY #$00                        A:80 X:00 Y:80 P:A4 SP:FB STACK: 00 00 C6 05
CA73  F0 07     BEQ $CA7C                       A:80 X:00 Y:80 P:A5 SP:FB STACK: 00 00 C6 05
CA75  10 05     BPL $CA7C                       A:80 X:00 Y:80 P:A5 SP:FB STACK: 00 00 C6 05
CA77  90 03     BCC $CA7C                       A:80 X:00 Y:80 P:A5 SP:FB STACK: 00 00 C6 05
CA79  4C 80 CA  JMP $CA80                       A:80 X:00 Y:80 P:A5 SP:FB STACK: 00 00 C6 05
CA80  EA        NOP                             A:80 X:00 Y:80 P:A5 SP:FB STACK: 00 00 C6 05
CA81  C0 80     CPY #$80                        A:80 X:00 Y:80 P:A5 SP:FB STACK: 00 00 C6 05
CA83  D0 07     BNE $CA8C                       A:80 X:00 Y:80 P:27 SP:FB STACK: 00 00 C6 05
CA85  30 05     BMI $CA8C                       A:80 X:00 Y:80 P:27 SP:FB STACK: 00 00 C6 05
CA87  90 03     BCC $CA8C                       A:80 X:00 Y:80 P:27 SP:FB STACK: 00 00 C6 05
CA89  4C 90 CA  JMP $CA90                       A:80 X:00 Y:80 P:27 SP:FB STACK: 00 00 C6 05
CA90  EA        NOP                             A:80 X:00 Y:80 P:27 SP:FB STACK: 00 00 C6 05
CA91  C0 81     CPY #$81                        A:80 X:00 Y:80 P:27 SP:FB STACK: 00 00 C6 05
CA93  B0 07     BCS $CA9C                       A:80 X:00 Y:80 P:A4 SP:FB STACK: 00 00 C6 05
CA95  F0 05     BEQ $CA9C                       A:80 X:00 Y:80 P:A4 SP:FB STACK: 00 00 C6 05
CA97  10 03     BPL $CA9C                       A:80 X:00 Y:80 P:A4 SP:FB STACK: 00 00 C6 05
CA99  4C A0 CA  JMP $CAA0                       A:80 X:00 Y:80 P:A4 SP:FB STACK: 00 00 C6 05
CAA0  EA        NOP                             A:80 X:00 Y:80 P:A4 SP:FB STACK: 00 00 C6 05
CAA1  C0 7F     CPY #$7F                        A:80 X:00 Y:80 P:A4 SP:FB STACK: 00 00 C6 05
CAA3  90 07     BCC $CAAC                       A:80 X:00 Y:80 P:25 SP:FB STACK: 00 00 C6 05
CAA5  F0 05     BEQ $CAAC                       A:80 X:00 Y:80 P:25 SP:FB STACK: 00 00 C6 05
CAA7  30 03     BMI $CAAC                       A:80 X:00 Y:80 P:25 SP:FB STACK: 00 00 C6 05
CAA9  4C B0 CA  JMP $CAB0                       A:80 X:00 Y:80 P:25 SP:FB STACK: 00 00 C6 05
CAB0  EA        NOP                             A:80 X:00 Y:80 P:25 SP:FB STACK: 00 00 C6 05
CAB1  24 01     BIT $01 = FF                    A:80 X:00 Y:80 P:25 SP:FB STACK: 00 00 C6 05
CAB3  A2 40     LDX #$40                        A:80 X:00 Y:80 P:E5 SP:FB STACK: 00 00 C6 05
CAB5  E0 40     CPX #$40                        A:80 X:40 Y:80 P:65 SP:FB STACK: 00 00 C6 05
CAB7  D0 09     BNE $CAC2                       A:80 X:40 Y:80 P:67 SP:FB STACK: 00 00 C6 05
CAB9  30 07     BMI $CAC2                       A:80 X:40 Y:80 P:67 SP:FB STACK: 00 00 C6 05
CABB  90 05     BCC $CAC2                       A:80 X:40 Y:80 P:67 SP:FB STACK: 00 00 C6 05
CABD  50 03     BVC $CAC2                       A:80 X:40 Y:80 P:67 SP:FB STACK: 00 00 C6 05
CABF  4C C6 CA  JMP $CAC6                       A:80 X:40 Y:80 P:67 SP:FB STACK: 00 00 C6 05
CAC6  EA        NOP                             A:80 X:40 Y:80 P:67 SP:FB STACK: 00 00 C6 05
CAC7  B8        CLV                             A:80 X:40 Y:80 P:67 SP:FB STACK: 00 00 C6 05
CAC8  E0 3F     CPX #$3F                        A:80 X:40 Y:80 P:27 SP:FB STACK: 00 00 C6 05
CACA  F0 09     BEQ $CAD5                       A:80 X:40 Y:80 P:25 SP:FB STACK: 00 00 C6 05
CACC  30 07     BMI $CAD5                       A:80 X:40 Y:80 P:25 SP:FB STACK: 00 00 C6 05
CACE  90 05     BCC $CAD5                       A:80 X:40 Y:80 P:25 SP:FB STACK: 00 00 C6 05
CAD0  70 03     BVS $CAD5                       A:80 X:40 Y:80 P:25 SP:FB STACK: 00 00 C6 05
CAD2  4C D9 CA  JMP $CAD9                       A:80 X:40 Y:80 P:25 SP:FB STACK: 00 00 C6 05
CAD9  EA        NOP                             A:80 X:40 Y:80 P:25 SP:FB STACK: 00 00 C6 05
CADA  E0 41     CPX #$41                        A:80 X:40 Y:80 P:25 SP:FB STACK: 00 00 C6 05
CADC  F0 07     BEQ $CAE5                       A:80 X:40 Y:80 P:A4 SP:FB STACK: 00 00 C6 05
CADE  10 05     BPL $CAE5                       A:80 X:40 Y:80 P:A4 SP:FB STACK: 00 00 C6 05
CAE0  10 03     BPL $CAE5                       A:80 X:40 Y:80 P:A4 SP:FB STACK: 00 00 C6 05
CAE2  4C E9 CA  JMP $CAE9                       A:80 X:40 Y:80 P:A4 SP:FB STACK: 00 00 C6 05
CAE9  EA        NOP                             A:80 X:40 Y:80 P:A4 SP:FB STACK: 00 00 C6 05
CAEA  A2 80     LDX #$80                        A:80 X:40 Y:80 P:A4 SP:FB STACK: 00 00 C6 05
CAEC  E0 00     CPX #$00                        A:80 X:80 Y:80 P:A4 SP:FB STACK: 00 00 C6 05
CAEE  F0 07     BEQ $CAF7                       A:80 X:80 Y:80 P:A5 SP:FB STACK: 00 00 C6 05
CAF0  10 05     BPL $CAF7                       A:80 X:80 Y:80 P:A5 SP:FB STACK: 00 00 C6 05
CAF2  90 03     BCC $CAF7                       A:80 X:80 Y:80 P:A5 SP:FB STACK: 00 00 C6 05
CAF4  4C FB CA  JMP $CAFB                       A:80 X:80 Y:80 P:A5 SP:FB STACK: 00 00 C6 05
CAFB  EA        NOP                             A:80 X:80 Y:80 P:A5 SP:FB STACK: 00 00 C6 05
CAFC  E0 80     CPX #$80                        A:80 X:80 Y:80 P:A5 SP:FB STACK: 00 00 C6 05
CAFE  D0 07     BNE $CB07                       A:80 X:80 Y:80 P:27 SP:FB STACK: 00 00 C6 05
CB00  30 05     BMI $CB07                       A:80 X:80 Y:80 P:27 SP:FB STACK: 00 00 C6 05
CB02  90 03     BCC $CB07                       A:80 X:80 Y:80 P:27 SP:FB STACK: 00 00 C6 05
CB04  4C 0B CB  JMP $CB0B                       A:80 X:80 Y:80 P:27 SP:FB STACK: 00 00 C6 05
CB0B  EA        NOP                             A:80 X:80 Y:80 P:27 SP:FB STACK: 00 00 C6 05
CB0C  E0 81     CPX #$81                        A:80 X:80 Y:80 P:27 SP:FB STACK: 00 00 C6 05
CB0E  B0 07     BCS $CB17                       A:80 X:80 Y:80 P:A4 SP:FB STACK: 00 00 C6 05
CB10  F0 05     BEQ $CB17                       A:80 X:80 Y:80 P:A4 SP:FB STACK: 00 00 C6 05
CB12  10 03     BPL $CB17                       A:80 X:80 Y:80 P:A4 SP:FB STACK: 00 00 C6 05
CB14  4C 1B CB  JMP $CB1B                       A:80 X:80 Y:80 P:A4 SP:FB STACK: 00 00 C6 05
CB1B  EA        NOP                             A:80 X:80 Y:80 P:A4 SP:FB STACK: 00 00 C6 05
CB1C  E0 7F     CPX #$7F                        A:80 X:80 Y:80 P:A4 SP:FB STACK: 00 00 C6 05
CB1E  90 07     BCC $CB27                       A:80 X:80 Y:80 P:25 SP:FB STACK: 00 00 C6 05
CB20  F0 05     BEQ $CB27                       A:80 X:80 Y:80 P:25 SP:FB STACK: 00 00 C6 05
CB22  30 03     BMI $CB27                       A:80 X:80 Y:80 P:25 SP:FB STACK: 00 00 C6 05
CB24  4C 2B CB  JMP $CB2B                       A:80 X:80 Y:80 P:25 SP:FB STACK: 00 00 C6 05
CB2B  EA        NOP                             A:80 X:80 Y:80 P:25 SP:FB STACK: 00 00 C6 05
CB2C  38        SEC                             A:80 X:80 Y:80 P:25 SP:FB STACK: 00 00 C6 05
CB2D  B8        CLV                             A:80 X:80 Y:80 P:25 SP:FB STACK: 00 00 C6 05
CB2E  A2 9F     LDX #$9F                        A:80 X:80 Y:80 P:25 SP:FB STACK: 00 00 C6 05
CB30  F0 09     BEQ $CB3B                       A:80 X:9F Y:80 P:A5 SP:FB STACK: 00 00 C6 05
CB32  10 07     BPL $CB3B                       A:80 X:9F Y:80 P:A5 SP:FB STACK: 00 00 C6 05
CB34  70 05     BVS $CB3B                       A:80 X:9F Y:80 P:A5 SP:FB STACK: 00 00 C6 05
CB36  90 03     BCC $CB3B                       A:80 X:9F Y:80 P:A5 SP:FB STACK: 00 00 C6 05
CB38  4C 3F CB  JMP $CB3F                       A:80 X:9F Y:80 P:A5 SP:FB STACK: 00 00 C6 05
CB3F  EA        NOP                             A:80 X:9F Y:80 P:A5 SP:FB STACK: 00 00 C6 05
CB40  18        CLC                             A:80 X:9F Y:80 P:A5 SP:FB STACK: 00 00 C6 05
CB41  24 01     BIT $01 = FF                    A:80 X:9F Y:80 P:A4 SP:FB STACK: 00 00 C6 05
CB43  A2 00     LDX #$00                        A:80 X:9F Y:80 P:E4 SP:FB STACK: 00 00 C6 05
CB45  D0 09     BNE $CB50                       A:80 X:00 Y:80 P:66 SP:FB STACK: 00 00 C6 05
CB47  30 07     BMI $CB50                       A:80 X:00 Y:80 P:66 SP:FB STACK: 00 00 C6 05
CB49  50 05     BVC $CB50                       A:80 X:00 Y:80 P:66 SP:FB STACK: 00 00 C6 05
CB4B  B0 03     BCS $CB50                       A:80 X:00 Y:80 P:66 SP:FB STACK: 00 00 C6 05
CB4D  4C 54 CB  JMP $CB54                       A:80 X:00 Y:80 P:66 SP:FB STACK: 00 00 C6 05
CB54  EA        NOP                             A:80 X:00 Y:80 P:66 SP:FB STACK: 00 00 C6 05
CB55  38        SEC                             A:80 X:00 Y:80 P:66 SP:FB STACK: 00 00 C6 05
CB56  B8        CLV                             A:80 X:00 Y:80 P:67 SP:FB STACK: 00 00 C6 05
CB57  A0 9F     LDY #$9F                        A:80 X:00 Y:80 P:27 SP:FB STACK: 00 00 C6 05
CB59  F0 09     BEQ $CB64                       A:80 X:00 Y:9F P:A5 SP:FB STACK: 00 00 C6 05
CB5B  10 07     BPL $CB64                       A:80 X:00 Y:9F P:A5 SP:FB STACK: 00 00 C6 05
CB5D  70 05     BVS $CB64                       A:80 X:00 Y:9F P:A5 SP:FB STACK: 00 00 C6 05
CB5F  90 03     BCC $CB64                       A:80 X:00 Y:9F P:A5 SP:FB STACK: 00 00 C6 05
CB61  4C 68 CB  JMP $CB68                       A:80 X:00 Y:9F P:A5 SP:FB STACK: 00 00 C6 05
CB68  EA        NOP                             A:80 X:00 Y:9F P:A5 SP:FB STACK: 00 00 C6 05
CB69  18        CLC                             A:80 X:00 Y:9F P:A5 SP:FB STACK: 00 00 C6 05
CB6A  24 01     BIT $01 = FF                    A:80 X:00 Y:9F P:A4 SP:FB STACK: 00 00 C6 05
CB6C  A0 00     LDY #$00                        A:80 X:00 Y:9F P:E4 SP:FB STACK: 00 00 C6 05
CB6E  D0 09     BNE $CB79                       A:80 X:00 Y:00 P:66 SP:FB STACK: 00 00 C6 05
CB70  30 07     BMI $CB79                       A:80 X:00 Y:00 P:66 SP:FB STACK: 00 00 C6 05
CB72  50 05     BVC $CB79                       A:80 X:00 Y:00 P:66 SP:FB STACK: 00 00 C6 05
CB74  B0 03     BCS $CB79                       A:80 X:00 Y:00 P:66 SP:FB STACK: 00 00 C6 05
CB76  4C 7D CB  JMP $CB7D                       A:80 X:00 Y:00 P:66 SP:FB STACK: 00 00 C6 05
CB7D  EA        NOP                             A:80 X:00 Y:00 P:66 SP:FB STACK: 00 00 C6 05
CB7E  A9 55     LDA #$55                        A:80 X:00 Y:00 P:66 SP:FB STACK: 00 00 C6 05
CB80  A2 AA     LDX #$AA                        A:55 X:00 Y:00 P:64 SP:FB STACK: 00 00 C6 05
CB82  A0 33     LDY #$33                        A:55 X:AA Y:00 P:E4 SP:FB STACK: 00 00 C6 05
CB84  C9 55     CMP #$55                        A:55 X:AA Y:33 P:64 SP:FB STACK: 00 00 C6 05
CB86  D0 23     BNE $CBAB                       A:55 X:AA Y:33 P:67 SP:FB STACK: 00 00 C6 05
CB88  E0 AA     CPX #$AA                        A:55 X:AA Y:33 P:67 SP:FB STACK: 00 00 C6 05
CB8A  D0 1F     BNE $CBAB                       A:55 X:AA Y:33 P:67 SP:FB STACK: 00 00 C6 05
CB8C  C0 33     CPY #$33                        A:55 X:AA Y:33 P:67 SP:FB STACK: 00 00 C6 05
CB8E  D0 1B     BNE $CBAB                       A:55 X:AA Y:33 P:67 SP:FB STACK: 00 00 C6 05
CB90  C9 55     CMP #$55                        A:55 X:AA Y:33 P:67 SP:FB STACK: 00 00 C6 05
CB92  D0 17     BNE $CBAB                       A:55 X:AA Y:33 P:67 SP:FB STACK: 00 00 C6 05
CB94  E0 AA     CPX #$AA                        A:55 X:AA Y:33 P:67 SP:FB STACK: 00 00 C6 05
CB96  D0 13     BNE $CBAB                       A:55 X:AA Y:33 P:67 SP:FB STACK: 00 00 C6 05
CB98  C0 33     CPY #$33                        A:55 X:AA Y:33 P:67 SP:FB STACK: 00 00 C6 05
CB9A  D0 0F     BNE $CBAB                       A:55 X:AA Y:33 P:67 SP:FB STACK: 00 00 C6 05
CB9C  C9 56     CMP #$56                        A:55 X:AA Y:33 P:67 SP:FB STACK: 00 00 C6 05
CB9E  F0 0B     BEQ $CBAB                       A:55 X:AA Y:33 P:E4 SP:FB STACK: 00 00 C6 05
CBA0  E0 AB     CPX #$AB                        A:55 X:AA Y:33 P:E4 SP:FB STACK: 00 00 C6 05
CBA2  F0 07     BEQ $CBAB                       A:55 X:AA Y:33 P:E4 SP:FB STACK: 00 00 C6 05
CBA4  C0 34     CPY #$34                        A:55 X:AA Y:33 P:E4 SP:FB STACK: 00 00 C6 05
CBA6  F0 03     BEQ $CBAB                       A:55 X:AA Y:33 P:E4 SP:FB STACK: 00 00 C6 05
CBA8  4C AF CB  JMP $CBAF                       A:55 X:AA Y:33 P:E4 SP:FB STACK: 00 00 C6 05
CBAF  A0 71     LDY #$71                        A:55 X:AA Y:33 P:E4 SP:FB STACK: 00 00 C6 05
CBB1  20 31 F9  JSR $F931                       A:55 X:AA Y:71 P:64 SP:FB STACK: 00 00 C6 05
F931  24 01     BIT $01 = FF                    A:55 X:AA Y:71 P:64 SP:F9 STACK: 00 00 C6 05 CB B3
F933  A9 40     LDA #$40                        A:55 X:AA Y:71 P:E4 SP:F9 STACK: 00 00 C6 05 CB B3
F935  38        SEC                             A:40 X:AA Y:71 P:64 SP:F9 STACK: 00 00 C6 05 CB B3
F936  60        RTS                             A:40 X:AA Y:71 P:65 SP:F9 STACK: 00 00 C6 05 CB B3
CBB4  E9 40     SBC #$40                        A:40 X:AA Y:71 P:65 SP:FB STACK: 00 00 C6 05
CBB6  20 37 F9  JSR $F937                       A:00 X:AA Y:71 P:27 SP:FB STACK: 00 00 C6 05
F937  30 0B     BMI $F944                       A:00 X:AA Y:71 P:27 SP:F9 STACK: 00 00 C6 05 CB B8
F939  90 09     BCC $F944                       A:00 X:AA Y:71 P:27 SP:F9 STACK: 00 00 C6 05 CB B8
F93B  D0 07     BNE $F944                       A:00 X:AA Y:71 P:27 SP:F9 STACK: 00 00 C6 05 CB B8
F93D  70 05     BVS $F944                       A:00 X:AA Y:71 P:27 SP:F9 STACK: 00 00 C6 05 CB B8
F93F  C9 00     CMP #$00                        A:00 X:AA Y:71 P:27 SP:F9 STACK: 00 00 C6 05 CB B8
F941  D0 01     BNE $F944                       A:00 X:AA Y:71 P:27 SP:F9 STACK: 00 00 C6 05 CB B8
F943  60        RTS                             A:00 X:AA Y:71 P:27 SP:F9 STACK: 00 00 C6 05 CB B8
CBB9  C8        INY                             A:00 X:AA Y:71 P:27 SP:FB STACK: 00 00 C6 05
CBBA  20 47 F9  JSR $F947                       A:00 X:AA Y:71 P:27 SP:FB STACK: 00 00 C6 05
F947  B8        CLV                             A:00 X:AA Y:71 P:27 SP:F9 STACK: 00 00 C6 05 CB BC
F948  38        SEC                             A:00 X:AA Y:71 P:27 SP:F9 STACK: 00 00 C6 05 CB BC
F949  A9 40     LDA #$40                        A:00 X:AA Y:71 P:27 SP:F9 STACK: 00 00 C6 05 CB BC
F94B  60        RTS                             A:40 X:AA Y:71 P:25 SP:F9 STACK: 00 00 C6 05 CB BC
CBBD  E9 3F     SBC #$3F                        A:40 X:AA Y:71 P:25 SP:FB STACK: 00 00 C6 05
CBBF  20 4C F9  JSR $F94C                       A:FF X:AA Y:71 P:A4 SP:FB STACK: 00 00 C6 05
F94C  F0 0B     BEQ $F959                       A:FF X:AA Y:71 P:A4 SP:F9 STACK: 00 00 C6 05 CB C1
F94E  30 09     BMI $F959                       A:FF X:AA Y:71 P:A4 SP:F9 STACK: 00 00 C6 05 CB C1
F959  84 00     STY $00 = 00                    A:FF X:AA Y:71 P:A4 SP:F9 STACK: 00 00 C6 05 CB C1
F95B  60        RTS                             A:FF X:AA Y:71 P:A4 SP:F9 STACK: 00 00 C6 05 CB C1
CBC2  C8        INY                             A:FF X:AA Y:71 P:A4 SP:FB STACK: 00 00 C6 05
CBC3  20 5C F9  JSR $F95C                       A:FF X:AA Y:71 P:A4 SP:FB STACK: 00 00 C6 05
F95C  A9 40     LDA #$40                        A:FF X:AA Y:71 P:A4 SP:F9 STACK: 00 00 C6 05 CB C5
F95E  38        SEC                             A:40 X:AA Y:71 P:24 SP:F9 STACK: 00 00 C6 05 CB C5
F95F  24 01     BIT $01 = FF                    A:40 X:AA Y:71 P:25 SP:F9 STACK: 00 00 C6 05 CB C5
F961  60        RTS                             A:40 X:AA Y:71 P:E5 SP:F9 STACK: 00 00 C6 05 CB C5
CBC6  E9 41     SBC #$41                        A:40 X:AA Y:71 P:E5 SP:FB STACK: 00 00 C6 05
CBC8  20 62 F9  JSR $F962                       A:01 X:AA Y:71 P:25 SP:FB STACK: 00 00 C6 05
F962  B0 0B     BCS $F96F                       A:01 X:AA Y:71 P:25 SP:F9 STACK: 00 00 C6 05 CB CA
F96F  84 00     STY $00 = 71                    A:01 X:AA Y:71 P:25 SP:F9 STACK: 00 00 C6 05 CB CA
F971  60        RTS                             A:01 X:AA Y:71 P:25 SP:F9 STACK: 00 00 C6 05 CB CA
CBCB  C8        INY                             A:01 X:AA Y:71 P:25 SP:FB STACK: 00 00 C6 05
CBCC  20 72 F9  JSR $F972                       A:01 X:AA Y:71 P:25 SP:FB STACK: 00 00 C6 05
F972  18        CLC                             A:01 X:AA Y:71 P:25 SP:F9 STACK: 00 00 C6 05 CB CE
F973  A9 80     LDA #$80                        A:01 X:AA Y:71 P:24 SP:F9 STACK: 00 00 C6 05 CB CE
F975  60        RTS                             A:80 X:AA Y:71 P:A4 SP:F9 STACK: 00 00 C6 05 CB CE
CBCF  E9 00     SBC #$00                        A:80 X:AA Y:71 P:A4 SP:FB STACK: 00 00 C6 05
CBD1  20 76 F9  JSR $F976                       A:81 X:AA Y:71 P:E4 SP:FB STACK: 00 00 C6 05
F976  90 05     BCC $F97D                       A:81 X:AA Y:71 P:E4 SP:F9 STACK: 00 00 C6 05 CB D3
F97D  84 00     STY $00 = 71                    A:81 X:AA Y:71 P:E4 SP:F9 STACK: 00 00 C6 05 CB D3
F97F  60        RTS                             A:81 X:AA Y:71 P:E4 SP:F9 STACK: 00 00 C6 05 CB D3
CBD4  C8        INY                             A:81 X:AA Y:71 P:E4 SP:FB STACK: 00 00 C6 05
CBD5  20 80 F9  JSR $F980                       A:81 X:AA Y:71 P:E4 SP:FB STACK: 00 00 C6 05
F980  38        SEC                             A:81 X:AA Y:71 P:E4 SP:F9 STACK: 00 00 C6 05 CB D7
F981  A9 81     LDA #$81                        A:81 X:AA Y:71 P:E5 SP:F9 STACK: 00 00 C6 05 CB D7
F983  60        RTS                             A:81 X:AA Y:71 P:E5 SP:F9 STACK: 00 00 C6 05 CB D7
CBD8  E9 7F     SBC #$7F                        A:81 X:AA Y:71 P:E5 SP:FB STACK: 00 00 C6 05
CBDA  20 84 F9  JSR $F984                       A:FE X:AA Y:71 P:E4 SP:FB STACK: 00 00 C6 05
F984  50 07     BVC $F98D                       A:FE X:AA Y:71 P:E4 SP:F9 STACK: 00 00 C6 05 CB DC
F986  90 05     BCC $F98D                       A:FE X:AA Y:71 P:E4 SP:F9 STACK: 00 00 C6 05 CB DC
F98D  84 00     STY $00 = 71                    A:FE X:AA Y:71 P:E4 SP:F9 STACK: 00 00 C6 05 CB DC
F98F  60        RTS                             A:FE X:AA Y:71 P:E4 SP:F9 STACK: 00 00 C6 05 CB DC
CBDD  60        RTS                             A:FE X:AA Y:71 P:E4 SP:FB STACK: 00 00 C6 05
C606  20 DE CB  JSR $CBDE                       A:FE X:AA Y:71 P:E4 SP:FD STACK: 00 00
CBDE  EA        NOP                             A:FE X:AA Y:71 P:E4 SP:FB STACK: 00 00 C6 08
CBDF  A9 FF     LDA #$FF                        A:FE X:AA Y:71 P:E4 SP:FB STACK: 00 00 C6 08
CBE1  85 01     STA $01 = FF                    A:FF X:AA Y:71 P:E4 SP:FB STACK: 00 00 C6 08
CBE3  A9 44     LDA #$44                        A:FF X:AA Y:71 P:E4 SP:FB STACK: 00 00 C6 08
CBE5  A2 55     LDX #$55                        A:44 X:AA Y:71 P:64 SP:FB STACK: 00 00 C6 08
CBE7  A0 66     LDY #$66                        A:44 X:55 Y:71 P:64 SP:FB STACK: 00 00 C6 08
CBE9  E8        INX                             A:44 X:55 Y:66 P:64 SP:FB STACK: 00 00 C6 08
CBEA  88        DEY                             A:44 X:55 Y:66 P:64 SP:FB STACK: 00 00 C6 08
CBEB  E0 56     CPX #$56                        A:44 X:55 Y:66 P:64 SP:FB STACK: 00 00 C6 08
CBED  D0 21     BNE $CC10                       A:44 X:55 Y:66 P:E4 SP:FB STACK: 00 00 C6 08
CC10  A2 3E     LDX #$3E                        A:44 X:55 Y:66 P:E4 SP:FB STACK: 00 00 C6 08
CC12  86 00     STX $00 = 71                    A:44 X:3E Y:66 P:64 SP:FB STACK: 00 00 C6 08
CC14  EA        NOP                             A:44 X:3E Y:66 P:64 SP:FB STACK: 00 00 C6 08
CC15  38        SEC                             A:44 X:3E Y:66 P:64 SP:FB STACK: 00 00 C6 08
CC16  A2 69     LDX #$69                        A:44 X:3E Y:66 P:65 SP:FB STACK: 00 00 C6 08
CC18  A9 96     LDA #$96                        A:44 X:69 Y:66 P:65 SP:FB STACK: 00 00 C6 08
CC1A  24 01     BIT $01 = FF                    A:96 X:69 Y:66 P:E5 SP:FB STACK: 00 00 C6 08
CC1C  A0 FF     LDY #$FF                        A:96 X:69 Y:66 P:E5 SP:FB STACK: 00 00 C6 08
CC1E  C8        INY                             A:96 X:69 Y:FF P:E5 SP:FB STACK: 00 00 C6 08
CC1F  D0 3D     BNE $CC5E                       A:96 X:69 Y:FF P:E5 SP:FB STACK: 00 00 C6 08
CC5E  A2 3F     LDX #$3F                        A:96 X:69 Y:FF P:E5 SP:FB STACK: 00 00 C6 08
CC60  86 00     STX $00 = 3E                    A:96 X:3F Y:FF P:65 SP:FB STACK: 00 00 C6 08
CC62  EA        NOP                             A:96 X:3F Y:FF P:65 SP:FB STACK: 00 00 C6 08
CC63  38        SEC                             A:96 X:3F Y:FF P:65 SP:FB STACK: 00 00 C6 08
CC64  A0 69     LDY #$69                        A:96 X:3F Y:FF P:65 SP:FB STACK: 00 00 C6 08
CC66  A9 96     LDA #$96                        A:96 X:3F Y:69 P:65 SP:FB STACK: 00 00 C6 08
CC68  24 01     BIT $01 = FF                    A:96 X:3F Y:69 P:E5 SP:FB STACK: 00 00 C6 08
CC6A  A2 FF     LDX #$FF                        A:96 X:3F Y:69 P:E5 SP:FB STACK: 00 00 C6 08
CC6C  E8        INX                             A:96 X:FF Y:69 P:E5 SP:FB STACK: 00 00 C6 08
CC6D  D0 3D     BNE $CCAC                       A:96 X:FF Y:69 P:E5 SP:FB STACK: 00 00 C6 08
CCAC  A2 40     LDX #$40                        A:96 X:FF Y:69 P:E5 SP:FB STACK: 00 00 C6 08
CCAE  86 00     STX $00 = 3F                    A:96 X:40 Y:69 P:65 SP:FB STACK: 00 00 C6 08
CCB0  EA        NOP                             A:96 X:40 Y:69 P:65 SP:FB STACK: 00 00 C6 08
CCB1  A9 85     LDA #$85                        A:96 X:40 Y:69 P:65 SP:FB STACK: 00 00 C6 08
CCB3  A2 34     LDX #$34                        A:85 X:40 Y:69 P:E5 SP:FB STACK: 00 00 C6 08
CCB5  A0 99     LDY #$99                        A:85 X:34 Y:69 P:65 SP:FB STACK: 00 00 C6 08
CCB7  18        CLC                             A:85 X:34 Y:99 P:E5 SP:FB STACK: 00 00 C6 08
CCB8  24 01     BIT $01 = FF                    A:85 X:34 Y:99 P:E4 SP:FB STACK: 00 00 C6 08
CCBA  A8        TAY                             A:85 X:34 Y:99 P:E4 SP:FB STACK: 00 00 C6 08
CCBB  F0 2E     BEQ $CCEB                       A:85 X:34 Y:85 P:E4 SP:FB STACK: 00 00 C6 08
CCBD  B0 2C     BCS $CCEB                       A:85 X:34 Y:85 P:E4 SP:FB STACK: 00 00 C6 08
CCBF  50 2A     BVC $CCEB                       A:85 X:34 Y:85 P:E4 SP:FB STACK: 00 00 C6 08
CCC1  10 28     BPL $CCEB                       A:85 X:34 Y:85 P:E4 SP:FB STACK: 00 00 C6 08
CCC3  C9 85     CMP #$85                        A:85 X:34 Y:85 P:E4 SP:FB STACK: 00 00 C6 08
CCC5  D0 24     BNE $CCEB                       A:85 X:34 Y:85 P:67 SP:FB STACK: 00 00 C6 08
CCC7  E0 34     CPX #$34                        A:85 X:34 Y:85 P:67 SP:FB STACK: 00 00 C6 08
CCC9  D0 20     BNE $CCEB                       A:85 X:34 Y:85 P:67 SP:FB STACK: 00 00 C6 08
CCCB  C0 85     CPY #$85                        A:85 X:34 Y:85 P:67 SP:FB STACK: 00 00 C6 08
CCCD  D0 1C     BNE $CCEB                       A:85 X:34 Y:85 P:67 SP:FB STACK: 00 00 C6 08
CCCF  A9 00     LDA #$00                        A:85 X:34 Y:85 P:67 SP:FB STACK: 00 00 C6 08
CCD1  38        SEC                             A:00 X:34 Y:85 P:67 SP:FB STACK: 00 00 C6 08
CCD2  B8        CLV                             A:00 X:34 Y:85 P:67 SP:FB STACK: 00 00 C6 08
CCD3  A8        TAY                             A:00 X:34 Y:85 P:27 SP:FB STACK: 00 00 C6 08
CCD4  D0 15     BNE $CCEB                       A:00 X:34 Y:00 P:27 SP:FB STACK: 00 00 C6 08
CCD6  90 13     BCC $CCEB                       A:00 X:34 Y:00 P:27 SP:FB STACK: 00 00 C6 08
CCD8  70 11     BVS $CCEB                       A:00 X:34 Y:00 P:27 SP:FB STACK: 00 00 C6 08
CCDA  30 0F     BMI $CCEB                       A:00 X:34 Y:00 P:27 SP:FB STACK: 00 00 C6 08
CCDC  C9 00     CMP #$00                        A:00 X:34 Y:00 P:27 SP:FB STACK: 00 00 C6 08
CCDE  D0 0B     BNE $CCEB                       A:00 X:34 Y:00 P:27 SP:FB STACK: 00 00 C6 08
CCE0  E0 34     CPX #$34                        A:00 X:34 Y:00 P:27 SP:FB STACK: 00 00 C6 08
CCE2  D0 07     BNE $CCEB                       A:00 X:34 Y:00 P:27 SP:FB STACK: 00 00 C6 08
CCE4  C0 00     CPY #$00                        A:00 X:34 Y:00 P:27 SP:FB STACK: 00 00 C6 08
CCE6  D0 03     BNE $CCEB                       A:00 X:34 Y:00 P:27 SP:FB STACK: 00 00 C6 08
CCE8  4C EF CC  JMP $CCEF                       A:00 X:34 Y:00 P:27 SP:FB STACK: 00 00 C6 08
CCEF  EA        NOP                             A:00 X:34 Y:00 P:27 SP:FB STACK: 00 00 C6 08
CCF0  A9 85     LDA #$85                        A:00 X:34 Y:00 P:27 SP:FB STACK: 00 00 C6 08
CCF2  A2 34     LDX #$34                        A:85 X:34 Y:00 P:A5 SP:FB STACK: 00 00 C6 08
CCF4  A0 99     LDY #$99                        A:85 X:34 Y:00 P:25 SP:FB STACK: 00 00 C6 08
CCF6  18        CLC                             A:85 X:34 Y:99 P:A5 SP:FB STACK: 00 00 C6 08
CCF7  24 01     BIT $01 = FF                    A:85 X:34 Y:99 P:A4 SP:FB STACK: 00 00 C6 08
CCF9  AA        TAX                             A:85 X:34 Y:99 P:E4 SP:FB STACK: 00 00 C6 08
CCFA  F0 2E     BEQ $CD2A                       A:85 X:85 Y:99 P:E4 SP:FB STACK: 00 00 C6 08
CCFC  B0 2C     BCS $CD2A                       A:85 X:85 Y:99 P:E4 SP:FB STACK: 00 00 C6 08
CCFE  50 2A     BVC $CD2A                       A:85 X:85 Y:99 P:E4 SP:FB STACK: 00 00 C6 08
CD00  10 28     BPL $CD2A                       A:85 X:85 Y:99 P:E4 SP:FB STACK: 00 00 C6 08
CD02  C9 85     CMP #$85                        A:85 X:85 Y:99 P:E4 SP:FB STACK: 00 00 C6 08
CD04  D0 24     BNE $CD2A                       A:85 X:85 Y:99 P:67 SP:FB STACK: 00 00 C6 08
CD06  E0 85     CPX #$85                        A:85 X:85 Y:99 P:67 SP:FB STACK: 00 00 C6 08
CD08  D0 20     BNE $CD2A                       A:85 X:85 Y:99 P:67 SP:FB STACK: 00 00 C6 08
CD0A  C0 99     CPY #$99                        A:85 X:85 Y:99 P:67 SP:FB STACK: 00 00 C6 08
CD0C  D0 1C     BNE $CD2A                       A:85 X:85 Y:99 P:67 SP:FB STACK: 00 00 C6 08
CD0E  A9 00     LDA #$00                        A:85 X:85 Y:99 P:67 SP:FB STACK: 00 00 C6 08
CD10  38        SEC                             A:00 X:85 Y:99 P:67 SP:FB STACK: 00 00 C6 08
CD11  B8        CLV                             A:00 X:85 Y:99 P:67 SP:FB STACK: 00 00 C6 08
CD12  AA        TAX                             A:00 X:85 Y:99 P:27 SP:FB STACK: 00 00 C6 08
CD13  D0 15     BNE $CD2A                       A:00 X:00 Y:99 P:27 SP:FB STACK: 00 00 C6 08
CD15  90 13     BCC $CD2A                       A:00 X:00 Y:99 P:27 SP:FB STACK: 00 00 C6 08
CD17  70 11     BVS $CD2A                       A:00 X:00 Y:99 P:27 SP:FB STACK: 00 00 C6 08
CD19  30 0F     BMI $CD2A                       A:00 X:00 Y:99 P:27 SP:FB STACK: 00 00 C6 08
CD1B  C9 00     CMP #$00                        A:00 X:00 Y:99 P:27 SP:FB STACK: 00 00 C6 08
CD1D  D0 0B     BNE $CD2A                       A:00 X:00 Y:99 P:27 SP:FB STACK: 00 00 C6 08
CD1F  E0 00     CPX #$00                        A:00 X:00 Y:99 P:27 SP:FB STACK: 00 00 C6 08
CD21  D0 07     BNE $CD2A                       A:00 X:00 Y:99 P:27 SP:FB STACK: 00 00 C6 08
CD23  C0 99     CPY #$99                        A:00 X:00 Y:99 P:27 SP:FB STACK: 00 00 C6 08
CD25  D0 03     BNE $CD2A                       A:00 X:00 Y:99 P:27 SP:FB STACK: 00 00 C6 08
CD27  4C 2E CD  JMP $CD2E                       A:00 X:00 Y:99 P:27 SP:FB STACK: 00 00 C6 08
CD2E  EA        NOP                             A:00 X:00 Y:99 P:27 SP:FB STACK: 00 00 C6 08
CD2F  A9 85     LDA #$85                        A:00 X:00 Y:99 P:27 SP:FB STACK: 00 00 C6 08
CD31  A2 34     LDX #$34                        A:85 X:00 Y:99 P:A5 SP:FB STACK: 00 00 C6 08
CD33  A0 99     LDY #$99                        A:85 X:34 Y:99 P:25 SP:FB STACK: 00 00 C6 08
CD35  18        CLC                             A:85 X:34 Y:99 P:A5 SP:FB STACK: 00 00 C6 08
CD36  24 01     BIT $01 = FF                    A:85 X:34 Y:99 P:A4 SP:FB STACK: 00 00 C6 08
CD38  98        TYA                             A:85 X:34 Y:99 P:E4 SP:FB STACK: 00 00 C6 08
CD39  F0 2E     BEQ $CD69                       A:99 X:34 Y:99 P:E4 SP:FB STACK: 00 00 C6 08
CD3B  B0 2C     BCS $CD69                       A:99 X:34 Y:99 P:E4 SP:FB STACK: 00 00 C6 08
CD3D  50 2A     BVC $CD69                       A:99 X:34 Y:99 P:E4 SP:FB STACK: 00 00 C6 08
CD3F  10 28     BPL $CD69                       A:99 X:34 Y:99 P:E4 SP:FB STACK: 00 00 C6 08
CD41  C9 99     CMP #$99                        A:99 X:34 Y:99 P:E4 SP:FB STACK: 00 00 C6 08
CD43  D0 24     BNE $CD69                       A:99 X:34 Y:99 P:67 SP:FB STACK: 00 00 C6 08
CD45  E0 34     CPX #$34                        A:99 X:34 Y:99 P:67 SP:FB STACK: 00 00 C6 08
CD47  D0 20     BNE $CD69                       A:99 X:34 Y:99 P:67 SP:FB STACK: 00 00 C6 08
CD49  C0 99     CPY #$99                        A:99 X:34 Y:99 P:67 SP:FB STACK: 00 00 C6 08
CD4B  D0 1C     BNE $CD69                       A:99 X:34 Y:99 P:67 SP:FB STACK: 00 00 C6 08
CD4D  A0 00     LDY #$00                        A:99 X:34 Y:99 P:67 SP:FB STACK: 00 00 C6 08
CD4F  38        SEC                             A:99 X:34 Y:00 P:67 SP:FB STACK: 00 00 C6 08
CD50  B8        CLV                             A:99 X:34 Y:00 P:67 SP:FB STACK: 00 00 C6 08
CD51  98        TYA                             A:99 X:34 Y:00 P:27 SP:FB STACK: 00 00 C6 08
CD52  D0 15     BNE $CD69                       A:00 X:34 Y:00 P:27 SP:FB STACK: 00 00 C6 08
CD54  90 13     BCC $CD69                       A:00 X:34 Y:00 P:27 SP:FB STACK: 00 00 C6 08
CD56  70 11     BVS $CD69                       A:00 X:34 Y:00 P:27 SP:FB STACK: 00 00 C6 08
CD58  30 0F     BMI $CD69                       A:00 X:34 Y:00 P:27 SP:FB STACK: 00 00 C6 08
CD5A  C9 00     CMP #$00                        A:00 X:34 Y:00 P:27 SP:FB STACK: 00 00 C6 08
CD5C  D0 0B     BNE $CD69                       A:00 X:34 Y:00 P:27 SP:FB STACK: 00 00 C6 08
CD5E  E0 34     CPX #$34                        A:00 X:34 Y:00 P:27 SP:FB STACK: 00 00 C6 08
CD60  D0 07     BNE $CD69                       A:00 X:34 Y:00 P:27 SP:FB STACK: 00 00 C6 08
CD62  C0 00     CPY #$00                        A:00 X:34 Y:00 P:27 SP:FB STACK: 00 00 C6 08
CD64  D0 03     BNE $CD69                       A:00 X:34 Y:00 P:27 SP:FB STACK: 00 00 C6 08
CD66  4C 6D CD  JMP $CD6D                       A:00 X:34 Y:00 P:27 SP:FB STACK: 00 00 C6 08
CD6D  EA        NOP                             A:00 X:34 Y:00 P:27 SP:FB STACK: 00 00 C6 08
CD6E  A9 85     LDA #$85                        A:00 X:34 Y:00 P:27 SP:FB STACK: 00 00 C6 08
CD70  A2 34     LDX #$34                        A:85 X:34 Y:00 P:A5 SP:FB STACK: 00 00 C6 08
CD72  A0 99     LDY #$99                        A:85 X:34 Y:00 P:25 SP:FB STACK: 00 00 C6 08
CD74  18        CLC                             A:85 X:34 Y:99 P:A5 SP:FB STACK: 00 00 C6 08
CD75  24 01     BIT $01 = FF                    A:85 X:34 Y:99 P:A4 SP:FB STACK: 00 00 C6 08
CD77  8A        TXA                             A:85 X:34 Y:99 P:E4 SP:FB STACK: 00 00 C6 08
CD78  F0 2E     BEQ $CDA8                       A:34 X:34 Y:99 P:64 SP:FB STACK: 00 00 C6 08
CD7A  B0 2C     BCS $CDA8                       A:34 X:34 Y:99 P:64 SP:FB STACK: 00 00 C6 08
CD7C  50 2A     BVC $CDA8                       A:34 X:34 Y:99 P:64 SP:FB STACK: 00 00 C6 08
CD7E  30 28     BMI $CDA8                       A:34 X:34 Y:99 P:64 SP:FB STACK: 00 00 C6 08
CD80  C9 34     CMP #$34                        A:34 X:34 Y:99 P:64 SP:FB STACK: 00 00 C6 08
CD82  D0 24     BNE $CDA8                       A:34 X:34 Y:99 P:67 SP:FB STACK: 00 00 C6 08
CD84  E0 34     CPX #$34                        A:34 X:34 Y:99 P:67 SP:FB STACK: 00 00 C6 08
CD86  D0 20     BNE $CDA8                       A:34 X:34 Y:99 P:67 SP:FB STACK: 00 00 C6 08
CD88  C0 99     CPY #$99                        A:34 X:34 Y:99 P:67 SP:FB STACK: 00 00 C6 08
CD8A  D0 1C     BNE $CDA8                       A:34 X:34 Y:99 P:67 SP:FB STACK: 00 00 C6 08
CD8C  A2 00     LDX #$00                        A:34 X:34 Y:99 P:67 SP:FB STACK: 00 00 C6 08
CD8E  38        SEC                             A:34 X:00 Y:99 P:67 SP:FB STACK: 00 00 C6 08
CD8F  B8        CLV                             A:34 X:00 Y:99 P:67 SP:FB STACK: 00 00 C6 08
CD90  8A        TXA                             A:34 X:00 Y:99 P:27 SP:FB STACK: 00 00 C6 08
CD91  D0 15     BNE $CDA8                       A:00 X:00 Y:99 P:27 SP:FB STACK: 00 00 C6 08
CD93  90 13     BCC $CDA8                       A:00 X:00 Y:99 P:27 SP:FB STACK: 00 00 C6 08
CD95  70 11     BVS $CDA8                       A:00 X:00 Y:99 P:27 SP:FB STACK: 00 00 C6 08
CD97  30 0F     BMI $CDA8                       A:00 X:00 Y:99 P:27 SP:FB STACK: 00 00 C6 08
CD99  C9 00     CMP #$00                        A:00 X:00 Y:99 P:27 SP:FB STACK: 00 00 C6 08
CD9B  D0 0B     BNE $CDA8                       A:00 X:00 Y:99 P:27 SP:FB STACK: 00 00 C6 08
CD9D  E0 00     CPX #$00                        A:00 X:00 Y:99 P:27 SP:FB STACK: 00 00 C6 08
CD9F  D0 07     BNE $CDA8                       A:00 X:00 Y:99 P:27 SP:FB STACK: 00 00 C6 08
CDA1  C0 99     CPY #$99                        A:00 X:00 Y:99 P:27 SP:FB STACK: 00 00 C6 08
CDA3  D0 03     BNE $CDA8                       A:00 X:00 Y:99 P:27 SP:FB STACK: 00 00 C6 08
CDA5  4C AC CD  JMP $CDAC                       A:00 X:00 Y:99 P:27 SP:FB STACK: 00 00 C6 08
CDAC  EA        NOP                             A:00 X:00 Y:99 P:27 SP:FB STACK: 00 00 C6 08
CDAD  BA        TSX                             A:00 X:00 Y:99 P:27 SP:FB STACK: 00 00 C6 08
CDAE  8E FF 07  STX $07FF = 00                  A:00 X:FB Y:99 P:A5 SP:FB STACK: 00 00 C6 08
CDB1  A0 33     LDY #$33                        A:00 X:FB Y:99 P:A5 SP:FB STACK: 00 00 C6 08
CDB3  A2 69     LDX #$69                        A:00 X:FB Y:33 P:25 SP:FB STACK: 00 00 C6 08
CDB5  A9 84     LDA #$84                        A:00 X:69 Y:33 P:25 SP:FB STACK: 00 00 C6 08
CDB7  18        CLC                             A:84 X:69 Y:33 P:A5 SP:FB STACK: 00 00 C6 08
CDB8  24 01     BIT $01 = FF                    A:84 X:69 Y:33 P:A4 SP:FB STACK: 00 00 C6 08
CDBA  9A        TXS                             A:84 X:69 Y:33 P:E4 SP:FB STACK: 00 00 C6 08
CDBB  F0 32     BEQ $CDEF                       A:84 X:69 Y:33 P:64 SP:69 STACK: 00 00 C6 08 CB DC 00 00 00 00 00 00 00 00 00 00 00 00 00 00 00 00 00 00 00 00 00 00 00 00 00 00 00 00 00 00 00 00 00 00 00 00 00 00 00 00 00 00 00 00 00 00 00 00 00 00 00 00 00 00 00 00 00 00 00 00 00 00 00 00 00 00 00 00 00 00 00 00 00 00 00 00 00 00 00 00 00 00 00 00 00 00 00 00 00 00 00 00 00 00 00 00 00 00 00 00 00 00 00 00 00 00 00 00 00 00 00 00 00 00 00 00 00 00 00 00 00 00 00 00 00 00 00 00 00 00 00 00 00 00 00 00 00 00 00 00 00 00 00 00
CDBD  10 30     BPL $CDEF                       A:84 X:69 Y:33 P:64 SP:69 STACK: 00 00 C6 08 CB DC 00 00 00 00 00 00 00 00 00 00 00 00 00 00 00 00 00 00 00 00 00 00 00 00 00 00 00 00 00 00 00 00 00 00 00 00 00 00 00 00 00 00 00 00 00 00 00 00 00 00 00 00 00 00 00 00 00 00 00 00 00 00 00 00 00 00 00 00 00 00 00 00 00 00 00 00 00 00 00 00 00 00 00 00 00 00 00 00 00 00 00 00 00 00 00 00 00 00 00 00 00 00 00 00 00 00 00 00 00 00 00 00 00 00 00 00 00 00 00 00 00 00 00 00 00 00 00 00 00 00 00 00 00 00 00 00 00 00 00 00 00 00 00 00
CDEF  A2 45     LDX #$45                        A:84 X:69 Y:33 P:64 SP:69 STACK: 00 00 C6 08 CB DC 00 00 00 00 00 00 00 00 00 00 00 00 00 00 00 00 00 00 00 00 00 00 00 00 00 00 00 00 00 00 00 00 00 00 00 00 00 00 00 00 00 00 00 00 00 00 00 00 00 00 00 00 00 00 00 00 00 00 00 00 00 00 00 00 00 00 00 00 00 00 00 00 00 00 00 00 00 00 00 00 00 00 00 00 00 00 00 00 00 00 00 00 00 00 00 00 00 00 00 00 00 00 00 00 00 00 00 00 00 00 00 00 00 00 00 00 00 00 00 00 00 00 00 00 00 00 00 00 00 00 00 00 00 00 00 00 00 00 00 00 00 00 00 00
CDF1  86 00     STX $00 = 40                    A:84 X:45 Y:33 P:64 SP:69 STACK: 00 00 C6 08 CB DC 00 00 00 00 00 00 00 00 00 00 00 00 00 00 00 00 00 00 00 00 00 00 00 00 00 00 00 00 00 00 00 00 00 00 00 00 00 00 00 00 00 00 00 00 00 00 00 00 00 00 00 00 00 00 00 00 00 00 00 00 00 00 00 00 00 00 00 00 00 00 00 00 00 00 00 00 00 00 00 00 00 00 00 00 00 00 00 00 00 00 00 00 00 00 00 00 00 00 00 00 00 00 00 00 00 00 00 00 00 00 00 00 00 00 00 00 00 00 00 00 00 00 00 00 00 00 00 00 00 00 00 00 00 00 00 00 00 00 00 00 00 00 00 00
CDF3  AE FF 07  LDX $07FF = FB                  A:84 X:45 Y:33 P:64 SP:69 STACK: 00 00 C6 08 CB DC 00 00 00 00 00 00 00 00 00 00 00 00 00 00 00 00 00 00 00 00 00 00 00 00 00 00 00 00 00 00 00 00 00 00 00 00 00 00 00 00 00 00 00 00 00 00 00 00 00 00 00 00 00 00 00 00 00 00 00 00 00 00 00 00 00 00 00 00 00 00 00 00 00 00 00 00 00 00 00 00 00 00 00 00 00 00 00 00 00 00 00 00 00 00 00 00 00 00 00 00 00 00 00 00 00 00 00 00 00 00 00 00 00 00 00 00 00 00 00 00 00 00 00 00 00 00 00 00 00 00 00 00 00 00 00 00 00 00 00 00 00 00 00 00
CDF6  9A        TXS                             A:84 X:FB Y:33 P:E4 SP:69 STACK: 00 00 C6 08 CB DC 00 00 00 00 00 00 00 00 00 00 00 00 00 00 00 00 00 00 00 00 00 00 00 00 00 00 00 00 00 00 00 00 00 00 00 00 00 00 00 00 00 00 00 00 00 00 00 00 00 00 00 00 00 00 00 00 00 00 00 00 00 00 00 00 00 00 00 00 00 00 00 00 00 00 00 00 00 00 00 00 00 00 00 00 00 00 00 00 00 00 00 00 00 00 00 00 00 00 00 00 00 00 00 00 00 00 00 00 00 00 00 00 00 00 00 00 00 00 00 00 00 00 00 00 00 00 00 00 00 00 00 00 00 00 00 00 00 00 00 00 00 00 00 00
CDF7  60        RTS                             A:84 X:FB Y:33 P:E4 SP:FB STACK: 00 00 C6 08
C609  20 F8 CD  JSR $CDF8                       A:84 X:FB Y:33 P:E4 SP:FD STACK: 00 00
CDF8  A9 FF     LDA #$FF                        A:84 X:FB Y:33 P:E4 SP:FB STACK: 00 00 C6 0B
CDFA  85 01     STA $01 = FF                    A:FF X:FB Y:33 P:E4 SP:FB STACK: 00 00 C6 0B
CDFC  BA        TSX                             A:FF X:FB Y:33 P:E4 SP:FB STACK: 00 00 C6 0B
CDFD  8E FF 07  STX $07FF = FB                  A:FF X:FB Y:33 P:E4 SP:FB STACK: 00 00 C6 0B
CE00  EA        NOP                             A:FF X:FB Y:33 P:E4 SP:FB STACK: 00 00 C6 0B
CE01  A2 80     LDX #$80                        A:FF X:FB Y:33 P:E4 SP:FB STACK: 00 00 C6 0B
CE03  9A        TXS                             A:FF X:80 Y:33 P:E4 SP:FB STACK: 00 00 C6 0B
CE04  A9 33     LDA #$33                        A:FF X:80 Y:33 P:E4 SP:80 STACK: 00 00 C6 0B CB DC 00 00 00 00 00 00 00 00 00 00 00 00 00 00 00 00 00 00 00 00 00 00 00 00 00 00 00 00 00 00 00 00 00 00 00 00 00 00 00 00 00 00 00 00 00 00 00 00 00 00 00 00 00 00 00 00 00 00 00 00 00 00 00 00 00 00 00 00 00 00 00 00 00 00 00 00 00 00 00 00 00 00 00 00 00 00 00 00 00 00 00 00 00 00 00 00 00 00 00 00 00 00 00 00 00 00 00 00 00 00 00 00 00 00 00 00 00 00 00 00 00
CE06  48        PHA                             A:33 X:80 Y:33 P:64 SP:80 STACK: 00 00 C6 0B CB DC 00 00 00 00 00 00 00 00 00 00 00 00 00 00 00 00 00 00 00 00 00 00 00 00 00 00 00 00 00 00 00 00 00 00 00 00 00 00 00 00 00 00 00 00 00 00 00 00 00 00 00 00 00 00 00 00 00 00 00 00 00 00 00 00 00 00 00 00 00 00 00 00 00 00 00 00 00 00 00 00 00 00 00 00 00 00 00 00 00 00 00 00 00 00 00 00 00 00 00 00 00 00 00 00 00 00 00 00 00 00 00 00 00 00 00 00 00 00 00 00 00
CE07  A9 69     LDA #$69                        A:33 X:80 Y:33 P:64 SP:7F STACK: 00 00 C6 0B CB DC 00 00 00 00 00 00 00 00 00 00 00 00 00 00 00 00 00 00 00 00 00 00 00 00 00 00 00 00 00 00 00 00 00 00 00 00 00 00 00 00 00 00 00 00 00 00 00 00 00 00 00 00 00 00 00 00 00 00 00 00 00 00 00 00 00 00 00 00 00 00 00 00 00 00 00 00 00 00 00 00 00 00 00 00 00 00 00 00 00 00 00 00 00 00 00 00 00 00 00 00 00 00 00 00 00 00 00 00 00 00 00 00 00 00 00 00 00 00 00 00 00 33
CE09  48        PHA                             A:69 X:80 Y:33 P:64 SP:7F STACK: 00 00 C6 0B CB DC 00 00 00 00 00 00 00 00 00 00 00 00 00 00 00 00 00 00 00 00 00 00 00 00 00 00 00 00 00 00 00 00 00 00 00 00 00 00 00 00 00 00 00 00 00 00 00 00 00 00 00 00 00 00 00 00 00 00 00 00 00 00 00 00 00 00 00 00 00 00 00 00 00 00 00 00 00 00 00 00 00 00 00 00 00 00 00 00 00 00 00 00 00 00 00 00 00 00 00 00 00 00 00 00 00 00 00 00 00 00 00 00 00 00 00 00 00 00 00 00 00 33
CE0A  BA        TSX                             A:69 X:80 Y:33 P:64 SP:7E STACK: 00 00 C6 0B CB DC 00 00 00 00 00 00 00 00 00 00 00 00 00 00 00 00 00 00 00 00 00 00 00 00 00 00 00 00 00 00 00 00 00 00 00 00 00 00 00 00 00 00 00 00 00 00 00 00 00 00 00 00 00 00 00 00 00 00 00 00 00 00 00 00 00 00 00 00 00 00 00 00 00 00 00 00 00 00 00 00 00 00 00 00 00 00 00 00 00 00 00 00 00 00 00 00 00 00 00 00 00 00 00 00 00 00 00 00 00 00 00 00 00 00 00 00 00 00 00 00 00 33 69
CE0B  E0 7E     CPX #$7E                        A:69 X:7E Y:33 P:64 SP:7E STACK: 00 00 C6 0B CB DC 00 00 00 00 00 00 00 00 00 00 00 00 00 00 00 00 00 00 00 00 00 00 00 00 00 00 00 00 00 00 00 00 00 00 00 00 00 00 00 00 00 00 00 00 00 00 00 00 00 00 00 00 00 00 00 00 00 00 00 00 00 00 00 00 00 00 00 00 00 00 00 00 00 00 00 00 00 00 00 00 00 00 00 00 00 00 00 00 00 00 00 00 00 00 00 00 00 00 00 00 00 00 00 00 00 00 00 00 00 00 00 00 00 00 00 00 00 00 00 00 00 33 69
CE0D  D0 20     BNE $CE2F                       A:69 X:7E Y:33 P:67 SP:7E STACK: 00 00 C6 0B CB DC 00 00 00 00 00 00 00 00 00 00 00 00 00 00 00 00 00 00 00 00 00 00 00 00 00 00 00 00 00 00 00 00 00 00 00 00 00 00 00 00 00 00 00 00 00 00 00 00 00 00 00 00 00 00 00 00 00 00 00 00 00 00 00 00 00 00 00 00 00 00 00 00 00 00 00 00 00 00 00 00 00 00 00 00 00 00 00 00 00 00 00 00 00 00 00 00 00 00 00 00 00 00 00 00 00 00 00 00 00 00 00 00 00 00 00 00 00 00 00 00 00 33 69
CE0F  68        PLA                             A:69 X:7E Y:33 P:67 SP:7E STACK: 00 00 C6 0B CB DC 00 00 00 00 00 00 00 00 00 00 00 00 00 00 00 00 00 00 00 00 00 00 00 00 00 00 00 00 00 00 00 00 00 00 00 00 00 00 00 00 00 00 00 00 00 00 00 00 00 00 00 00 00 00 00 00 00 00 00 00 00 00 00 00 00 00 00 00 00 00 00 00 00 00 00 00 00 00 00 00 00 00 00 00 00 00 00 00 00 00 00 00 00 00 00 00 00 00 00 00 00 00 00 00 00 00 00 00 00 00 00 00 00 00 00 00 00 00 00 00 00 33 69
CE10  C9 69     CMP #$69                        A:69 X:7E Y:33 P:65 SP:7F STACK: 00 00 C6 0B CB DC 00 00 00 00 00 00 00 00 00 00 00 00 00 00 00 00 00 00 00 00 00 00 00 00 00 00 00 00 00 00 00 00 00 00 00 00 00 00 00 00 00 00 00 00 00 00 00 00 00 00 00 00 00 00 00 00 00 00 00 00 00 00 00 00 00 00 00 00 00 00 00 00 00 00 00 00 00 00 00 00 00 00 00 00 00 00 00 00 00 00 00 00 00 00 00 00 00 00 00 00 00 00 00 00 00 00 00 00 00 00 00 00 00 00 00 00 00 00 00 00 00 33
CE12  D0 1B     BNE $CE2F                       A:69 X:7E Y:33 P:67 SP:7F STACK: 00 00 C6 0B CB DC 00 00 00 00 00 00 00 00 00 00 00 00 00 00 00 00 00 00 00 00 00 00 00 00 00 00 00 00 00 00 00 00 00 00 00 00 00 00 00 00 00 00 00 00 00 00 00 00 00 00 00 00 00 00 00 00 00 00 00 00 00 00 00 00 00 00 00 00 00 00 00 00 00 00 00 00 00 00 00 00 00 00 00 00 00 00 00 00 00 00 00 00 00 00 00 00 00 00 00 00 00 00 00 00 00 00 00 00 00 00 00 00 00 00 00 00 00 00 00 00 00 33
CE14  68        PLA                             A:69 X:7E Y:33 P:67 SP:7F STACK: 00 00 C6 0B CB DC 00 00 00 00 00 00 00 00 00 00 00 00 00 00 00 00 00 00 00 00 00 00 00 00 00 00 00 00 00 00 00 00 00 00 00 00 00 00 00 00 00 00 00 00 00 00 00 00 00 00 00 00 00 00 00 00 00 00 00 00 00 00 00 00 00 00 00 00 00 00 00 00 00 00 00 00 00 00 00 00 00 00 00 00 00 00 00 00 00 00 00 00 00 00 00 00 00 00 00 00 00 00 00 00 00 00 00 00 00 00 00 00 00 00 00 00 00 00 00 00 00 33
CE15  C9 33     CMP #$33                        A:33 X:7E Y:33 P:65 SP:80 STACK: 00 00 C6 0B CB DC 00 00 00 00 00 00 00 00 00 00 00 00 00 00 00 00 00 00 00 00 00 00 00 00 00 00 00 00 00 00 00 00 00 00 00 00 00 00 00 00 00 00 00 00 00 00 00 00 00 00 00 00 00 00 00 00 00 00 00 00 00 00 00 00 00 00 00 00 00 00 00 00 00 00 00 00 00 00 00 00 00 00 00 00 00 00 00 00 00 00 00 00 00 00 00 00 00 00 00 00 00 00 00 00 00 00 00 00 00 00 00 00 00 00 00 00 00 00 00 00 00
CE17  D0 16     BNE $CE2F                       A:33 X:7E Y:33 P:67 SP:80 STACK: 00 00 C6 0B CB DC 00 00 00 00 00 00 00 00 00 00 00 00 00 00 00 00 00 00 00 00 00 00 00 00 00 00 00 00 00 00 00 00 00 00 00 00 00 00 00 00 00 00 00 00 00 00 00 00 00 00 00 00 00 00 00 00 00 00 00 00 00 00 00 00 00 00 00 00 00 00 00 00 00 00 00 00 00 00 00 00 00 00 00 00 00 00 00 00 00 00 00 00 00 00 00 00 00 00 00 00 00 00 00 00 00 00 00 00 00 00 00 00 00 00 00 00 00 00 00 00 00
CE19  BA        TSX                             A:33 X:7E Y:33 P:67 SP:80 STACK: 00 00 C6 0B CB DC 00 00 00 00 00 00 00 00 00 00 00 00 00 00 00 00 00 00 00 00 00 00 00 00 00 00 00 00 00 00 00 00 00 00 00 00 00 00 00 00 00 00 00 00 00 00 00 00 00 00 00 00 00 00 00 00 00 00 00 00 00 00 00 00 00 00 00 00 00 00 00 00 00 00 00 00 00 00 00 00 00 00 00 00 00 00 00 00 00 00 00 00 00 00 00 00 00 00 00 00 00 00 00 00 00 00 00 00 00 00 00 00 00 00 00 00 00 00 00 00 00
CE1A  E0 80     CPX #$80                        A:33 X:80 Y:33 P:E5 SP:80 STACK: 00 00 C6 0B CB DC 00 00 00 00 00 00 00 00 00 00 00 00 00 00 00 00 00 00 00 00 00 00 00 00 00 00 00 00 00 00 00 00 00 00 00 00 00 00 00 00 00 00 00 00 00 00 00 00 00 00 00 00 00 00 00 00 00 00 00 00 00 00 00 00 00 00 00 00 00 00 00 00 00 00 00 00 00 00 00 00 00 00 00 00 00 00 00 00 00 00 00 00 00 00 00 00 00 00 00 00 00 00 00 00 00 00 00 00 00 00 00 00 00 00 00 00 00 00 00 00 00
CE1C  D0 11     BNE $CE2F                       A:33 X:80 Y:33 P:67 SP:80 STACK: 00 00 C6 0B CB DC 00 00 00 00 00 00 00 00 00 00 00 00 00 00 00 00 00 00 00 00 00 00 00 00 00 00 00 00 00 00 00 00 00 00 00 00 00 00 00 00 00 00 00 00 00 00 00 00 00 00 00 00 00 00 00 00 00 00 00 00 00 00 00 00 00 00 00 00 00 00 00 00 00 00 00 00 00 00 00 00 00 00 00 00 00 00 00 00 00 00 00 00 00 00 00 00 00 00 00 00 00 00 00 00 00 00 00 00 00 00 00 00 00 00 00 00 00 00 00 00 00
CE1E  AD 80 01  LDA $0180 = 33                  A:33 X:80 Y:33 P:67 SP:80 STACK: 00 00 C6 0B CB DC 00 00 00 00 00 00 00 00 00 00 00 00 00 00 00 00 00 00 00 00 00 00 00 00 00 00 00 00 00 00 00 00 00 00 00 00 00 00 00 00 00 00 00 00 00 00 00 00 00 00 00 00 00 00 00 00 00 00 00 00 00 00 00 00 00 00 00 00 00 00 00 00 00 00 00 00 00 00 00 00 00 00 00 00 00 00 00 00 00 00 00 00 00 00 00 00 00 00 00 00 00 00 00 00 00 00 00 00 00 00 00 00 00 00 00 00 00 00 00 00 00
CE21  C9 33     CMP #$33                        A:33 X:80 Y:33 P:65 SP:80 STACK: 00 00 C6 0B CB DC 00 00 00 00 00 00 00 00 00 00 00 00 00 00 00 00 00 00 00 00 00 00 00 00 00 00 00 00 00 00 00 00 00 00 00 00 00 00 00 00 00 00 00 00 00 00 00 00 00 00 00 00 00 00 00 00 00 00 00 00 00 00 00 00 00 00 00 00 00 00 00 00 00 00 00 00 00 00 00 00 00 00 00 00 00 00 00 00 00 00 00 00 00 00 00 00 00 00 00 00 00 00 00 00 00 00 00 00 00 00 00 00 00 00 00 00 00 00 00 00 00
CE23  D0 0A     BNE $CE2F                       A:33 X:80 Y:33 P:67 SP:80 STACK: 00 00 C6 0B CB DC 00 00 00 00 00 00 00 00 00 00 00 00 00 00 00 00 00 00 00 00 00 00 00 00 00 00 00 00 00 00 00 00 00 00 00 00 00 00 00 00 00 00 00 00 00 00 00 00 00 00 00 00 00 00 00 00 00 00 00 00 00 00 00 00 00 00 00 00 00 00 00 00 00 00 00 00 00 00 00 00 00 00 00 00 00 00 00 00 00 00 00 00 00 00 00 00 00 00 00 00 00 00 00 00 00 00 00 00 00 00 00 00 00 00 00 00 00 00 00 00 00
CE25  AD 7F 01  LDA $017F = 69                  A:33 X:80 Y:33 P:67 SP:80 STACK: 00 00 C6 0B CB DC 00 00 00 00 00 00 00 00 00 00 00 00 00 00 00 00 00 00 00 00 00 00 00 00 00 00 00 00 00 00 00 00 00 00 00 00 00 00 00 00 00 00 00 00 00 00 00 00 00 00 00 00 00 00 00 00 00 00 00 00 00 00 00 00 00 00 00 00 00 00 00 00 00 00 00 00 00 00 00 00 00 00 00 00 00 00 00 00 00 00 00 00 00 00 00 00 00 00 00 00 00 00 00 00 00 00 00 00 00 00 00 00 00 00 00 00 00 00 00 00 00
CE28  C9 69     CMP #$69                        A:69 X:80 Y:33 P:65 SP:80 STACK: 00 00 C6 0B CB DC 00 00 00 00 00 00 00 00 00 00 00 00 00 00 00 00 00 00 00 00 00 00 00 00 00 00 00 00 00 00 00 00 00 00 00 00 00 00 00 00 00 00 00 00 00 00 00 00 00 00 00 00 00 00 00 00 00 00 00 00 00 00 00 00 00 00 00 00 00 00 00 00 00 00 00 00 00 00 00 00 00 00 00 00 00 00 00 00 00 00 00 00 00 00 00 00 00 00 00 00 00 00 00 00 00 00 00 00 00 00 00 00 00 00 00 00 00 00 00 00 00
CE2A  D0 03     BNE $CE2F                       A:69 X:80 Y:33 P:67 SP:80 STACK: 00 00 C6 0B CB DC 00 00 00 00 00 00 00 00 00 00 00 00 00 00 00 00 00 00 00 00 00 00 00 00 00 00 00 00 00 00 00 00 00 00 00 00 00 00 00 00 00 00 00 00 00 00 00 00 00 00 00 00 00 00 00 00 00 00 00 00 00 00 00 00 00 00 00 00 00 00 00 00 00 00 00 00 00 00 00 00 00 00 00 00 00 00 00 00 00 00 00 00 00 00 00 00 00 00 00 00 00 00 00 00 00 00 00 00 00 00 00 00 00 00 00 00 00 00 00 00 00
CE2C  4C 33 CE  JMP $CE33                       A:69 X:80 Y:33 P:67 SP:80 STACK: 00 00 C6 0B CB DC 00 00 00 00 00 00 00 00 00 00 00 00 00 00 00 00 00 00 00 00 00 00 00 00 00 00 00 00 00 00 00 00 00 00 00 00 00 00 00 00 00 00 00 00 00 00 00 00 00 00 00 00 00 00 00 00 00 00 00 00 00 00 00 00 00 00 00 00 00 00 00 00 00 00 00 00 00 00 00 00 00 00 00 00 00 00 00 00 00 00 00 00 00 00 00 00 00 00 00 00 00 00 00 00 00 00 00 00 00 00 00 00 00 00 00 00 00 00 00 00 00
CE33  EA        NOP                             A:69 X:80 Y:33 P:67 SP:80 STACK: 00 00 C6 0B CB DC 00 00 00 00 00 00 00 00 00 00 00 00 00 00 00 00 00 00 00 00 00 00 00 00 00 00 00 00 00 00 00 00 00 00 00 00 00 00 00 00 00 00 00 00 00 00 00 00 00 00 00 00 00 00 00 00 00 00 00 00 00 00 00 00 00 00 00 00 00 00 00 00 00 00 00 00 00 00 00 00 00 00 00 00 00 00 00 00 00 00 00 00 00 00 00 00 00 00 00 00 00 00 00 00 00 00 00 00 00 00 00 00 00 00 00 00 00 00 00 00 00
CE34  A2 80     LDX #$80                        A:69 X:80 Y:33 P:67 SP:80 STACK: 00 00 C6 0B CB DC 00 00 00 00 00 00 00 00 00 00 00 00 00 00 00 00 00 00 00 00 00 00 00 00 00 00 00 00 00 00 00 00 00 00 00 00 00 00 00 00 00 00 00 00 00 00 00 00 00 00 00 00 00 00 00 00 00 00 00 00 00 00 00 00 00 00 00 00 00 00 00 00 00 00 00 00 00 00 00 00 00 00 00 00 00 00 00 00 00 00 00 00 00 00 00 00 00 00 00 00 00 00 00 00 00 00 00 00 00 00 00 00 00 00 00 00 00 00 00 00 00
CE36  9A        TXS                             A:69 X:80 Y:33 P:E5 SP:80 STACK: 00 00 C6 0B CB DC 00 00 00 00 00 00 00 00 00 00 00 00 00 00 00 00 00 00 00 00 00 00 00 00 00 00 00 00 00 00 00 00 00 00 00 00 00 00 00 00 00 00 00 00 00 00 00 00 00 00 00 00 00 00 00 00 00 00 00 00 00 00 00 00 00 00 00 00 00 00 00 00 00 00 00 00 00 00 00 00 00 00 00 00 00 00 00 00 00 00 00 00 00 00 00 00 00 00 00 00 00 00 00 00 00 00 00 00 00 00 00 00 00 00 00 00 00 00 00 00 00
CE37  20 3D CE  JSR $CE3D                       A:69 X:80 Y:33 P:E5 SP:80 STACK: 00 00 C6 0B CB DC 00 00 00 00 00 00 00 00 00 00 00 00 00 00 00 00 00 00 00 00 00 00 00 00 00 00 00 00 00 00 00 00 00 00 00 00 00 00 00 00 00 00 00 00 00 00 00 00 00 00 00 00 00 00 00 00 00 00 00 00 00 00 00 00 00 00 00 00 00 00 00 00 00 00 00 00 00 00 00 00 00 00 00 00 00 00 00 00 00 00 00 00 00 00 00 00 00 00 00 00 00 00 00 00 00 00 00 00 00 00 00 00 00 00 00 00 00 00 00 00 00
CE3D  BA        TSX                             A:69 X:80 Y:33 P:E5 SP:7E STACK: 00 00 C6 0B CB DC 00 00 00 00 00 00 00 00 00 00 00 00 00 00 00 00 00 00 00 00 00 00 00 00 00 00 00 00 00 00 00 00 00 00 00 00 00 00 00 00 00 00 00 00 00 00 00 00 00 00 00 00 00 00 00 00 00 00 00 00 00 00 00 00 00 00 00 00 00 00 00 00 00 00 00 00 00 00 00 00 00 00 00 00 00 00 00 00 00 00 00 00 00 00 00 00 00 00 00 00 00 00 00 00 00 00 00 00 00 00 00 00 00 00 00 00 00 00 00 00 00 CE 39
CE3E  E0 7E     CPX #$7E                        A:69 X:7E Y:33 P:65 SP:7E STACK: 00 00 C6 0B CB DC 00 00 00 00 00 00 00 00 00 00 00 00 00 00 00 00 00 00 00 00 00 00 00 00 00 00 00 00 00 00 00 00 00 00 00 00 00 00 00 00 00 00 00 00 00 00 00 00 00 00 00 00 00 00 00 00 00 00 00 00 00 00 00 00 00 00 00 00 00 00 00 00 00 00 00 00 00 00 00 00 00 00 00 00 00 00 00 00 00 00 00 00 00 00 00 00 00 00 00 00 00 00 00 00 00 00 00 00 00 00 00 00 00 00 00 00 00 00 00 00 00 CE 39
CE40  D0 19     BNE $CE5B                       A:69 X:7E Y:33 P:67 SP:7E STACK: 00 00 C6 0B CB DC 00 00 00 00 00 00 00 00 00 00 00 00 00 00 00 00 00 00 00 00 00 00 00 00 00 00 00 00 00 00 00 00 00 00 00 00 00 00 00 00 00 00 00 00 00 00 00 00 00 00 00 00 00 00 00 00 00 00 00 00 00 00 00 00 00 00 00 00 00 00 00 00 00 00 00 00 00 00 00 00 00 00 00 00 00 00 00 00 00 00 00 00 00 00 00 00 00 00 00 00 00 00 00 00 00 00 00 00 00 00 00 00 00 00 00 00 00 00 00 00 00 CE 39
CE42  68        PLA                             A:69 X:7E Y:33 P:67 SP:7E STACK: 00 00 C6 0B CB DC 00 00 00 00 00 00 00 00 00 00 00 00 00 00 00 00 00 00 00 00 00 00 00 00 00 00 00 00 00 00 00 00 00 00 00 00 00 00 00 00 00 00 00 00 00 00 00 00 00 00 00 00 00 00 00 00 00 00 00 00 00 00 00 00 00 00 00 00 00 00 00 00 00 00 00 00 00 00 00 00 00 00 00 00 00 00 00 00 00 00 00 00 00 00 00 00 00 00 00 00 00 00 00 00 00 00 00 00 00 00 00 00 00 00 00 00 00 00 00 00 00 CE 39
CE43  68        PLA                             A:39 X:7E Y:33 P:65 SP:7F STACK: 00 00 C6 0B CB DC 00 00 00 00 00 00 00 00 00 00 00 00 00 00 00 00 00 00 00 00 00 00 00 00 00 00 00 00 00 00 00 00 00 00 00 00 00 00 00 00 00 00 00 00 00 00 00 00 00 00 00 00 00 00 00 00 00 00 00 00 00 00 00 00 00 00 00 00 00 00 00 00 00 00 00 00 00 00 00 00 00 00 00 00 00 00 00 00 00 00 00 00 00 00 00 00 00 00 00 00 00 00 00 00 00 00 00 00 00 00 00 00 00 00 00 00 00 00 00 00 00 CE
CE44  BA        TSX                             A:CE X:7E Y:33 P:E5 SP:80 STACK: 00 00 C6 0B CB DC 00 00 00 00 00 00 00 00 00 00 00 00 00 00 00 00 00 00 00 00 00 00 00 00 00 00 00 00 00 00 00 00 00 00 00 00 00 00 00 00 00 00 00 00 00 00 00 00 00 00 00 00 00 00 00 00 00 00 00 00 00 00 00 00 00 00 00 00 00 00 00 00 00 00 00 00 00 00 00 00 00 00 00 00 00 00 00 00 00 00 00 00 00 00 00 00 00 00 00 00 00 00 00 00 00 00 00 00 00 00 00 00 00 00 00 00 00 00 00 00 00
CE45  E0 80     CPX #$80                        A:CE X:80 Y:33 P:E5 SP:80 STACK: 00 00 C6 0B CB DC 00 00 00 00 00 00 00 00 00 00 00 00 00 00 00 00 00 00 00 00 00 00 00 00 00 00 00 00 00 00 00 00 00 00 00 00 00 00 00 00 00 00 00 00 00 00 00 00 00 00 00 00 00 00 00 00 00 00 00 00 00 00 00 00 00 00 00 00 00 00 00 00 00 00 00 00 00 00 00 00 00 00 00 00 00 00 00 00 00 00 00 00 00 00 00 00 00 00 00 00 00 00 00 00 00 00 00 00 00 00 00 00 00 00 00 00 00 00 00 00 00
CE47  D0 12     BNE $CE5B                       A:CE X:80 Y:33 P:67 SP:80 STACK: 00 00 C6 0B CB DC 00 00 00 00 00 00 00 00 00 00 00 00 00 00 00 00 00 00 00 00 00 00 00 00 00 00 00 00 00 00 00 00 00 00 00 00 00 00 00 00 00 00 00 00 00 00 00 00 00 00 00 00 00 00 00 00 00 00 00 00 00 00 00 00 00 00 00 00 00 00 00 00 00 00 00 00 00 00 00 00 00 00 00 00 00 00 00 00 00 00 00 00 00 00 00 00 00 00 00 00 00 00 00 00 00 00 00 00 00 00 00 00 00 00 00 00 00 00 00 00 00
CE49  A9 00     LDA #$00                        A:CE X:80 Y:33 P:67 SP:80 STACK: 00 00 C6 0B CB DC 00 00 00 00 00 00 00 00 00 00 00 00 00 00 00 00 00 00 00 00 00 00 00 00 00 00 00 00 00 00 00 00 00 00 00 00 00 00 00 00 00 00 00 00 00 00 00 00 00 00 00 00 00 00 00 00 00 00 00 00 00 00 00 00 00 00 00 00 00 00 00 00 00 00 00 00 00 00 00 00 00 00 00 00 00 00 00 00 00 00 00 00 00 00 00 00 00 00 00 00 00 00 00 00 00 00 00 00 00 00 00 00 00 00 00 00 00 00 00 00 00
CE4B  20 4E CE  JSR $CE4E                       A:00 X:80 Y:33 P:67 SP:80 STACK: 00 00 C6 0B CB DC 00 00 00 00 00 00 00 00 00 00 00 00 00 00 00 00 00 00 00 00 00 00 00 00 00 00 00 00 00 00 00 00 00 00 00 00 00 00 00 00 00 00 00 00 00 00 00 00 00 00 00 00 00 00 00 00 00 00 00 00 00 00 00 00 00 00 00 00 00 00 00 00 00 00 00 00 00 00 00 00 00 00 00 00 00 00 00 00 00 00 00 00 00 00 00 00 00 00 00 00 00 00 00 00 00 00 00 00 00 00 00 00 00 00 00 00 00 00 00 00 00
CE4E  68        PLA                             A:00 X:80 Y:33 P:67 SP:7E STACK: 00 00 C6 0B CB DC 00 00 00 00 00 00 00 00 00 00 00 00 00 00 00 00 00 00 00 00 00 00 00 00 00 00 00 00 00 00 00 00 00 00 00 00 00 00 00 00 00 00 00 00 00 00 00 00 00 00 00 00 00 00 00 00 00 00 00 00 00 00 00 00 00 00 00 00 00 00 00 00 00 00 00 00 00 00 00 00 00 00 00 00 00 00 00 00 00 00 00 00 00 00 00 00 00 00 00 00 00 00 00 00 00 00 00 00 00 00 00 00 00 00 00 00 00 00 00 00 00 CE 4D
CE4F  C9 4D     CMP #$4D                        A:4D X:80 Y:33 P:65 SP:7F STACK: 00 00 C6 0B CB DC 00 00 00 00 00 00 00 00 00 00 00 00 00 00 00 00 00 00 00 00 00 00 00 00 00 00 00 00 00 00 00 00 00 00 00 00 00 00 00 00 00 00 00 00 00 00 00 00 00 00 00 00 00 00 00 00 00 00 00 00 00 00 00 00 00 00 00 00 00 00 00 00 00 00 00 00 00 00 00 00 00 00 00 00 00 00 00 00 00 00 00 00 00 00 00 00 00 00 00 00 00 00 00 00 00 00 00 00 00 00 00 00 00 00 00 00 00 00 00 00 00 CE
CE51  D0 08     BNE $CE5B                       A:4D X:80 Y:33 P:67 SP:7F STACK: 00 00 C6 0B CB DC 00 00 00 00 00 00 00 00 00 00 00 00 00 00 00 00 00 00 00 00 00 00 00 00 00 00 00 00 00 00 00 00 00 00 00 00 00 00 00 00 00 00 00 00 00 00 00 00 00 00 00 00 00 00 00 00 00 00 00 00 00 00 00 00 00 00 00 00 00 00 00 00 00 00 00 00 00 00 00 00 00 00 00 00 00 00 00 00 00 00 00 00 00 00 00 00 00 00 00 00 00 00 00 00 00 00 00 00 00 00 00 00 00 00 00 00 00 00 00 00 00 CE
CE53  68        PLA                             A:4D X:80 Y:33 P:67 SP:7F STACK: 00 00 C6 0B CB DC 00 00 00 00 00 00 00 00 00 00 00 00 00 00 00 00 00 00 00 00 00 00 00 00 00 00 00 00 00 00 00 00 00 00 00 00 00 00 00 00 00 00 00 00 00 00 00 00 00 00 00 00 00 00 00 00 00 00 00 00 00 00 00 00 00 00 00 00 00 00 00 00 00 00 00 00 00 00 00 00 00 00 00 00 00 00 00 00 00 00 00 00 00 00 00 00 00 00 00 00 00 00 00 00 00 00 00 00 00 00 00 00 00 00 00 00 00 00 00 00 00 CE
CE54  C9 CE     CMP #$CE                        A:CE X:80 Y:33 P:E5 SP:80 STACK: 00 00 C6 0B CB DC 00 00 00 00 00 00 00 00 00 00 00 00 00 00 00 00 00 00 00 00 00 00 00 00 00 00 00 00 00 00 00 00 00 00 00 00 00 00 00 00 00 00 00 00 00 00 00 00 00 00 00 00 00 00 00 00 00 00 00 00 00 00 00 00 00 00 00 00 00 00 00 00 00 00 00 00 00 00 00 00 00 00 00 00 00 00 00 00 00 00 00 00 00 00 00 00 00 00 00 00 00 00 00 00 00 00 00 00 00 00 00 00 00 00 00 00 00 00 00 00 00
CE56  D0 03     BNE $CE5B                       A:CE X:80 Y:33 P:67 SP:80 STACK: 00 00 C6 0B CB DC 00 00 00 00 00 00 00 00 00 00 00 00 00 00 00 00 00 00 00 00 00 00 00 00 00 00 00 00 00 00 00 00 00 00 00 00 00 00 00 00 00 00 00 00 00 00 00 00 00 00 00 00 00 00 00 00 00 00 00 00 00 00 00 00 00 00 00 00 00 00 00 00 00 00 00 00 00 00 00 00 00 00 00 00 00 00 00 00 00 00 00 00 00 00 00 00 00 00 00 00 00 00 00 00 00 00 00 00 00 00 00 00 00 00 00 00 00 00 00 00 00
CE58  4C 5F CE  JMP $CE5F                       A:CE X:80 Y:33 P:67 SP:80 STACK: 00 00 C6 0B CB DC 00 00 00 00 00 00 00 00 00 00 00 00 00 00 00 00 00 00 00 00 00 00 00 00 00 00 00 00 00 00 00 00 00 00 00 00 00 00 00 00 00 00 00 00 00 00 00 00 00 00 00 00 00 00 00 00 00 00 00 00 00 00 00 00 00 00 00 00 00 00 00 00 00 00 00 00 00 00 00 00 00 00 00 00 00 00 00 00 00 00 00 00 00 00 00 00 00 00 00 00 00 00 00 00 00 00 00 00 00 00 00 00 00 00 00 00 00 00 00 00 00
CE5F  EA        NOP                             A:CE X:80 Y:33 P:67 SP:80 STACK: 00 00 C6 0B CB DC 00 00 00 00 00 00 00 00 00 00 00 00 00 00 00 00 00 00 00 00 00 00 00 00 00 00 00 00 00 00 00 00 00 00 00 00 00 00 00 00 00 00 00 00 00 00 00 00 00 00 00 00 00 00 00 00 00 00 00 00 00 00 00 00 00 00 00 00 00 00 00 00 00 00 00 00 00 00 00 00 00 00 00 00 00 00 00 00 00 00 00 00 00 00 00 00 00 00 00 00 00 00 00 00 00 00 00 00 00 00 00 00 00 00 00 00 00 00 00 00 00
CE60  A9 CE     LDA #$CE                        A:CE X:80 Y:33 P:67 SP:80 STACK: 00 00 C6 0B CB DC 00 00 00 00 00 00 00 00 00 00 00 00 00 00 00 00 00 00 00 00 00 00 00 00 00 00 00 00 00 00 00 00 00 00 00 00 00 00 00 00 00 00 00 00 00 00 00 00 00 00 00 00 00 00 00 00 00 00 00 00 00 00 00 00 00 00 00 00 00 00 00 00 00 00 00 00 00 00 00 00 00 00 00 00 00 00 00 00 00 00 00 00 00 00 00 00 00 00 00 00 00 00 00 00 00 00 00 00 00 00 00 00 00 00 00 00 00 00 00 00 00
CE62  48        PHA                             A:CE X:80 Y:33 P:E5 SP:80 STACK: 00 00 C6 0B CB DC 00 00 00 00 00 00 00 00 00 00 00 00 00 00 00 00 00 00 00 00 00 00 00 00 00 00 00 00 00 00 00 00 00 00 00 00 00 00 00 00 00 00 00 00 00 00 00 00 00 00 00 00 00 00 00 00 00 00 00 00 00 00 00 00 00 00 00 00 00 00 00 00 00 00 00 00 00 00 00 00 00 00 00 00 00 00 00 00 00 00 00 00 00 00 00 00 00 00 00 00 00 00 00 00 00 00 00 00 00 00 00 00 00 00 00 00 00 00 00 00 00
CE63  A9 66     LDA #$66                        A:CE X:80 Y:33 P:E5 SP:7F STACK: 00 00 C6 0B CB DC 00 00 00 00 00 00 00 00 00 00 00 00 00 00 00 00 00 00 00 00 00 00 00 00 00 00 00 00 00 00 00 00 00 00 00 00 00 00 00 00 00 00 00 00 00 00 00 00 00 00 00 00 00 00 00 00 00 00 00 00 00 00 00 00 00 00 00 00 00 00 00 00 00 00 00 00 00 00 00 00 00 00 00 00 00 00 00 00 00 00 00 00 00 00 00 00 00 00 00 00 00 00 00 00 00 00 00 00 00 00 00 00 00 00 00 00 00 00 00 00 00 CE
CE65  48        PHA                             A:66 X:80 Y:33 P:65 SP:7F STACK: 00 00 C6 0B CB DC 00 00 00 00 00 00 00 00 00 00 00 00 00 00 00 00 00 00 00 00 00 00 00 00 00 00 00 00 00 00 00 00 00 00 00 00 00 00 00 00 00 00 00 00 00 00 00 00 00 00 00 00 00 00 00 00 00 00 00 00 00 00 00 00 00 00 00 00 00 00 00 00 00 00 00 00 00 00 00 00 00 00 00 00 00 00 00 00 00 00 00 00 00 00 00 00 00 00 00 00 00 00 00 00 00 00 00 00 00 00 00 00 00 00 00 00 00 00 00 00 00 CE
CE66  60        RTS                             A:66 X:80 Y:33 P:65 SP:7E STACK: 00 00 C6 0B CB DC 00 00 00 00 00 00 00 00 00 00 00 00 00 00 00 00 00 00 00 00 00 00 00 00 00 00 00 00 00 00 00 00 00 00 00 00 00 00 00 00 00 00 00 00 00 00 00 00 00 00 00 00 00 00 00 00 00 00 00 00 00 00 00 00 00 00 00 00 00 00 00 00 00 00 00 00 00 00 00 00 00 00 00 00 00 00 00 00 00 00 00 00 00 00 00 00 00 00 00 00 00 00 00 00 00 00 00 00 00 00 00 00 00 00 00 00 00 00 00 00 00 CE 66
CE67  A2 77     LDX #$77                        A:66 X:80 Y:33 P:65 SP:80 STACK: 00 00 C6 0B CB DC 00 00 00 00 00 00 00 00 00 00 00 00 00 00 00 00 00 00 00 00 00 00 00 00 00 00 00 00 00 00 00 00 00 00 00 00 00 00 00 00 00 00 00 00 00 00 00 00 00 00 00 00 00 00 00 00 00 00 00 00 00 00 00 00 00 00 00 00 00 00 00 00 00 00 00 00 00 00 00 00 00 00 00 00 00 00 00 00 00 00 00 00 00 00 00 00 00 00 00 00 00 00 00 00 00 00 00 00 00 00 00 00 00 00 00 00 00 00 00 00 00
CE69  A0 69     LDY #$69                        A:66 X:77 Y:33 P:65 SP:80 STACK: 00 00 C6 0B CB DC 00 00 00 00 00 00 00 00 00 00 00 00 00 00 00 00 00 00 00 00 00 00 00 00 00 00 00 00 00 00 00 00 00 00 00 00 00 00 00 00 00 00 00 00 00 00 00 00 00 00 00 00 00 00 00 00 00 00 00 00 00 00 00 00 00 00 00 00 00 00 00 00 00 00 00 00 00 00 00 00 00 00 00 00 00 00 00 00 00 00 00 00 00 00 00 00 00 00 00 00 00 00 00 00 00 00 00 00 00 00 00 00 00 00 00 00 00 00 00 00 00
CE6B  18        CLC                             A:66 X:77 Y:69 P:65 SP:80 STACK: 00 00 C6 0B CB DC 00 00 00 00 00 00 00 00 00 00 00 00 00 00 00 00 00 00 00 00 00 00 00 00 00 00 00 00 00 00 00 00 00 00 00 00 00 00 00 00 00 00 00 00 00 00 00 00 00 00 00 00 00 00 00 00 00 00 00 00 00 00 00 00 00 00 00 00 00 00 00 00 00 00 00 00 00 00 00 00 00 00 00 00 00 00 00 00 00 00 00 00 00 00 00 00 00 00 00 00 00 00 00 00 00 00 00 00 00 00 00 00 00 00 00 00 00 00 00 00 00
CE6C  24 01     BIT $01 = FF                    A:66 X:77 Y:69 P:64 SP:80 STACK: 00 00 C6 0B CB DC 00 00 00 00 00 00 00 00 00 00 00 00 00 00 00 00 00 00 00 00 00 00 00 00 00 00 00 00 00 00 00 00 00 00 00 00 00 00 00 00 00 00 00 00 00 00 00 00 00 00 00 00 00 00 00 00 00 00 00 00 00 00 00 00 00 00 00 00 00 00 00 00 00 00 00 00 00 00 00 00 00 00 00 00 00 00 00 00 00 00 00 00 00 00 00 00 00 00 00 00 00 00 00 00 00 00 00 00 00 00 00 00 00 00 00 00 00 00 00 00 00
CE6E  A9 83     LDA #$83                        A:66 X:77 Y:69 P:E4 SP:80 STACK: 00 00 C6 0B CB DC 00 00 00 00 00 00 00 00 00 00 00 00 00 00 00 00 00 00 00 00 00 00 00 00 00 00 00 00 00 00 00 00 00 00 00 00 00 00 00 00 00 00 00 00 00 00 00 00 00 00 00 00 00 00 00 00 00 00 00 00 00 00 00 00 00 00 00 00 00 00 00 00 00 00 00 00 00 00 00 00 00 00 00 00 00 00 00 00 00 00 00 00 00 00 00 00 00 00 00 00 00 00 00 00 00 00 00 00 00 00 00 00 00 00 00 00 00 00 00 00 00
CE70  20 66 CE  JSR $CE66                       A:83 X:77 Y:69 P:E4 SP:80 STACK: 00 00 C6 0B CB DC 00 00 00 00 00 00 00 00 00 00 00 00 00 00 00 00 00 00 00 00 00 00 00 00 00 00 00 00 00 00 00 00 00 00 00 00 00 00 00 00 00 00 00 00 00 00 00 00 00 00 00 00 00 00 00 00 00 00 00 00 00 00 00 00 00 00 00 00 00 00 00 00 00 00 00 00 00 00 00 00 00 00 00 00 00 00 00 00 00 00 00 00 00 00 00 00 00 00 00 00 00 00 00 00 00 00 00 00 00 00 00 00 00 00 00 00 00 00 00 00 00
CE66  60        RTS                             A:83 X:77 Y:69 P:E4 SP:7E STACK: 00 00 C6 0B CB DC 00 00 00 00 00 00 00 00 00 00 00 00 00 00 00 00 00 00 00 00 00 00 00 00 00 00 00 00 00 00 00 00 00 00 00 00 00 00 00 00 00 00 00 00 00 00 00 00 00 00 00 00 00 00 00 00 00 00 00 00 00 00 00 00 00 00 00 00 00 00 00 00 00 00 00 00 00 00 00 00 00 00 00 00 00 00 00 00 00 00 00 00 00 00 00 00 00 00 00 00 00 00 00 00 00 00 00 00 00 00 00 00 00 00 00 00 00 00 00 00 00 CE 72
CE73  F0 24     BEQ $CE99                       A:83 X:77 Y:69 P:E4 SP:80 STACK: 00 00 C6 0B CB DC 00 00 00 00 00 00 00 00 00 00 00 00 00 00 00 00 00 00 00 00 00 00 00 00 00 00 00 00 00 00 00 00 00 00 00 00 00 00 00 00 00 00 00 00 00 00 00 00 00 00 00 00 00 00 00 00 00 00 00 00 00 00 00 00 00 00 00 00 00 00 00 00 00 00 00 00 00 00 00 00 00 00 00 00 00 00 00 00 00 00 00 00 00 00 00 00 00 00 00 00 00 00 00 00 00 00 00 00 00 00 00 00 00 00 00 00 00 00 00 00 00
CE75  10 22     BPL $CE99                       A:83 X:77 Y:69 P:E4 SP:80 STACK: 00 00 C6 0B CB DC 00 00 00 00 00 00 00 00 00 00 00 00 00 00 00 00 00 00 00 00 00 00 00 00 00 00 00 00 00 00 00 00 00 00 00 00 00 00 00 00 00 00 00 00 00 00 00 00 00 00 00 00 00 00 00 00 00 00 00 00 00 00 00 00 00 00 00 00 00 00 00 00 00 00 00 00 00 00 00 00 00 00 00 00 00 00 00 00 00 00 00 00 00 00 00 00 00 00 00 00 00 00 00 00 00 00 00 00 00 00 00 00 00 00 00 00 00 00 00 00 00
CE77  B0 20     BCS $CE99                       A:83 X:77 Y:69 P:E4 SP:80 STACK: 00 00 C6 0B CB DC 00 00 00 00 00 00 00 00 00 00 00 00 00 00 00 00 00 00 00 00 00 00 00 00 00 00 00 00 00 00 00 00 00 00 00 00 00 00 00 00 00 00 00 00 00 00 00 00 00 00 00 00 00 00 00 00 00 00 00 00 00 00 00 00 00 00 00 00 00 00 00 00 00 00 00 00 00 00 00 00 00 00 00 00 00 00 00 00 00 00 00 00 00 00 00 00 00 00 00 00 00 00 00 00 00 00 00 00 00 00 00 00 00 00 00 00 00 00 00 00 00
CE79  50 1E     BVC $CE99                       A:83 X:77 Y:69 P:E4 SP:80 STACK: 00 00 C6 0B CB DC 00 00 00 00 00 00 00 00 00 00 00 00 00 00 00 00 00 00 00 00 00 00 00 00 00 00 00 00 00 00 00 00 00 00 00 00 00 00 00 00 00 00 00 00 00 00 00 00 00 00 00 00 00 00 00 00 00 00 00 00 00 00 00 00 00 00 00 00 00 00 00 00 00 00 00 00 00 00 00 00 00 00 00 00 00 00 00 00 00 00 00 00 00 00 00 00 00 00 00 00 00 00 00 00 00 00 00 00 00 00 00 00 00 00 00 00 00 00 00 00 00
CE7B  C9 83     CMP #$83                        A:83 X:77 Y:69 P:E4 SP:80 STACK: 00 00 C6 0B CB DC 00 00 00 00 00 00 00 00 00 00 00 00 00 00 00 00 00 00 00 00 00 00 00 00 00 00 00 00 00 00 00 00 00 00 00 00 00 00 00 00 00 00 00 00 00 00 00 00 00 00 00 00 00 00 00 00 00 00 00 00 00 00 00 00 00 00 00 00 00 00 00 00 00 00 00 00 00 00 00 00 00 00 00 00 00 00 00 00 00 00 00 00 00 00 00 00 00 00 00 00 00 00 00 00 00 00 00 00 00 00 00 00 00 00 00 00 00 00 00 00 00
CE7D  D0 1A     BNE $CE99                       A:83 X:77 Y:69 P:67 SP:80 STACK: 00 00 C6 0B CB DC 00 00 00 00 00 00 00 00 00 00 00 00 00 00 00 00 00 00 00 00 00 00 00 00 00 00 00 00 00 00 00 00 00 00 00 00 00 00 00 00 00 00 00 00 00 00 00 00 00 00 00 00 00 00 00 00 00 00 00 00 00 00 00 00 00 00 00 00 00 00 00 00 00 00 00 00 00 00 00 00 00 00 00 00 00 00 00 00 00 00 00 00 00 00 00 00 00 00 00 00 00 00 00 00 00 00 00 00 00 00 00 00 00 00 00 00 00 00 00 00 00
CE7F  C0 69     CPY #$69                        A:83 X:77 Y:69 P:67 SP:80 STACK: 00 00 C6 0B CB DC 00 00 00 00 00 00 00 00 00 00 00 00 00 00 00 00 00 00 00 00 00 00 00 00 00 00 00 00 00 00 00 00 00 00 00 00 00 00 00 00 00 00 00 00 00 00 00 00 00 00 00 00 00 00 00 00 00 00 00 00 00 00 00 00 00 00 00 00 00 00 00 00 00 00 00 00 00 00 00 00 00 00 00 00 00 00 00 00 00 00 00 00 00 00 00 00 00 00 00 00 00 00 00 00 00 00 00 00 00 00 00 00 00 00 00 00 00 00 00 00 00
CE81  D0 16     BNE $CE99                       A:83 X:77 Y:69 P:67 SP:80 STACK: 00 00 C6 0B CB DC 00 00 00 00 00 00 00 00 00 00 00 00 00 00 00 00 00 00 00 00 00 00 00 00 00 00 00 00 00 00 00 00 00 00 00 00 00 00 00 00 00 00 00 00 00 00 00 00 00 00 00 00 00 00 00 00 00 00 00 00 00 00 00 00 00 00 00 00 00 00 00 00 00 00 00 00 00 00 00 00 00 00 00 00 00 00 00 00 00 00 00 00 00 00 00 00 00 00 00 00 00 00 00 00 00 00 00 00 00 00 00 00 00 00 00 00 00 00 00 00 00
CE83  E0 77     CPX #$77                        A:83 X:77 Y:69 P:67 SP:80 STACK: 00 00 C6 0B CB DC 00 00 00 00 00 00 00 00 00 00 00 00 00 00 00 00 00 00 00 00 00 00 00 00 00 00 00 00 00 00 00 00 00 00 00 00 00 00 00 00 00 00 00 00 00 00 00 00 00 00 00 00 00 00 00 00 00 00 00 00 00 00 00 00 00 00 00 00 00 00 00 00 00 00 00 00 00 00 00 00 00 00 00 00 00 00 00 00 00 00 00 00 00 00 00 00 00 00 00 00 00 00 00 00 00 00 00 00 00 00 00 00 00 00 00 00 00 00 00 00 00
CE85  D0 12     BNE $CE99                       A:83 X:77 Y:69 P:67 SP:80 STACK: 00 00 C6 0B CB DC 00 00 00 00 00 00 00 00 00 00 00 00 00 00 00 00 00 00 00 00 00 00 00 00 00 00 00 00 00 00 00 00 00 00 00 00 00 00 00 00 00 00 00 00 00 00 00 00 00 00 00 00 00 00 00 00 00 00 00 00 00 00 00 00 00 00 00 00 00 00 00 00 00 00 00 00 00 00 00 00 00 00 00 00 00 00 00 00 00 00 00 00 00 00 00 00 00 00 00 00 00 00 00 00 00 00 00 00 00 00 00 00 00 00 00 00 00 00 00 00 00
CE87  38        SEC                             A:83 X:77 Y:69 P:67 SP:80 STACK: 00 00 C6 0B CB DC 00 00 00 00 00 00 00 00 00 00 00 00 00 00 00 00 00 00 00 00 00 00 00 00 00 00 00 00 00 00 00 00 00 00 00 00 00 00 00 00 00 00 00 00 00 00 00 00 00 00 00 00 00 00 00 00 00 00 00 00 00 00 00 00 00 00 00 00 00 00 00 00 00 00 00 00 00 00 00 00 00 00 00 00 00 00 00 00 00 00 00 00 00 00 00 00 00 00 00 00 00 00 00 00 00 00 00 00 00 00 00 00 00 00 00 00 00 00 00 00 00
CE88  B8        CLV                             A:83 X:77 Y:69 P:67 SP:80 STACK: 00 00 C6 0B CB DC 00 00 00 00 00 00 00 00 00 00 00 00 00 00 00 00 00 00 00 00 00 00 00 00 00 00 00 00 00 00 00 00 00 00 00 00 00 00 00 00 00 00 00 00 00 00 00 00 00 00 00 00 00 00 00 00 00 00 00 00 00 00 00 00 00 00 00 00 00 00 00 00 00 00 00 00 00 00 00 00 00 00 00 00 00 00 00 00 00 00 00 00 00 00 00 00 00 00 00 00 00 00 00 00 00 00 00 00 00 00 00 00 00 00 00 00 00 00 00 00 00
CE89  A9 00     LDA #$00                        A:83 X:77 Y:69 P:27 SP:80 STACK: 00 00 C6 0B CB DC 00 00 00 00 00 00 00 00 00 00 00 00 00 00 00 00 00 00 00 00 00 00 00 00 00 00 00 00 00 00 00 00 00 00 00 00 00 00 00 00 00 00 00 00 00 00 00 00 00 00 00 00 00 00 00 00 00 00 00 00 00 00 00 00 00 00 00 00 00 00 00 00 00 00 00 00 00 00 00 00 00 00 00 00 00 00 00 00 00 00 00 00 00 00 00 00 00 00 00 00 00 00 00 00 00 00 00 00 00 00 00 00 00 00 00 00 00 00 00 00 00
CE8B  20 66 CE  JSR $CE66                       A:00 X:77 Y:69 P:27 SP:80 STACK: 00 00 C6 0B CB DC 00 00 00 00 00 00 00 00 00 00 00 00 00 00 00 00 00 00 00 00 00 00 00 00 00 00 00 00 00 00 00 00 00 00 00 00 00 00 00 00 00 00 00 00 00 00 00 00 00 00 00 00 00 00 00 00 00 00 00 00 00 00 00 00 00 00 00 00 00 00 00 00 00 00 00 00 00 00 00 00 00 00 00 00 00 00 00 00 00 00 00 00 00 00 00 00 00 00 00 00 00 00 00 00 00 00 00 00 00 00 00 00 00 00 00 00 00 00 00 00 00
CE66  60        RTS                             A:00 X:77 Y:69 P:27 SP:7E STACK: 00 00 C6 0B CB DC 00 00 00 00 00 00 00 00 00 00 00 00 00 00 00 00 00 00 00 00 00 00 00 00 00 00 00 00 00 00 00 00 00 00 00 00 00 00 00 00 00 00 00 00 00 00 00 00 00 00 00 00 00 00 00 00 00 00 00 00 00 00 00 00 00 00 00 00 00 00 00 00 00 00 00 00 00 00 00 00 00 00 00 00 00 00 00 00 00 00 00 00 00 00 00 00 00 00 00 00 00 00 00 00 00 00 00 00 00 00 00 00 00 00 00 00 00 00 00 00 00 CE 8D
CE8E  D0 09     BNE $CE99                       A:00 X:77 Y:69 P:27 SP:80 STACK: 00 00 C6 0B CB DC 00 00 00 00 00 00 00 00 00 00 00 00 00 00 00 00 00 00 00 00 00 00 00 00 00 00 00 00 00 00 00 00 00 00 00 00 00 00 00 00 00 00 00 00 00 00 00 00 00 00 00 00 00 00 00 00 00 00 00 00 00 00 00 00 00 00 00 00 00 00 00 00 00 00 00 00 00 00 00 00 00 00 00 00 00 00 00 00 00 00 00 00 00 00 00 00 00 00 00 00 00 00 00 00 00 00 00 00 00 00 00 00 00 00 00 00 00 00 00 00 00
CE90  30 07     BMI $CE99                       A:00 X:77 Y:69 P:27 SP:80 STACK: 00 00 C6 0B CB DC 00 00 00 00 00 00 00 00 00 00 00 00 00 00 00 00 00 00 00 00 00 00 00 00 00 00 00 00 00 00 00 00 00 00 00 00 00 00 00 00 00 00 00 00 00 00 00 00 00 00 00 00 00 00 00 00 00 00 00 00 00 00 00 00 00 00 00 00 00 00 00 00 00 00 00 00 00 00 00 00 00 00 00 00 00 00 00 00 00 00 00 00 00 00 00 00 00 00 00 00 00 00 00 00 00 00 00 00 00 00 00 00 00 00 00 00 00 00 00 00 00
CE92  90 05     BCC $CE99                       A:00 X:77 Y:69 P:27 SP:80 STACK: 00 00 C6 0B CB DC 00 00 00 00 00 00 00 00 00 00 00 00 00 00 00 00 00 00 00 00 00 00 00 00 00 00 00 00 00 00 00 00 00 00 00 00 00 00 00 00 00 00 00 00 00 00 00 00 00 00 00 00 00 00 00 00 00 00 00 00 00 00 00 00 00 00 00 00 00 00 00 00 00 00 00 00 00 00 00 00 00 00 00 00 00 00 00 00 00 00 00 00 00 00 00 00 00 00 00 00 00 00 00 00 00 00 00 00 00 00 00 00 00 00 00 00 00 00 00 00 00
CE94  70 03     BVS $CE99                       A:00 X:77 Y:69 P:27 SP:80 STACK: 00 00 C6 0B CB DC 00 00 00 00 00 00 00 00 00 00 00 00 00 00 00 00 00 00 00 00 00 00 00 00 00 00 00 00 00 00 00 00 00 00 00 00 00 00 00 00 00 00 00 00 00 00 00 00 00 00 00 00 00 00 00 00 00 00 00 00 00 00 00 00 00 00 00 00 00 00 00 00 00 00 00 00 00 00 00 00 00 00 00 00 00 00 00 00 00 00 00 00 00 00 00 00 00 00 00 00 00 00 00 00 00 00 00 00 00 00 00 00 00 00 00 00 00 00 00 00 00
CE96  4C 9D CE  JMP $CE9D                       A:00 X:77 Y:69 P:27 SP:80 STACK: 00 00 C6 0B CB DC 00 00 00 00 00 00 00 00 00 00 00 00 00 00 00 00 00 00 00 00 00 00 00 00 00 00 00 00 00 00 00 00 00 00 00 00 00 00 00 00 00 00 00 00 00 00 00 00 00 00 00 00 00 00 00 00 00 00 00 00 00 00 00 00 00 00 00 00 00 00 00 00 00 00 00 00 00 00 00 00 00 00 00 00 00 00 00 00 00 00 00 00 00 00 00 00 00 00 00 00 00 00 00 00 00 00 00 00 00 00 00 00 00 00 00 00 00 00 00 00 00
CE9D  EA        NOP                             A:00 X:77 Y:69 P:27 SP:80 STACK: 00 00 C6 0B CB DC 00 00 00 00 00 00 00 00 00 00 00 00 00 00 00 00 00 00 00 00 00 00 00 00 00 00 00 00 00 00 00 00 00 00 00 00 00 00 00 00 00 00 00 00 00 00 00 00 00 00 00 00 00 00 00 00 00 00 00 00 00 00 00 00 00 00 00 00 00 00 00 00 00 00 00 00 00 00 00 00 00 00 00 00 00 00 00 00 00 00 00 00 00 00 00 00 00 00 00 00 00 00 00 00 00 00 00 00 00 00 00 00 00 00 00 00 00 00 00 00 00
CE9E  A9 CE     LDA #$CE                        A:00 X:77 Y:69 P:27 SP:80 STACK: 00 00 C6 0B CB DC 00 00 00 00 00 00 00 00 00 00 00 00 00 00 00 00 00 00 00 00 00 00 00 00 00 00 00 00 00 00 00 00 00 00 00 00 00 00 00 00 00 00 00 00 00 00 00 00 00 00 00 00 00 00 00 00 00 00 00 00 00 00 00 00 00 00 00 00 00 00 00 00 00 00 00 00 00 00 00 00 00 00 00 00 00 00 00 00 00 00 00 00 00 00 00 00 00 00 00 00 00 00 00 00 00 00 00 00 00 00 00 00 00 00 00 00 00 00 00 00 00
CEA0  48        PHA                             A:CE X:77 Y:69 P:A5 SP:80 STACK: 00 00 C6 0B CB DC 00 00 00 00 00 00 00 00 00 00 00 00 00 00 00 00 00 00 00 00 00 00 00 00 00 00 00 00 00 00 00 00 00 00 00 00 00 00 00 00 00 00 00 00 00 00 00 00 00 00 00 00 00 00 00 00 00 00 00 00 00 00 00 00 00 00 00 00 00 00 00 00 00 00 00 00 00 00 00 00 00 00 00 00 00 00 00 00 00 00 00 00 00 00 00 00 00 00 00 00 00 00 00 00 00 00 00 00 00 00 00 00 00 00 00 00 00 00 00 00 00
CEA1  A9 AE     LDA #$AE                        A:CE X:77 Y:69 P:A5 SP:7F STACK: 00 00 C6 0B CB DC 00 00 00 00 00 00 00 00 00 00 00 00 00 00 00 00 00 00 00 00 00 00 00 00 00 00 00 00 00 00 00 00 00 00 00 00 00 00 00 00 00 00 00 00 00 00 00 00 00 00 00 00 00 00 00 00 00 00 00 00 00 00 00 00 00 00 00 00 00 00 00 00 00 00 00 00 00 00 00 00 00 00 00 00 00 00 00 00 00 00 00 00 00 00 00 00 00 00 00 00 00 00 00 00 00 00 00 00 00 00 00 00 00 00 00 00 00 00 00 00 00 CE
CEA3  48        PHA                             A:AE X:77 Y:69 P:A5 SP:7F STACK: 00 00 C6 0B CB DC 00 00 00 00 00 00 00 00 00 00 00 00 00 00 00 00 00 00 00 00 00 00 00 00 00 00 00 00 00 00 00 00 00 00 00 00 00 00 00 00 00 00 00 00 00 00 00 00 00 00 00 00 00 00 00 00 00 00 00 00 00 00 00 00 00 00 00 00 00 00 00 00 00 00 00 00 00 00 00 00 00 00 00 00 00 00 00 00 00 00 00 00 00 00 00 00 00 00 00 00 00 00 00 00 00 00 00 00 00 00 00 00 00 00 00 00 00 00 00 00 00 CE
CEA4  A9 65     LDA #$65                        A:AE X:77 Y:69 P:A5 SP:7E STACK: 00 00 C6 0B CB DC 00 00 00 00 00 00 00 00 00 00 00 00 00 00 00 00 00 00 00 00 00 00 00 00 00 00 00 00 00 00 00 00 00 00 00 00 00 00 00 00 00 00 00 00 00 00 00 00 00 00 00 00 00 00 00 00 00 00 00 00 00 00 00 00 00 00 00 00 00 00 00 00 00 00 00 00 00 00 00 00 00 00 00 00 00 00 00 00 00 00 00 00 00 00 00 00 00 00 00 00 00 00 00 00 00 00 00 00 00 00 00 00 00 00 00 00 00 00 00 00 00 CE AE
CEA6  48        PHA                             A:65 X:77 Y:69 P:25 SP:7E STACK: 00 00 C6 0B CB DC 00 00 00 00 00 00 00 00 00 00 00 00 00 00 00 00 00 00 00 00 00 00 00 00 00 00 00 00 00 00 00 00 00 00 00 00 00 00 00 00 00 00 00 00 00 00 00 00 00 00 00 00 00 00 00 00 00 00 00 00 00 00 00 00 00 00 00 00 00 00 00 00 00 00 00 00 00 00 00 00 00 00 00 00 00 00 00 00 00 00 00 00 00 00 00 00 00 00 00 00 00 00 00 00 00 00 00 00 00 00 00 00 00 00 00 00 00 00 00 00 00 CE AE
CEA7  A9 55     LDA #$55                        A:65 X:77 Y:69 P:25 SP:7D STACK: 00 00 C6 0B CB DC 00 00 00 00 00 00 00 00 00 00 00 00 00 00 00 00 00 00 00 00 00 00 00 00 00 00 00 00 00 00 00 00 00 00 00 00 00 00 00 00 00 00 00 00 00 00 00 00 00 00 00 00 00 00 00 00 00 00 00 00 00 00 00 00 00 00 00 00 00 00 00 00 00 00 00 00 00 00 00 00 00 00 00 00 00 00 00 00 00 00 00 00 00 00 00 00 00 00 00 00 00 00 00 00 00 00 00 00 00 00 00 00 00 00 00 00 00 00 00 00 00 CE AE 65
CEA9  A0 88     LDY #$88                        A:55 X:77 Y:69 P:25 SP:7D STACK: 00 00 C6 0B CB DC 00 00 00 00 00 00 00 00 00 00 00 00 00 00 00 00 00 00 00 00 00 00 00 00 00 00 00 00 00 00 00 00 00 00 00 00 00 00 00 00 00 00 00 00 00 00 00 00 00 00 00 00 00 00 00 00 00 00 00 00 00 00 00 00 00 00 00 00 00 00 00 00 00 00 00 00 00 00 00 00 00 00 00 00 00 00 00 00 00 00 00 00 00 00 00 00 00 00 00 00 00 00 00 00 00 00 00 00 00 00 00 00 00 00 00 00 00 00 00 00 00 CE AE 65
CEAB  A2 99     LDX #$99                        A:55 X:77 Y:88 P:A5 SP:7D STACK: 00 00 C6 0B CB DC 00 00 00 00 00 00 00 00 00 00 00 00 00 00 00 00 00 00 00 00 00 00 00 00 00 00 00 00 00 00 00 00 00 00 00 00 00 00 00 00 00 00 00 00 00 00 00 00 00 00 00 00 00 00 00 00 00 00 00 00 00 00 00 00 00 00 00 00 00 00 00 00 00 00 00 00 00 00 00 00 00 00 00 00 00 00 00 00 00 00 00 00 00 00 00 00 00 00 00 00 00 00 00 00 00 00 00 00 00 00 00 00 00 00 00 00 00 00 00 00 00 CE AE 65
CEAD  40        RTI                             A:55 X:99 Y:88 P:A5 SP:7D STACK: 00 00 C6 0B CB DC 00 00 00 00 00 00 00 00 00 00 00 00 00 00 00 00 00 00 00 00 00 00 00 00 00 00 00 00 00 00 00 00 00 00 00 00 00 00 00 00 00 00 00 00 00 00 00 00 00 00 00 00 00 00 00 00 00 00 00 00 00 00 00 00 00 00 00 00 00 00 00 00 00 00 00 00 00 00 00 00 00 00 00 00 00 00 00 00 00 00 00 00 00 00 00 00 00 00 00 00 00 00 00 00 00 00 00 00 00 00 00 00 00 00 00 00 00 00 00 00 00 CE AE 65
CEAE  30 35     BMI $CEE5                       A:55 X:99 Y:88 P:65 SP:80 STACK: 00 00 C6 0B CB DC 00 00 00 00 00 00 00 00 00 00 00 00 00 00 00 00 00 00 00 00 00 00 00 00 00 00 00 00 00 00 00 00 00 00 00 00 00 00 00 00 00 00 00 00 00 00 00 00 00 00 00 00 00 00 00 00 00 00 00 00 00 00 00 00 00 00 00 00 00 00 00 00 00 00 00 00 00 00 00 00 00 00 00 00 00 00 00 00 00 00 00 00 00 00 00 00 00 00 00 00 00 00 00 00 00 00 00 00 00 00 00 00 00 00 00 00 00 00 00 00 00
CEB0  50 33     BVC $CEE5                       A:55 X:99 Y:88 P:65 SP:80 STACK: 00 00 C6 0B CB DC 00 00 00 00 00 00 00 00 00 00 00 00 00 00 00 00 00 00 00 00 00 00 00 00 00 00 00 00 00 00 00 00 00 00 00 00 00 00 00 00 00 00 00 00 00 00 00 00 00 00 00 00 00 00 00 00 00 00 00 00 00 00 00 00 00 00 00 00 00 00 00 00 00 00 00 00 00 00 00 00 00 00 00 00 00 00 00 00 00 00 00 00 00 00 00 00 00 00 00 00 00 00 00 00 00 00 00 00 00 00 00 00 00 00 00 00 00 00 00 00 00
CEB2  F0 31     BEQ $CEE5                       A:55 X:99 Y:88 P:65 SP:80 STACK: 00 00 C6 0B CB DC 00 00 00 00 00 00 00 00 00 00 00 00 00 00 00 00 00 00 00 00 00 00 00 00 00 00 00 00 00 00 00 00 00 00 00 00 00 00 00 00 00 00 00 00 00 00 00 00 00 00 00 00 00 00 00 00 00 00 00 00 00 00 00 00 00 00 00 00 00 00 00 00 00 00 00 00 00 00 00 00 00 00 00 00 00 00 00 00 00 00 00 00 00 00 00 00 00 00 00 00 00 00 00 00 00 00 00 00 00 00 00 00 00 00 00 00 00 00 00 00 00
CEB4  90 2F     BCC $CEE5                       A:55 X:99 Y:88 P:65 SP:80 STACK: 00 00 C6 0B CB DC 00 00 00 00 00 00 00 00 00 00 00 00 00 00 00 00 00 00 00 00 00 00 00 00 00 00 00 00 00 00 00 00 00 00 00 00 00 00 00 00 00 00 00 00 00 00 00 00 00 00 00 00 00 00 00 00 00 00 00 00 00 00 00 00 00 00 00 00 00 00 00 00 00 00 00 00 00 00 00 00 00 00 00 00 00 00 00 00 00 00 00 00 00 00 00 00 00 00 00 00 00 00 00 00 00 00 00 00 00 00 00 00 00 00 00 00 00 00 00 00 00
CEB6  C9 55     CMP #$55                        A:55 X:99 Y:88 P:65 SP:80 STACK: 00 00 C6 0B CB DC 00 00 00 00 00 00 00 00 00 00 00 00 00 00 00 00 00 00 00 00 00 00 00 00 00 00 00 00 00 00 00 00 00 00 00 00 00 00 00 00 00 00 00 00 00 00 00 00 00 00 00 00 00 00 00 00 00 00 00 00 00 00 00 00 00 00 00 00 00 00 00 00 00 00 00 00 00 00 00 00 00 00 00 00 00 00 00 00 00 00 00 00 00 00 00 00 00 00 00 00 00 00 00 00 00 00 00 00 00 00 00 00 00 00 00 00 00 00 00 00 00
CEB8  D0 2B     BNE $CEE5                       A:55 X:99 Y:88 P:67 SP:80 STACK: 00 00 C6 0B CB DC 00 00 00 00 00 00 00 00 00 00 00 00 00 00 00 00 00 00 00 00 00 00 00 00 00 00 00 00 00 00 00 00 00 00 00 00 00 00 00 00 00 00 00 00 00 00 00 00 00 00 00 00 00 00 00 00 00 00 00 00 00 00 00 00 00 00 00 00 00 00 00 00 00 00 00 00 00 00 00 00 00 00 00 00 00 00 00 00 00 00 00 00 00 00 00 00 00 00 00 00 00 00 00 00 00 00 00 00 00 00 00 00 00 00 00 00 00 00 00 00 00
CEBA  C0 88     CPY #$88                        A:55 X:99 Y:88 P:67 SP:80 STACK: 00 00 C6 0B CB DC 00 00 00 00 00 00 00 00 00 00 00 00 00 00 00 00 00 00 00 00 00 00 00 00 00 00 00 00 00 00 00 00 00 00 00 00 00 00 00 00 00 00 00 00 00 00 00 00 00 00 00 00 00 00 00 00 00 00 00 00 00 00 00 00 00 00 00 00 00 00 00 00 00 00 00 00 00 00 00 00 00 00 00 00 00 00 00 00 00 00 00 00 00 00 00 00 00 00 00 00 00 00 00 00 00 00 00 00 00 00 00 00 00 00 00 00 00 00 00 00 00
CEBC  D0 27     BNE $CEE5                       A:55 X:99 Y:88 P:67 SP:80 STACK: 00 00 C6 0B CB DC 00 00 00 00 00 00 00 00 00 00 00 00 00 00 00 00 00 00 00 00 00 00 00 00 00 00 00 00 00 00 00 00 00 00 00 00 00 00 00 00 00 00 00 00 00 00 00 00 00 00 00 00 00 00 00 00 00 00 00 00 00 00 00 00 00 00 00 00 00 00 00 00 00 00 00 00 00 00 00 00 00 00 00 00 00 00 00 00 00 00 00 00 00 00 00 00 00 00 00 00 00 00 00 00 00 00 00 00 00 00 00 00 00 00 00 00 00 00 00 00 00
CEBE  E0 99     CPX #$99                        A:55 X:99 Y:88 P:67 SP:80 STACK: 00 00 C6 0B CB DC 00 00 00 00 00 00 00 00 00 00 00 00 00 00 00 00 00 00 00 00 00 00 00 00 00 00 00 00 00 00 00 00 00 00 00 00 00 00 00 00 00 00 00 00 00 00 00 00 00 00 00 00 00 00 00 00 00 00 00 00 00 00 00 00 00 00 00 00 00 00 00 00 00 00 00 00 00 00 00 00 00 00 00 00 00 00 00 00 00 00 00 00 00 00 00 00 00 00 00 00 00 00 00 00 00 00 00 00 00 00 00 00 00 00 00 00 00 00 00 00 00
CEC0  D0 23     BNE $CEE5                       A:55 X:99 Y:88 P:67 SP:80 STACK: 00 00 C6 0B CB DC 00 00 00 00 00 00 00 00 00 00 00 00 00 00 00 00 00 00 00 00 00 00 00 00 00 00 00 00 00 00 00 00 00 00 00 00 00 00 00 00 00 00 00 00 00 00 00 00 00 00 00 00 00 00 00 00 00 00 00 00 00 00 00 00 00 00 00 00 00 00 00 00 00 00 00 00 00 00 00 00 00 00 00 00 00 00 00 00 00 00 00 00 00 00 00 00 00 00 00 00 00 00 00 00 00 00 00 00 00 00 00 00 00 00 00 00 00 00 00 00 00
CEC2  A9 CE     LDA #$CE                        A:55 X:99 Y:88 P:67 SP:80 STACK: 00 00 C6 0B CB DC 00 00 00 00 00 00 00 00 00 00 00 00 00 00 00 00 00 00 00 00 00 00 00 00 00 00 00 00 00 00 00 00 00 00 00 00 00 00 00 00 00 00 00 00 00 00 00 00 00 00 00 00 00 00 00 00 00 00 00 00 00 00 00 00 00 00 00 00 00 00 00 00 00 00 00 00 00 00 00 00 00 00 00 00 00 00 00 00 00 00 00 00 00 00 00 00 00 00 00 00 00 00 00 00 00 00 00 00 00 00 00 00 00 00 00 00 00 00 00 00 00
CEC4  48        PHA                             A:CE X:99 Y:88 P:E5 SP:80 STACK: 00 00 C6 0B CB DC 00 00 00 00 00 00 00 00 00 00 00 00 00 00 00 00 00 00 00 00 00 00 00 00 00 00 00 00 00 00 00 00 00 00 00 00 00 00 00 00 00 00 00 00 00 00 00 00 00 00 00 00 00 00 00 00 00 00 00 00 00 00 00 00 00 00 00 00 00 00 00 00 00 00 00 00 00 00 00 00 00 00 00 00 00 00 00 00 00 00 00 00 00 00 00 00 00 00 00 00 00 00 00 00 00 00 00 00 00 00 00 00 00 00 00 00 00 00 00 00 00
CEC5  A9 CE     LDA #$CE                        A:CE X:99 Y:88 P:E5 SP:7F STACK: 00 00 C6 0B CB DC 00 00 00 00 00 00 00 00 00 00 00 00 00 00 00 00 00 00 00 00 00 00 00 00 00 00 00 00 00 00 00 00 00 00 00 00 00 00 00 00 00 00 00 00 00 00 00 00 00 00 00 00 00 00 00 00 00 00 00 00 00 00 00 00 00 00 00 00 00 00 00 00 00 00 00 00 00 00 00 00 00 00 00 00 00 00 00 00 00 00 00 00 00 00 00 00 00 00 00 00 00 00 00 00 00 00 00 00 00 00 00 00 00 00 00 00 00 00 00 00 00 CE
CEC7  48        PHA                             A:CE X:99 Y:88 P:E5 SP:7F STACK: 00 00 C6 0B CB DC 00 00 00 00 00 00 00 00 00 00 00 00 00 00 00 00 00 00 00 00 00 00 00 00 00 00 00 00 00 00 00 00 00 00 00 00 00 00 00 00 00 00 00 00 00 00 00 00 00 00 00 00 00 00 00 00 00 00 00 00 00 00 00 00 00 00 00 00 00 00 00 00 00 00 00 00 00 00 00 00 00 00 00 00 00 00 00 00 00 00 00 00 00 00 00 00 00 00 00 00 00 00 00 00 00 00 00 00 00 00 00 00 00 00 00 00 00 00 00 00 00 CE
CEC8  A9 87     LDA #$87                        A:CE X:99 Y:88 P:E5 SP:7E STACK: 00 00 C6 0B CB DC 00 00 00 00 00 00 00 00 00 00 00 00 00 00 00 00 00 00 00 00 00 00 00 00 00 00 00 00 00 00 00 00 00 00 00 00 00 00 00 00 00 00 00 00 00 00 00 00 00 00 00 00 00 00 00 00 00 00 00 00 00 00 00 00 00 00 00 00 00 00 00 00 00 00 00 00 00 00 00 00 00 00 00 00 00 00 00 00 00 00 00 00 00 00 00 00 00 00 00 00 00 00 00 00 00 00 00 00 00 00 00 00 00 00 00 00 00 00 00 00 00 CE CE
CECA  48        PHA                             A:87 X:99 Y:88 P:E5 SP:7E STACK: 00 00 C6 0B CB DC 00 00 00 00 00 00 00 00 00 00 00 00 00 00 00 00 00 00 00 00 00 00 00 00 00 00 00 00 00 00 00 00 00 00 00 00 00 00 00 00 00 00 00 00 00 00 00 00 00 00 00 00 00 00 00 00 00 00 00 00 00 00 00 00 00 00 00 00 00 00 00 00 00 00 00 00 00 00 00 00 00 00 00 00 00 00 00 00 00 00 00 00 00 00 00 00 00 00 00 00 00 00 00 00 00 00 00 00 00 00 00 00 00 00 00 00 00 00 00 00 00 CE CE
CECB  A9 55     LDA #$55                        A:87 X:99 Y:88 P:E5 SP:7D STACK: 00 00 C6 0B CB DC 00 00 00 00 00 00 00 00 00 00 00 00 00 00 00 00 00 00 00 00 00 00 00 00 00 00 00 00 00 00 00 00 00 00 00 00 00 00 00 00 00 00 00 00 00 00 00 00 00 00 00 00 00 00 00 00 00 00 00 00 00 00 00 00 00 00 00 00 00 00 00 00 00 00 00 00 00 00 00 00 00 00 00 00 00 00 00 00 00 00 00 00 00 00 00 00 00 00 00 00 00 00 00 00 00 00 00 00 00 00 00 00 00 00 00 00 00 00 00 00 00 CE CE 87
CECD  40        RTI                             A:55 X:99 Y:88 P:65 SP:7D STACK: 00 00 C6 0B CB DC 00 00 00 00 00 00 00 00 00 00 00 00 00 00 00 00 00 00 00 00 00 00 00 00 00 00 00 00 00 00 00 00 00 00 00 00 00 00 00 00 00 00 00 00 00 00 00 00 00 00 00 00 00 00 00 00 00 00 00 00 00 00 00 00 00 00 00 00 00 00 00 00 00 00 00 00 00 00 00 00 00 00 00 00 00 00 00 00 00 00 00 00 00 00 00 00 00 00 00 00 00 00 00 00 00 00 00 00 00 00 00 00 00 00 00 00 00 00 00 00 00 CE CE 87
CECE  10 15     BPL $CEE5                       A:55 X:99 Y:88 P:A7 SP:80 STACK: 00 00 C6 0B CB DC 00 00 00 00 00 00 00 00 00 00 00 00 00 00 00 00 00 00 00 00 00 00 00 00 00 00 00 00 00 00 00 00 00 00 00 00 00 00 00 00 00 00 00 00 00 00 00 00 00 00 00 00 00 00 00 00 00 00 00 00 00 00 00 00 00 00 00 00 00 00 00 00 00 00 00 00 00 00 00 00 00 00 00 00 00 00 00 00 00 00 00 00 00 00 00 00 00 00 00 00 00 00 00 00 00 00 00 00 00 00 00 00 00 00 00 00 00 00 00 00 00
CED0  70 13     BVS $CEE5                       A:55 X:99 Y:88 P:A7 SP:80 STACK: 00 00 C6 0B CB DC 00 00 00 00 00 00 00 00 00 00 00 00 00 00 00 00 00 00 00 00 00 00 00 00 00 00 00 00 00 00 00 00 00 00 00 00 00 00 00 00 00 00 00 00 00 00 00 00 00 00 00 00 00 00 00 00 00 00 00 00 00 00 00 00 00 00 00 00 00 00 00 00 00 00 00 00 00 00 00 00 00 00 00 00 00 00 00 00 00 00 00 00 00 00 00 00 00 00 00 00 00 00 00 00 00 00 00 00 00 00 00 00 00 00 00 00 00 00 00 00 00
CED2  D0 11     BNE $CEE5                       A:55 X:99 Y:88 P:A7 SP:80 STACK: 00 00 C6 0B CB DC 00 00 00 00 00 00 00 00 00 00 00 00 00 00 00 00 00 00 00 00 00 00 00 00 00 00 00 00 00 00 00 00 00 00 00 00 00 00 00 00 00 00 00 00 00 00 00 00 00 00 00 00 00 00 00 00 00 00 00 00 00 00 00 00 00 00 00 00 00 00 00 00 00 00 00 00 00 00 00 00 00 00 00 00 00 00 00 00 00 00 00 00 00 00 00 00 00 00 00 00 00 00 00 00 00 00 00 00 00 00 00 00 00 00 00 00 00 00 00 00 00
CED4  90 0F     BCC $CEE5                       A:55 X:99 Y:88 P:A7 SP:80 STACK: 00 00 C6 0B CB DC 00 00 00 00 00 00 00 00 00 00 00 00 00 00 00 00 00 00 00 00 00 00 00 00 00 00 00 00 00 00 00 00 00 00 00 00 00 00 00 00 00 00 00 00 00 00 00 00 00 00 00 00 00 00 00 00 00 00 00 00 00 00 00 00 00 00 00 00 00 00 00 00 00 00 00 00 00 00 00 00 00 00 00 00 00 00 00 00 00 00 00 00 00 00 00 00 00 00 00 00 00 00 00 00 00 00 00 00 00 00 00 00 00 00 00 00 00 00 00 00 00
CED6  C9 55     CMP #$55                        A:55 X:99 Y:88 P:A7 SP:80 STACK: 00 00 C6 0B CB DC 00 00 00 00 00 00 00 00 00 00 00 00 00 00 00 00 00 00 00 00 00 00 00 00 00 00 00 00 00 00 00 00 00 00 00 00 00 00 00 00 00 00 00 00 00 00 00 00 00 00 00 00 00 00 00 00 00 00 00 00 00 00 00 00 00 00 00 00 00 00 00 00 00 00 00 00 00 00 00 00 00 00 00 00 00 00 00 00 00 00 00 00 00 00 00 00 00 00 00 00 00 00 00 00 00 00 00 00 00 00 00 00 00 00 00 00 00 00 00 00 00
CED8  D0 0B     BNE $CEE5                       A:55 X:99 Y:88 P:27 SP:80 STACK: 00 00 C6 0B CB DC 00 00 00 00 00 00 00 00 00 00 00 00 00 00 00 00 00 00 00 00 00 00 00 00 00 00 00 00 00 00 00 00 00 00 00 00 00 00 00 00 00 00 00 00 00 00 00 00 00 00 00 00 00 00 00 00 00 00 00 00 00 00 00 00 00 00 00 00 00 00 00 00 00 00 00 00 00 00 00 00 00 00 00 00 00 00 00 00 00 00 00 00 00 00 00 00 00 00 00 00 00 00 00 00 00 00 00 00 00 00 00 00 00 00 00 00 00 00 00 00 00
CEDA  C0 88     CPY #$88                        A:55 X:99 Y:88 P:27 SP:80 STACK: 00 00 C6 0B CB DC 00 00 00 00 00 00 00 00 00 00 00 00 00 00 00 00 00 00 00 00 00 00 00 00 00 00 00 00 00 00 00 00 00 00 00 00 00 00 00 00 00 00 00 00 00 00 00 00 00 00 00 00 00 00 00 00 00 00 00 00 00 00 00 00 00 00 00 00 00 00 00 00 00 00 00 00 00 00 00 00 00 00 00 00 00 00 00 00 00 00 00 00 00 00 00 00 00 00 00 00 00 00 00 00 00 00 00 00 00 00 00 00 00 00 00 00 00 00 00 00 00
CEDC  D0 07     BNE $CEE5                       A:55 X:99 Y:88 P:27 SP:80 STACK: 00 00 C6 0B CB DC 00 00 00 00 00 00 00 00 00 00 00 00 00 00 00 00 00 00 00 00 00 00 00 00 00 00 00 00 00 00 00 00 00 00 00 00 00 00 00 00 00 00 00 00 00 00 00 00 00 00 00 00 00 00 00 00 00 00 00 00 00 00 00 00 00 00 00 00 00 00 00 00 00 00 00 00 00 00 00 00 00 00 00 00 00 00 00 00 00 00 00 00 00 00 00 00 00 00 00 00 00 00 00 00 00 00 00 00 00 00 00 00 00 00 00 00 00 00 00 00 00
CEDE  E0 99     CPX #$99                        A:55 X:99 Y:88 P:27 SP:80 STACK: 00 00 C6 0B CB DC 00 00 00 00 00 00 00 00 00 00 00 00 00 00 00 00 00 00 00 00 00 00 00 00 00 00 00 00 00 00 00 00 00 00 00 00 00 00 00 00 00 00 00 00 00 00 00 00 00 00 00 00 00 00 00 00 00 00 00 00 00 00 00 00 00 00 00 00 00 00 00 00 00 00 00 00 00 00 00 00 00 00 00 00 00 00 00 00 00 00 00 00 00 00 00 00 00 00 00 00 00 00 00 00 00 00 00 00 00 00 00 00 00 00 00 00 00 00 00 00 00
CEE0  D0 03     BNE $CEE5                       A:55 X:99 Y:88 P:27 SP:80 STACK: 00 00 C6 0B CB DC 00 00 00 00 00 00 00 00 00 00 00 00 00 00 00 00 00 00 00 00 00 00 00 00 00 00 00 00 00 00 00 00 00 00 00 00 00 00 00 00 00 00 00 00 00 00 00 00 00 00 00 00 00 00 00 00 00 00 00 00 00 00 00 00 00 00 00 00 00 00 00 00 00 00 00 00 00 00 00 00 00 00 00 00 00 00 00 00 00 00 00 00 00 00 00 00 00 00 00 00 00 00 00 00 00 00 00 00 00 00 00 00 00 00 00 00 00 00 00 00 00
CEE2  4C E9 CE  JMP $CEE9                       A:55 X:99 Y:88 P:27 SP:80 STACK: 00 00 C6 0B CB DC 00 00 00 00 00 00 00 00 00 00 00 00 00 00 00 00 00 00 00 00 00 00 00 00 00 00 00 00 00 00 00 00 00 00 00 00 00 00 00 00 00 00 00 00 00 00 00 00 00 00 00 00 00 00 00 00 00 00 00 00 00 00 00 00 00 00 00 00 00 00 00 00 00 00 00 00 00 00 00 00 00 00 00 00 00 00 00 00 00 00 00 00 00 00 00 00 00 00 00 00 00 00 00 00 00 00 00 00 00 00 00 00 00 00 00 00 00 00 00 00 00
CEE9  AE FF 07  LDX $07FF = FB                  A:55 X:99 Y:88 P:27 SP:80 STACK: 00 00 C6 0B CB DC 00 00 00 00 00 00 00 00 00 00 00 00 00 00 00 00 00 00 00 00 00 00 00 00 00 00 00 00 00 00 00 00 00 00 00 00 00 00 00 00 00 00 00 00 00 00 00 00 00 00 00 00 00 00 00 00 00 00 00 00 00 00 00 00 00 00 00 00 00 00 00 00 00 00 00 00 00 00 00 00 00 00 00 00 00 00 00 00 00 00 00 00 00 00 00 00 00 00 00 00 00 00 00 00 00 00 00 00 00 00 00 00 00 00 00 00 00 00 00 00 00
CEEC  9A        TXS                             A:55 X:FB Y:88 P:A5 SP:80 STACK: 00 00 C6 0B CB DC 00 00 00 00 00 00 00 00 00 00 00 00 00 00 00 00 00 00 00 00 00 00 00 00 00 00 00 00 00 00 00 00 00 00 00 00 00 00 00 00 00 00 00 00 00 00 00 00 00 00 00 00 00 00 00 00 00 00 00 00 00 00 00 00 00 00 00 00 00 00 00 00 00 00 00 00 00 00 00 00 00 00 00 00 00 00 00 00 00 00 00 00 00 00 00 00 00 00 00 00 00 00 00 00 00 00 00 00 00 00 00 00 00 00 00 00 00 00 00 00 00
CEED  60        RTS                             A:55 X:FB Y:88 P:A5 SP:FB STACK: 00 00 C6 0B
C60C  20 EE CE  JSR $CEEE                       A:55 X:FB Y:88 P:A5 SP:FD STACK: 00 00
CEEE  A2 55     LDX #$55                        A:55 X:FB Y:88 P:A5 SP:FB STACK: 00 00 C6 0E
CEF0  A0 69     LDY #$69                        A:55 X:55 Y:88 P:25 SP:FB STACK: 00 00 C6 0E
CEF2  A9 FF     LDA #$FF                        A:55 X:55 Y:69 P:25 SP:FB STACK: 00 00 C6 0E
CEF4  85 01     STA $01 = FF                    A:FF X:55 Y:69 P:A5 SP:FB STACK: 00 00 C6 0E
CEF6  EA        NOP                             A:FF X:55 Y:69 P:A5 SP:FB STACK: 00 00 C6 0E
CEF7  24 01     BIT $01 = FF                    A:FF X:55 Y:69 P:A5 SP:FB STACK: 00 00 C6 0E
CEF9  38        SEC                             A:FF X:55 Y:69 P:E5 SP:FB STACK: 00 00 C6 0E
CEFA  A9 01     LDA #$01                        A:FF X:55 Y:69 P:E5 SP:FB STACK: 00 00 C6 0E
CEFC  4A        LSR                             A:01 X:55 Y:69 P:65 SP:FB STACK: 00 00 C6 0E
CEFD  90 1D     BCC $CF1C                       A:01 X:55 Y:69 P:64 SP:FB STACK: 00 00 C6 0E
CF1C  A2 4A     LDX #$4A                        A:01 X:55 Y:69 P:64 SP:FB STACK: 00 00 C6 0E
CF1E  86 00     STX $00 = 22                    A:01 X:4A Y:69 P:64 SP:FB STACK: 00 00 C6 0E
CF20  EA        NOP                             A:01 X:4A Y:69 P:64 SP:FB STACK: 00 00 C6 0E
CF21  24 01     BIT $01 = FF                    A:01 X:4A Y:69 P:64 SP:FB STACK: 00 00 C6 0E
CF23  38        SEC                             A:01 X:4A Y:69 P:E4 SP:FB STACK: 00 00 C6 0E
CF24  A9 80     LDA #$80                        A:01 X:4A Y:69 P:E5 SP:FB STACK: 00 00 C6 0E
CF26  0A        ASL                             A:80 X:4A Y:69 P:E5 SP:FB STACK: 00 00 C6 0E
CF27  90 1E     BCC $CF47                       A:80 X:4A Y:69 P:E5 SP:FB STACK: 00 00 C6 0E
CF29  D0 1C     BNE $CF47                       A:80 X:4A Y:69 P:E5 SP:FB STACK: 00 00 C6 0E
CF47  A2 4B     LDX #$4B                        A:80 X:4A Y:69 P:E5 SP:FB STACK: 00 00 C6 0E
CF49  86 00     STX $00 = 94                    A:80 X:4B Y:69 P:65 SP:FB STACK: 00 00 C6 0E
CF4B  EA        NOP                             A:80 X:4B Y:69 P:65 SP:FB STACK: 00 00 C6 0E
CF4C  24 01     BIT $01 = FF                    A:80 X:4B Y:69 P:65 SP:FB STACK: 00 00 C6 0E
CF4E  38        SEC                             A:80 X:4B Y:69 P:E5 SP:FB STACK: 00 00 C6 0E
CF4F  A9 01     LDA #$01                        A:80 X:4B Y:69 P:E5 SP:FB STACK: 00 00 C6 0E
CF51  6A        ROR                             A:01 X:4B Y:69 P:65 SP:FB STACK: 00 00 C6 0E
CF52  90 1E     BCC $CF72                       A:01 X:4B Y:69 P:64 SP:FB STACK: 00 00 C6 0E
CF72  A2 4C     LDX #$4C                        A:01 X:4B Y:69 P:64 SP:FB STACK: 00 00 C6 0E
CF74  86 00     STX $00 = 25                    A:01 X:4C Y:69 P:64 SP:FB STACK: 00 00 C6 0E
CF76  EA        NOP                             A:01 X:4C Y:69 P:64 SP:FB STACK: 00 00 C6 0E
CF77  24 01     BIT $01 = FF                    A:01 X:4C Y:69 P:64 SP:FB STACK: 00 00 C6 0E
CF79  38        SEC                             A:01 X:4C Y:69 P:E4 SP:FB STACK: 00 00 C6 0E
CF7A  A9 80     LDA #$80                        A:01 X:4C Y:69 P:E5 SP:FB STACK: 00 00 C6 0E
CF7C  2A        ROL                             A:80 X:4C Y:69 P:E5 SP:FB STACK: 00 00 C6 0E
CF7D  90 1E     BCC $CF9D                       A:80 X:4C Y:69 P:E5 SP:FB STACK: 00 00 C6 0E
CF7F  F0 1C     BEQ $CF9D                       A:80 X:4C Y:69 P:E5 SP:FB STACK: 00 00 C6 0E
CF81  30 1A     BMI $CF9D                       A:80 X:4C Y:69 P:E5 SP:FB STACK: 00 00 C6 0E
CF9D  A2 4D     LDX #$4D                        A:80 X:4C Y:69 P:E5 SP:FB STACK: 00 00 C6 0E
CF9F  86 00     STX $00 = 99                    A:80 X:4D Y:69 P:65 SP:FB STACK: 00 00 C6 0E
CFA1  60        RTS                             A:80 X:4D Y:69 P:65 SP:FB STACK: 00 00 C6 0E
C60F  20 A2 CF  JSR $CFA2                       A:80 X:4D Y:69 P:65 SP:FD STACK: 00 00
CFA2  A5 00     LDA $00 = 4D                    A:80 X:4D Y:69 P:65 SP:FB STACK: 00 00 C6 11
CFA4  8D FF 07  STA $07FF = FB                  A:4D X:4D Y:69 P:65 SP:FB STACK: 00 00 C6 11
CFA7  A9 00     LDA #$00                        A:4D X:4D Y:69 P:65 SP:FB STACK: 00 00 C6 11
CFA9  85 80     STA $80 = 00                    A:00 X:4D Y:69 P:67 SP:FB STACK: 00 00 C6 11
CFAB  A9 02     LDA #$02                        A:00 X:4D Y:69 P:67 SP:FB STACK: 00 00 C6 11
CFAD  85 81     STA $81 = 00                    A:02 X:4D Y:69 P:65 SP:FB STACK: 00 00 C6 11
CFAF  A9 FF     LDA #$FF                        A:02 X:4D Y:69 P:65 SP:FB STACK: 00 00 C6 11
CFB1  85 01     STA $01 = FF                    A:FF X:4D Y:69 P:E5 SP:FB STACK: 00 00 C6 11
CFB3  A9 00     LDA #$00                        A:FF X:4D Y:69 P:E5 SP:FB STACK: 00 00 C6 11
CFB5  85 82     STA $82 = 00                    A:00 X:4D Y:69 P:67 SP:FB STACK: 00 00 C6 11
CFB7  A9 03     LDA #$03                        A:00 X:4D Y:69 P:67 SP:FB STACK: 00 00 C6 11
CFB9  85 83     STA $83 = 00                    A:03 X:4D Y:69 P:65 SP:FB STACK: 00 00 C6 11
CFBB  85 84     STA $84 = 00                    A:03 X:4D Y:69 P:65 SP:FB STACK: 00 00 C6 11
CFBD  A9 00     LDA #$00                        A:03 X:4D Y:69 P:65 SP:FB STACK: 00 00 C6 11
CFBF  85 FF     STA $FF = 00                    A:00 X:4D Y:69 P:67 SP:FB STACK: 00 00 C6 11
CFC1  A9 04     LDA #$04                        A:00 X:4D Y:69 P:67 SP:FB STACK: 00 00 C6 11
CFC3  85 00     STA $00 = 4D                    A:04 X:4D Y:69 P:65 SP:FB STACK: 00 00 C6 11
CFC5  A9 5A     LDA #$5A                        A:04 X:4D Y:69 P:65 SP:FB STACK: 00 00 C6 11
CFC7  8D 00 02  STA $0200 = 00                  A:5A X:4D Y:69 P:65 SP:FB STACK: 00 00 C6 11
CFCA  A9 5B     LDA #$5B                        A:5A X:4D Y:69 P:65 SP:FB STACK: 00 00 C6 11
CFCC  8D 00 03  STA $0300 = 00                  A:5B X:4D Y:69 P:65 SP:FB STACK: 00 00 C6 11
CFCF  A9 5C     LDA #$5C                        A:5B X:4D Y:69 P:65 SP:FB STACK: 00 00 C6 11
CFD1  8D 03 03  STA $0303 = 00                  A:5C X:4D Y:69 P:65 SP:FB STACK: 00 00 C6 11
CFD4  A9 5D     LDA #$5D                        A:5C X:4D Y:69 P:65 SP:FB STACK: 00 00 C6 11
CFD6  8D 00 04  STA $0400 = 00                  A:5D X:4D Y:69 P:65 SP:FB STACK: 00 00 C6 11
CFD9  A2 00     LDX #$00                        A:5D X:4D Y:69 P:65 SP:FB STACK: 00 00 C6 11
CFDB  A1 80     LDA ($80,X) @ 80 = 0200 = 5A    A:5D X:00 Y:69 P:67 SP:FB STACK: 00 00 C6 11
CFDD  C9 5A     CMP #$5A                        A:5A X:00 Y:69 P:65 SP:FB STACK: 00 00 C6 11
CFDF  D0 1F     BNE $D000                       A:5A X:00 Y:69 P:67 SP:FB STACK: 00 00 C6 11
CFE1  E8        INX                             A:5A X:00 Y:69 P:67 SP:FB STACK: 00 00 C6 11
CFE2  E8        INX                             A:5A X:00 Y:69 P:67 SP:FB STACK: 00 00 C6 11
CFE3  A1 80     LDA ($80,X) @ 80 = 0200 = 5A    A:5A X:00 Y:69 P:67 SP:FB STACK: 00 00 C6 11
CFE5  C9 5B     CMP #$5B                        A:5A X:00 Y:69 P:65 SP:FB STACK: 00 00 C6 11
CFE7  D0 17     BNE $D000                       A:5A X:00 Y:69 P:E4 SP:FB STACK: 00 00 C6 11
D000  A9 58     LDA #$58                        A:5A X:00 Y:69 P:E4 SP:FB STACK: 00 00 C6 11
D002  8D FF 07  STA $07FF = 4D                  A:58 X:00 Y:69 P:64 SP:FB STACK: 00 00 C6 11
D005  A9 AA     LDA #$AA                        A:58 X:00 Y:69 P:64 SP:FB STACK: 00 00 C6 11
D007  A2 00     LDX #$00                        A:AA X:00 Y:69 P:E4 SP:FB STACK: 00 00 C6 11
D009  81 80     STA ($80,X) @ 80 = 0200 = 5A    A:AA X:00 Y:69 P:66 SP:FB STACK: 00 00 C6 11
D00B  E8        INX                             A:AA X:00 Y:69 P:66 SP:FB STACK: 00 00 C6 11
D00C  E8        INX                             A:AA X:00 Y:69 P:66 SP:FB STACK: 00 00 C6 11
D00D  A9 AB     LDA #$AB                        A:AA X:00 Y:69 P:66 SP:FB STACK: 00 00 C6 11
D00F  81 80     STA ($80,X) @ 80 = 0200 = AA    A:AB X:00 Y:69 P:E4 SP:FB STACK: 00 00 C6 11
D011  E8        INX                             A:AB X:00 Y:69 P:E4 SP:FB STACK: 00 00 C6 11
D012  A9 AC     LDA #$AC                        A:AB X:00 Y:69 P:E4 SP:FB STACK: 00 00 C6 11
D014  81 80     STA ($80,X) @ 80 = 0200 = AB    A:AC X:00 Y:69 P:E4 SP:FB STACK: 00 00 C6 11
D016  A2 00     LDX #$00                        A:AC X:00 Y:69 P:E4 SP:FB STACK: 00 00 C6 11
D018  A9 AD     LDA #$AD                        A:AC X:00 Y:69 P:66 SP:FB STACK: 00 00 C6 11
D01A  81 FF     STA ($FF,X) @ FF = 0000 = 04    A:AD X:00 Y:69 P:E4 SP:FB STACK: 00 00 C6 11
D01C  AD 00 02  LDA $0200 = AC                  A:AD X:00 Y:69 P:E4 SP:FB STACK: 00 00 C6 11
D01F  C9 AA     CMP #$AA                        A:AC X:00 Y:69 P:E4 SP:FB STACK: 00 00 C6 11
D021  D0 15     BNE $D038                       A:AC X:00 Y:69 P:65 SP:FB STACK: 00 00 C6 11
D038  A9 59     LDA #$59                        A:AC X:00 Y:69 P:65 SP:FB STACK: 00 00 C6 11
D03A  8D FF 07  STA $07FF = 58                  A:59 X:00 Y:69 P:65 SP:FB STACK: 00 00 C6 11
D03D  AD FF 07  LDA $07FF = 59                  A:59 X:00 Y:69 P:65 SP:FB STACK: 00 00 C6 11
D040  85 00     STA $00 = AD                    A:59 X:00 Y:69 P:65 SP:FB STACK: 00 00 C6 11
D042  A9 00     LDA #$00                        A:59 X:00 Y:69 P:65 SP:FB STACK: 00 00 C6 11
D044  8D 00 03  STA $0300 = 5B                  A:00 X:00 Y:69 P:67 SP:FB STACK: 00 00 C6 11
D047  A9 AA     LDA #$AA                        A:00 X:00 Y:69 P:67 SP:FB STACK: 00 00 C6 11
D049  8D 00 02  STA $0200 = AC                  A:AA X:00 Y:69 P:E5 SP:FB STACK: 00 00 C6 11
D04C  A2 00     LDX #$00                        A:AA X:00 Y:69 P:E5 SP:FB STACK: 00 00 C6 11
D04E  A0 5A     LDY #$5A                        A:AA X:00 Y:69 P:67 SP:FB STACK: 00 00 C6 11
D050  20 B6 F7  JSR $F7B6                       A:AA X:00 Y:5A P:65 SP:FB STACK: 00 00 C6 11
F7B6  18        CLC                             A:AA X:00 Y:5A P:65 SP:F9 STACK: 00 00 C6 11 D0 52
F7B7  A9 FF     LDA #$FF                        A:AA X:00 Y:5A P:64 SP:F9 STACK: 00 00 C6 11 D0 52
F7B9  85 01     STA $01 = FF                    A:FF X:00 Y:5A P:E4 SP:F9 STACK: 00 00 C6 11 D0 52
F7BB  24 01     BIT $01 = FF                    A:FF X:00 Y:5A P:E4 SP:F9 STACK: 00 00 C6 11 D0 52
F7BD  A9 55     LDA #$55                        A:FF X:00 Y:5A P:E4 SP:F9 STACK: 00 00 C6 11 D0 52
F7BF  60        RTS                             A:55 X:00 Y:5A P:64 SP:F9 STACK: 00 00 C6 11 D0 52
D053  01 80     ORA ($80,X) @ 80 = 0200 = AA    A:55 X:00 Y:5A P:64 SP:FB STACK: 00 00 C6 11
D055  20 C0 F7  JSR $F7C0                       A:FF X:00 Y:5A P:E4 SP:FB STACK: 00 00 C6 11
F7C0  B0 09     BCS $F7CB                       A:FF X:00 Y:5A P:E4 SP:F9 STACK: 00 00 C6 11 D0 57
F7C2  10 07     BPL $F7CB                       A:FF X:00 Y:5A P:E4 SP:F9 STACK: 00 00 C6 11 D0 57
F7C4  C9 FF     CMP #$FF                        A:FF X:00 Y:5A P:E4 SP:F9 STACK: 00 00 C6 11 D0 57
F7C6  D0 03     BNE $F7CB                       A:FF X:00 Y:5A P:67 SP:F9 STACK: 00 00 C6 11 D0 57
F7C8  50 01     BVC $F7CB                       A:FF X:00 Y:5A P:67 SP:F9 STACK: 00 00 C6 11 D0 57
F7CA  60        RTS                             A:FF X:00 Y:5A P:67 SP:F9 STACK: 00 00 C6 11 D0 57
D058  C8        INY                             A:FF X:00 Y:5A P:67 SP:FB STACK: 00 00 C6 11
D059  20 CE F7  JSR $F7CE                       A:FF X:00 Y:5A P:67 SP:FB STACK: 00 00 C6 11
F7CE  38        SEC                             A:FF X:00 Y:5A P:67 SP:F9 STACK: 00 00 C6 11 D0 5B
F7CF  B8        CLV                             A:FF X:00 Y:5A P:67 SP:F9 STACK: 00 00 C6 11 D0 5B
F7D0  A9 00     LDA #$00                        A:FF X:00 Y:5A P:27 SP:F9 STACK: 00 00 C6 11 D0 5B
F7D2  60        RTS                             A:00 X:00 Y:5A P:27 SP:F9 STACK: 00 00 C6 11 D0 5B
D05C  01 82     ORA ($82,X) @ 82 = 0300 = 00    A:00 X:00 Y:5A P:27 SP:FB STACK: 00 00 C6 11
D05E  20 D3 F7  JSR $F7D3                       A:00 X:00 Y:5A P:27 SP:FB STACK: 00 00 C6 11
F7D3  D0 07     BNE $F7DC                       A:00 X:00 Y:5A P:27 SP:F9 STACK: 00 00 C6 11 D0 60
F7D5  70 05     BVS $F7DC                       A:00 X:00 Y:5A P:27 SP:F9 STACK: 00 00 C6 11 D0 60
F7D7  90 03     BCC $F7DC                       A:00 X:00 Y:5A P:27 SP:F9 STACK: 00 00 C6 11 D0 60
F7D9  30 01     BMI $F7DC                       A:00 X:00 Y:5A P:27 SP:F9 STACK: 00 00 C6 11 D0 60
F7DB  60        RTS                             A:00 X:00 Y:5A P:27 SP:F9 STACK: 00 00 C6 11 D0 60
D061  C8        INY                             A:00 X:00 Y:5A P:27 SP:FB STACK: 00 00 C6 11
D062  20 DF F7  JSR $F7DF                       A:00 X:00 Y:5A P:27 SP:FB STACK: 00 00 C6 11
F7DF  18        CLC                             A:00 X:00 Y:5A P:27 SP:F9 STACK: 00 00 C6 11 D0 64
F7E0  24 01     BIT $01 = FF                    A:00 X:00 Y:5A P:26 SP:F9 STACK: 00 00 C6 11 D0 64
F7E2  A9 55     LDA #$55                        A:00 X:00 Y:5A P:E6 SP:F9 STACK: 00 00 C6 11 D0 64
F7E4  60        RTS                             A:55 X:00 Y:5A P:64 SP:F9 STACK: 00 00 C6 11 D0 64
D065  21 80     AND ($80,X) @ 80 = 0200 = AA    A:55 X:00 Y:5A P:64 SP:FB STACK: 00 00 C6 11
D067  20 E5 F7  JSR $F7E5                       A:00 X:00 Y:5A P:66 SP:FB STACK: 00 00 C6 11
F7E5  D0 07     BNE $F7EE                       A:00 X:00 Y:5A P:66 SP:F9 STACK: 00 00 C6 11 D0 69
F7E7  50 05     BVC $F7EE                       A:00 X:00 Y:5A P:66 SP:F9 STACK: 00 00 C6 11 D0 69
F7E9  B0 03     BCS $F7EE                       A:00 X:00 Y:5A P:66 SP:F9 STACK: 00 00 C6 11 D0 69
F7EB  30 01     BMI $F7EE                       A:00 X:00 Y:5A P:66 SP:F9 STACK: 00 00 C6 11 D0 69
F7ED  60        RTS                             A:00 X:00 Y:5A P:66 SP:F9 STACK: 00 00 C6 11 D0 69
D06A  C8        INY                             A:00 X:00 Y:5A P:66 SP:FB STACK: 00 00 C6 11
D06B  A9 EF     LDA #$EF                        A:00 X:00 Y:5A P:66 SP:FB STACK: 00 00 C6 11
D06D  8D 00 03  STA $0300 = 00                  A:EF X:00 Y:5A P:E4 SP:FB STACK: 00 00 C6 11
D070  20 F1 F7  JSR $F7F1                       A:EF X:00 Y:5A P:E4 SP:FB STACK: 00 00 C6 11
F7F1  38        SEC                             A:EF X:00 Y:5A P:E4 SP:F9 STACK: 00 00 C6 11 D0 72
F7F2  B8        CLV                             A:EF X:00 Y:5A P:E5 SP:F9 STACK: 00 00 C6 11 D0 72
F7F3  A9 F8     LDA #$F8                        A:EF X:00 Y:5A P:A5 SP:F9 STACK: 00 00 C6 11 D0 72
F7F5  60        RTS                             A:F8 X:00 Y:5A P:A5 SP:F9 STACK: 00 00 C6 11 D0 72
D073  21 82     AND ($82,X) @ 82 = 0300 = EF    A:F8 X:00 Y:5A P:A5 SP:FB STACK: 00 00 C6 11
D075  20 F6 F7  JSR $F7F6                       A:E8 X:00 Y:5A P:A5 SP:FB STACK: 00 00 C6 11
F7F6  90 09     BCC $F801                       A:E8 X:00 Y:5A P:A5 SP:F9 STACK: 00 00 C6 11 D0 77
F7F8  10 07     BPL $F801                       A:E8 X:00 Y:5A P:A5 SP:F9 STACK: 00 00 C6 11 D0 77
F7FA  C9 E8     CMP #$E8                        A:E8 X:00 Y:5A P:A5 SP:F9 STACK: 00 00 C6 11 D0 77
F7FC  D0 03     BNE $F801                       A:E8 X:00 Y:5A P:27 SP:F9 STACK: 00 00 C6 11 D0 77
F7FE  70 01     BVS $F801                       A:E8 X:00 Y:5A P:27 SP:F9 STACK: 00 00 C6 11 D0 77
F800  60        RTS                             A:E8 X:00 Y:5A P:27 SP:F9 STACK: 00 00 C6 11 D0 77
D078  C8        INY                             A:E8 X:00 Y:5A P:27 SP:FB STACK: 00 00 C6 11
D079  20 04 F8  JSR $F804                       A:E8 X:00 Y:5A P:27 SP:FB STACK: 00 00 C6 11
F804  18        CLC                             A:E8 X:00 Y:5A P:27 SP:F9 STACK: 00 00 C6 11 D0 7B
F805  24 01     BIT $01 = FF                    A:E8 X:00 Y:5A P:26 SP:F9 STACK: 00 00 C6 11 D0 7B
F807  A9 5F     LDA #$5F                        A:E8 X:00 Y:5A P:E4 SP:F9 STACK: 00 00 C6 11 D0 7B
F809  60        RTS                             A:5F X:00 Y:5A P:64 SP:F9 STACK: 00 00 C6 11 D0 7B
D07C  41 80     EOR ($80,X) @ 80 = 0200 = AA    A:5F X:00 Y:5A P:64 SP:FB STACK: 00 00 C6 11
D07E  20 0A F8  JSR $F80A                       A:F5 X:00 Y:5A P:E4 SP:FB STACK: 00 00 C6 11
F80A  B0 09     BCS $F815                       A:F5 X:00 Y:5A P:E4 SP:F9 STACK: 00 00 C6 11 D0 80
F80C  10 07     BPL $F815                       A:F5 X:00 Y:5A P:E4 SP:F9 STACK: 00 00 C6 11 D0 80
F80E  C9 F5     CMP #$F5                        A:F5 X:00 Y:5A P:E4 SP:F9 STACK: 00 00 C6 11 D0 80
F810  D0 03     BNE $F815                       A:F5 X:00 Y:5A P:67 SP:F9 STACK: 00 00 C6 11 D0 80
F812  50 01     BVC $F815                       A:F5 X:00 Y:5A P:67 SP:F9 STACK: 00 00 C6 11 D0 80
F814  60        RTS                             A:F5 X:00 Y:5A P:67 SP:F9 STACK: 00 00 C6 11 D0 80
D081  C8        INY                             A:F5 X:00 Y:5A P:67 SP:FB STACK: 00 00 C6 11
D082  A9 70     LDA #$70                        A:F5 X:00 Y:5A P:67 SP:FB STACK: 00 00 C6 11
D084  8D 00 03  STA $0300 = EF                  A:70 X:00 Y:5A P:65 SP:FB STACK: 00 00 C6 11
D087  20 18 F8  JSR $F818                       A:70 X:00 Y:5A P:65 SP:FB STACK: 00 00 C6 11
F818  38        SEC                             A:70 X:00 Y:5A P:65 SP:F9 STACK: 00 00 C6 11 D0 89
F819  B8        CLV                             A:70 X:00 Y:5A P:65 SP:F9 STACK: 00 00 C6 11 D0 89
F81A  A9 70     LDA #$70                        A:70 X:00 Y:5A P:25 SP:F9 STACK: 00 00 C6 11 D0 89
F81C  60        RTS                             A:70 X:00 Y:5A P:25 SP:F9 STACK: 00 00 C6 11 D0 89
D08A  41 82     EOR ($82,X) @ 82 = 0300 = 70    A:70 X:00 Y:5A P:25 SP:FB STACK: 00 00 C6 11
D08C  20 1D F8  JSR $F81D                       A:00 X:00 Y:5A P:27 SP:FB STACK: 00 00 C6 11
F81D  D0 07     BNE $F826                       A:00 X:00 Y:5A P:27 SP:F9 STACK: 00 00 C6 11 D0 8E
F81F  70 05     BVS $F826                       A:00 X:00 Y:5A P:27 SP:F9 STACK: 00 00 C6 11 D0 8E
F821  90 03     BCC $F826                       A:00 X:00 Y:5A P:27 SP:F9 STACK: 00 00 C6 11 D0 8E
F823  30 01     BMI $F826                       A:00 X:00 Y:5A P:27 SP:F9 STACK: 00 00 C6 11 D0 8E
F825  60        RTS                             A:00 X:00 Y:5A P:27 SP:F9 STACK: 00 00 C6 11 D0 8E
D08F  C8        INY                             A:00 X:00 Y:5A P:27 SP:FB STACK: 00 00 C6 11
D090  A9 69     LDA #$69                        A:00 X:00 Y:5A P:27 SP:FB STACK: 00 00 C6 11
D092  8D 00 02  STA $0200 = AA                  A:69 X:00 Y:5A P:25 SP:FB STACK: 00 00 C6 11
D095  20 29 F8  JSR $F829                       A:69 X:00 Y:5A P:25 SP:FB STACK: 00 00 C6 11
F829  18        CLC                             A:69 X:00 Y:5A P:25 SP:F9 STACK: 00 00 C6 11 D0 97
F82A  24 01     BIT $01 = FF                    A:69 X:00 Y:5A P:24 SP:F9 STACK: 00 00 C6 11 D0 97
F82C  A9 00     LDA #$00                        A:69 X:00 Y:5A P:E4 SP:F9 STACK: 00 00 C6 11 D0 97
F82E  60        RTS                             A:00 X:00 Y:5A P:66 SP:F9 STACK: 00 00 C6 11 D0 97
D098  61 80     ADC ($80,X) @ 80 = 0200 = 69    A:00 X:00 Y:5A P:66 SP:FB STACK: 00 00 C6 11
D09A  20 2F F8  JSR $F82F                       A:69 X:00 Y:5A P:24 SP:FB STACK: 00 00 C6 11
F82F  30 09     BMI $F83A                       A:69 X:00 Y:5A P:24 SP:F9 STACK: 00 00 C6 11 D0 9C
F831  B0 07     BCS $F83A                       A:69 X:00 Y:5A P:24 SP:F9 STACK: 00 00 C6 11 D0 9C
F833  C9 69     CMP #$69                        A:69 X:00 Y:5A P:24 SP:F9 STACK: 00 00 C6 11 D0 9C
F835  D0 03     BNE $F83A                       A:69 X:00 Y:5A P:27 SP:F9 STACK: 00 00 C6 11 D0 9C
F837  70 01     BVS $F83A                       A:69 X:00 Y:5A P:27 SP:F9 STACK: 00 00 C6 11 D0 9C
F839  60        RTS                             A:69 X:00 Y:5A P:27 SP:F9 STACK: 00 00 C6 11 D0 9C
D09D  C8        INY                             A:69 X:00 Y:5A P:27 SP:FB STACK: 00 00 C6 11
D09E  20 3D F8  JSR $F83D                       A:69 X:00 Y:5A P:27 SP:FB STACK: 00 00 C6 11
F83D  38        SEC                             A:69 X:00 Y:5A P:27 SP:F9 STACK: 00 00 C6 11 D0 A0
F83E  24 01     BIT $01 = FF                    A:69 X:00 Y:5A P:27 SP:F9 STACK: 00 00 C6 11 D0 A0
F840  A9 00     LDA #$00                        A:69 X:00 Y:5A P:E5 SP:F9 STACK: 00 00 C6 11 D0 A0
F842  60        RTS                             A:00 X:00 Y:5A P:67 SP:F9 STACK: 00 00 C6 11 D0 A0
D0A1  61 80     ADC ($80,X) @ 80 = 0200 = 69    A:00 X:00 Y:5A P:67 SP:FB STACK: 00 00 C6 11
D0A3  20 43 F8  JSR $F843                       A:6A X:00 Y:5A P:24 SP:FB STACK: 00 00 C6 11
F843  30 09     BMI $F84E                       A:6A X:00 Y:5A P:24 SP:F9 STACK: 00 00 C6 11 D0 A5
F845  B0 07     BCS $F84E                       A:6A X:00 Y:5A P:24 SP:F9 STACK: 00 00 C6 11 D0 A5
F847  C9 6A     CMP #$6A                        A:6A X:00 Y:5A P:24 SP:F9 STACK: 00 00 C6 11 D0 A5
F849  D0 03     BNE $F84E                       A:6A X:00 Y:5A P:27 SP:F9 STACK: 00 00 C6 11 D0 A5
F84B  70 01     BVS $F84E                       A:6A X:00 Y:5A P:27 SP:F9 STACK: 00 00 C6 11 D0 A5
F84D  60        RTS                             A:6A X:00 Y:5A P:27 SP:F9 STACK: 00 00 C6 11 D0 A5
D0A6  C8        INY                             A:6A X:00 Y:5A P:27 SP:FB STACK: 00 00 C6 11
D0A7  A9 7F     LDA #$7F                        A:6A X:00 Y:5A P:27 SP:FB STACK: 00 00 C6 11
D0A9  8D 00 02  STA $0200 = 69                  A:7F X:00 Y:5A P:25 SP:FB STACK: 00 00 C6 11
D0AC  20 51 F8  JSR $F851                       A:7F X:00 Y:5A P:25 SP:FB STACK: 00 00 C6 11
F851  38        SEC                             A:7F X:00 Y:5A P:25 SP:F9 STACK: 00 00 C6 11 D0 AE
F852  B8        CLV                             A:7F X:00 Y:5A P:25 SP:F9 STACK: 00 00 C6 11 D0 AE
F853  A9 7F     LDA #$7F                        A:7F X:00 Y:5A P:25 SP:F9 STACK: 00 00 C6 11 D0 AE
F855  60        RTS                             A:7F X:00 Y:5A P:25 SP:F9 STACK: 00 00 C6 11 D0 AE
D0AF  61 80     ADC ($80,X) @ 80 = 0200 = 7F    A:7F X:00 Y:5A P:25 SP:FB STACK: 00 00 C6 11
D0B1  20 56 F8  JSR $F856                       A:FF X:00 Y:5A P:E4 SP:FB STACK: 00 00 C6 11
F856  10 09     BPL $F861                       A:FF X:00 Y:5A P:E4 SP:F9 STACK: 00 00 C6 11 D0 B3
F858  B0 07     BCS $F861                       A:FF X:00 Y:5A P:E4 SP:F9 STACK: 00 00 C6 11 D0 B3
F85A  C9 FF     CMP #$FF                        A:FF X:00 Y:5A P:E4 SP:F9 STACK: 00 00 C6 11 D0 B3
F85C  D0 03     BNE $F861                       A:FF X:00 Y:5A P:67 SP:F9 STACK: 00 00 C6 11 D0 B3
F85E  50 01     BVC $F861                       A:FF X:00 Y:5A P:67 SP:F9 STACK: 00 00 C6 11 D0 B3
F860  60        RTS                             A:FF X:00 Y:5A P:67 SP:F9 STACK: 00 00 C6 11 D0 B3
D0B4  C8        INY                             A:FF X:00 Y:5A P:67 SP:FB STACK: 00 00 C6 11
D0B5  A9 80     LDA #$80                        A:FF X:00 Y:5A P:67 SP:FB STACK: 00 00 C6 11
D0B7  8D 00 02  STA $0200 = 7F                  A:80 X:00 Y:5A P:E5 SP:FB STACK: 00 00 C6 11
D0BA  20 64 F8  JSR $F864                       A:80 X:00 Y:5A P:E5 SP:FB STACK: 00 00 C6 11
F864  18        CLC                             A:80 X:00 Y:5A P:E5 SP:F9 STACK: 00 00 C6 11 D0 BC
F865  24 01     BIT $01 = FF                    A:80 X:00 Y:5A P:E4 SP:F9 STACK: 00 00 C6 11 D0 BC
F867  A9 7F     LDA #$7F                        A:80 X:00 Y:5A P:E4 SP:F9 STACK: 00 00 C6 11 D0 BC
F869  60        RTS                             A:7F X:00 Y:5A P:64 SP:F9 STACK: 00 00 C6 11 D0 BC
D0BD  61 80     ADC ($80,X) @ 80 = 0200 = 80    A:7F X:00 Y:5A P:64 SP:FB STACK: 00 00 C6 11
D0BF  20 6A F8  JSR $F86A                       A:FF X:00 Y:5A P:A4 SP:FB STACK: 00 00 C6 11
F86A  10 09     BPL $F875                       A:FF X:00 Y:5A P:A4 SP:F9 STACK: 00 00 C6 11 D0 C1
F86C  B0 07     BCS $F875                       A:FF X:00 Y:5A P:A4 SP:F9 STACK: 00 00 C6 11 D0 C1
F86E  C9 FF     CMP #$FF                        A:FF X:00 Y:5A P:A4 SP:F9 STACK: 00 00 C6 11 D0 C1
F870  D0 03     BNE $F875                       A:FF X:00 Y:5A P:27 SP:F9 STACK: 00 00 C6 11 D0 C1
F872  70 01     BVS $F875                       A:FF X:00 Y:5A P:27 SP:F9 STACK: 00 00 C6 11 D0 C1
F874  60        RTS                             A:FF X:00 Y:5A P:27 SP:F9 STACK: 00 00 C6 11 D0 C1
D0C2  C8        INY                             A:FF X:00 Y:5A P:27 SP:FB STACK: 00 00 C6 11
D0C3  20 78 F8  JSR $F878                       A:FF X:00 Y:5A P:27 SP:FB STACK: 00 00 C6 11
F878  38        SEC                             A:FF X:00 Y:5A P:27 SP:F9 STACK: 00 00 C6 11 D0 C5
F879  B8        CLV                             A:FF X:00 Y:5A P:27 SP:F9 STACK: 00 00 C6 11 D0 C5
F87A  A9 7F     LDA #$7F                        A:FF X:00 Y:5A P:27 SP:F9 STACK: 00 00 C6 11 D0 C5
F87C  60        RTS                             A:7F X:00 Y:5A P:25 SP:F9 STACK: 00 00 C6 11 D0 C5
D0C6  61 80     ADC ($80,X) @ 80 = 0200 = 80    A:7F X:00 Y:5A P:25 SP:FB STACK: 00 00 C6 11
D0C8  20 7D F8  JSR $F87D                       A:00 X:00 Y:5A P:27 SP:FB STACK: 00 00 C6 11
F87D  D0 07     BNE $F886                       A:00 X:00 Y:5A P:27 SP:F9 STACK: 00 00 C6 11 D0 CA
F87F  30 05     BMI $F886                       A:00 X:00 Y:5A P:27 SP:F9 STACK: 00 00 C6 11 D0 CA
F881  70 03     BVS $F886                       A:00 X:00 Y:5A P:27 SP:F9 STACK: 00 00 C6 11 D0 CA
F883  90 01     BCC $F886                       A:00 X:00 Y:5A P:27 SP:F9 STACK: 00 00 C6 11 D0 CA
F885  60        RTS                             A:00 X:00 Y:5A P:27 SP:F9 STACK: 00 00 C6 11 D0 CA
D0CB  C8        INY                             A:00 X:00 Y:5A P:27 SP:FB STACK: 00 00 C6 11
D0CC  A9 40     LDA #$40                        A:00 X:00 Y:5A P:27 SP:FB STACK: 00 00 C6 11
D0CE  8D 00 02  STA $0200 = 80                  A:40 X:00 Y:5A P:25 SP:FB STACK: 00 00 C6 11
D0D1  20 89 F8  JSR $F889                       A:40 X:00 Y:5A P:25 SP:FB STACK: 00 00 C6 11
F889  24 01     BIT $01 = FF                    A:40 X:00 Y:5A P:25 SP:F9 STACK: 00 00 C6 11 D0 D3
F88B  A9 40     LDA #$40                        A:40 X:00 Y:5A P:E5 SP:F9 STACK: 00 00 C6 11 D0 D3
F88D  60        RTS                             A:40 X:00 Y:5A P:65 SP:F9 STACK: 00 00 C6 11 D0 D3
D0D4  C1 80     CMP ($80,X) @ 80 = 0200 = 40    A:40 X:00 Y:5A P:65 SP:FB STACK: 00 00 C6 11
D0D6  20 8E F8  JSR $F88E                       A:40 X:00 Y:5A P:67 SP:FB STACK: 00 00 C6 11
F88E  30 07     BMI $F897                       A:40 X:00 Y:5A P:67 SP:F9 STACK: 00 00 C6 11 D0 D8
F890  90 05     BCC $F897                       A:40 X:00 Y:5A P:67 SP:F9 STACK: 00 00 C6 11 D0 D8
F892  D0 03     BNE $F897                       A:40 X:00 Y:5A P:67 SP:F9 STACK: 00 00 C6 11 D0 D8
F894  50 01     BVC $F897                       A:40 X:00 Y:5A P:67 SP:F9 STACK: 00 00 C6 11 D0 D8
F896  60        RTS                             A:40 X:00 Y:5A P:67 SP:F9 STACK: 00 00 C6 11 D0 D8
D0D9  C8        INY                             A:40 X:00 Y:5A P:67 SP:FB STACK: 00 00 C6 11
D0DA  48        PHA                             A:40 X:00 Y:5A P:67 SP:FB STACK: 00 00 C6 11
D0DB  A9 3F     LDA #$3F                        A:40 X:00 Y:5A P:67 SP:FA STACK: 00 00 C6 11 40
D0DD  8D 00 02  STA $0200 = 40                  A:3F X:00 Y:5A P:65 SP:FA STACK: 00 00 C6 11 40
D0E0  68        PLA                             A:3F X:00 Y:5A P:65 SP:FA STACK: 00 00 C6 11 40
D0E1  20 9A F8  JSR $F89A                       A:40 X:00 Y:5A P:65 SP:FB STACK: 00 00 C6 11
F89A  B8        CLV                             A:40 X:00 Y:5A P:65 SP:F9 STACK: 00 00 C6 11 D0 E3
F89B  60        RTS                             A:40 X:00 Y:5A P:25 SP:F9 STACK: 00 00 C6 11 D0 E3
D0E4  C1 80     CMP ($80,X) @ 80 = 0200 = 3F    A:40 X:00 Y:5A P:25 SP:FB STACK: 00 00 C6 11
D0E6  20 9C F8  JSR $F89C                       A:40 X:00 Y:5A P:25 SP:FB STACK: 00 00 C6 11
F89C  F0 07     BEQ $F8A5                       A:40 X:00 Y:5A P:25 SP:F9 STACK: 00 00 C6 11 D0 E8
F89E  30 05     BMI $F8A5                       A:40 X:00 Y:5A P:25 SP:F9 STACK: 00 00 C6 11 D0 E8
F8A0  90 03     BCC $F8A5                       A:40 X:00 Y:5A P:25 SP:F9 STACK: 00 00 C6 11 D0 E8
F8A2  70 01     BVS $F8A5                       A:40 X:00 Y:5A P:25 SP:F9 STACK: 00 00 C6 11 D0 E8
F8A4  60        RTS                             A:40 X:00 Y:5A P:25 SP:F9 STACK: 00 00 C6 11 D0 E8
D0E9  C8        INY                             A:40 X:00 Y:5A P:25 SP:FB STACK: 00 00 C6 11
D0EA  48        PHA                             A:40 X:00 Y:5A P:25 SP:FB STACK: 00 00 C6 11
D0EB  A9 41     LDA #$41                        A:40 X:00 Y:5A P:25 SP:FA STACK: 00 00 C6 11 40
D0ED  8D 00 02  STA $0200 = 3F                  A:41 X:00 Y:5A P:25 SP:FA STACK: 00 00 C6 11 40
D0F0  68        PLA                             A:41 X:00 Y:5A P:25 SP:FA STACK: 00 00 C6 11 40
D0F1  C1 80     CMP ($80,X) @ 80 = 0200 = 41    A:40 X:00 Y:5A P:25 SP:FB STACK: 00 00 C6 11
D0F3  20 A8 F8  JSR $F8A8                       A:40 X:00 Y:5A P:A4 SP:FB STACK: 00 00 C6 11
F8A8  F0 05     BEQ $F8AF                       A:40 X:00 Y:5A P:A4 SP:F9 STACK: 00 00 C6 11 D0 F5
F8AA  10 03     BPL $F8AF                       A:40 X:00 Y:5A P:A4 SP:F9 STACK: 00 00 C6 11 D0 F5
F8AC  10 01     BPL $F8AF                       A:40 X:00 Y:5A P:A4 SP:F9 STACK: 00 00 C6 11 D0 F5
F8AE  60        RTS                             A:40 X:00 Y:5A P:A4 SP:F9 STACK: 00 00 C6 11 D0 F5
D0F6  C8        INY                             A:40 X:00 Y:5A P:A4 SP:FB STACK: 00 00 C6 11
D0F7  48        PHA                             A:40 X:00 Y:5A P:A4 SP:FB STACK: 00 00 C6 11
D0F8  A9 00     LDA #$00                        A:40 X:00 Y:5A P:A4 SP:FA STACK: 00 00 C6 11 40
D0FA  8D 00 02  STA $0200 = 41                  A:00 X:00 Y:5A P:26 SP:FA STACK: 00 00 C6 11 40
D0FD  68        PLA                             A:00 X:00 Y:5A P:26 SP:FA STACK: 00 00 C6 11 40
D0FE  20 B2 F8  JSR $F8B2                       A:40 X:00 Y:5A P:24 SP:FB STACK: 00 00 C6 11
F8B2  A9 80     LDA #$80                        A:40 X:00 Y:5A P:24 SP:F9 STACK: 00 00 C6 11 D1 00
F8B4  60        RTS                             A:80 X:00 Y:5A P:A4 SP:F9 STACK: 00 00 C6 11 D1 00
D101  C1 80     CMP ($80,X) @ 80 = 0200 = 00    A:80 X:00 Y:5A P:A4 SP:FB STACK: 00 00 C6 11
D103  20 B5 F8  JSR $F8B5                       A:80 X:00 Y:5A P:A5 SP:FB STACK: 00 00 C6 11
F8B5  F0 05     BEQ $F8BC                       A:80 X:00 Y:5A P:A5 SP:F9 STACK: 00 00 C6 11 D1 05
F8B7  10 03     BPL $F8BC                       A:80 X:00 Y:5A P:A5 SP:F9 STACK: 00 00 C6 11 D1 05
F8B9  90 01     BCC $F8BC                       A:80 X:00 Y:5A P:A5 SP:F9 STACK: 00 00 C6 11 D1 05
F8BB  60        RTS                             A:80 X:00 Y:5A P:A5 SP:F9 STACK: 00 00 C6 11 D1 05
D106  C8        INY                             A:80 X:00 Y:5A P:A5 SP:FB STACK: 00 00 C6 11
D107  48        PHA                             A:80 X:00 Y:5A P:A5 SP:FB STACK: 00 00 C6 11
D108  A9 80     LDA #$80                        A:80 X:00 Y:5A P:A5 SP:FA STACK: 00 00 C6 11 80
D10A  8D 00 02  STA $0200 = 00                  A:80 X:00 Y:5A P:A5 SP:FA STACK: 00 00 C6 11 80
D10D  68        PLA                             A:80 X:00 Y:5A P:A5 SP:FA STACK: 00 00 C6 11 80
D10E  C1 80     CMP ($80,X) @ 80 = 0200 = 80    A:80 X:00 Y:5A P:A5 SP:FB STACK: 00 00 C6 11
D110  20 BF F8  JSR $F8BF                       A:80 X:00 Y:5A P:27 SP:FB STACK: 00 00 C6 11
F8BF  D0 05     BNE $F8C6                       A:80 X:00 Y:5A P:27 SP:F9 STACK: 00 00 C6 11 D1 12
F8C1  30 03     BMI $F8C6                       A:80 X:00 Y:5A P:27 SP:F9 STACK: 00 00 C6 11 D1 12
F8C3  90 01     BCC $F8C6                       A:80 X:00 Y:5A P:27 SP:F9 STACK: 00 00 C6 11 D1 12
F8C5  60        RTS                             A:80 X:00 Y:5A P:27 SP:F9 STACK: 00 00 C6 11 D1 12
D113  C8        INY                             A:80 X:00 Y:5A P:27 SP:FB STACK: 00 00 C6 11
D114  48        PHA                             A:80 X:00 Y:5A P:27 SP:FB STACK: 00 00 C6 11
D115  A9 81     LDA #$81                        A:80 X:00 Y:5A P:27 SP:FA STACK: 00 00 C6 11 80
D117  8D 00 02  STA $0200 = 80                  A:81 X:00 Y:5A P:A5 SP:FA STACK: 00 00 C6 11 80
D11A  68        PLA                             A:81 X:00 Y:5A P:A5 SP:FA STACK: 00 00 C6 11 80
D11B  C1 80     CMP ($80,X) @ 80 = 0200 = 81    A:80 X:00 Y:5A P:A5 SP:FB STACK: 00 00 C6 11
D11D  20 C9 F8  JSR $F8C9                       A:80 X:00 Y:5A P:A4 SP:FB STACK: 00 00 C6 11
F8C9  B0 05     BCS $F8D0                       A:80 X:00 Y:5A P:A4 SP:F9 STACK: 00 00 C6 11 D1 1F
F8CB  F0 03     BEQ $F8D0                       A:80 X:00 Y:5A P:A4 SP:F9 STACK: 00 00 C6 11 D1 1F
F8CD  10 01     BPL $F8D0                       A:80 X:00 Y:5A P:A4 SP:F9 STACK: 00 00 C6 11 D1 1F
F8CF  60        RTS                             A:80 X:00 Y:5A P:A4 SP:F9 STACK: 00 00 C6 11 D1 1F
D120  C8        INY                             A:80 X:00 Y:5A P:A4 SP:FB STACK: 00 00 C6 11
D121  48        PHA                             A:80 X:00 Y:5A P:A4 SP:FB STACK: 00 00 C6 11
D122  A9 7F     LDA #$7F                        A:80 X:00 Y:5A P:A4 SP:FA STACK: 00 00 C6 11 80
D124  8D 00 02  STA $0200 = 81                  A:7F X:00 Y:5A P:24 SP:FA STACK: 00 00 C6 11 80
D127  68        PLA                             A:7F X:00 Y:5A P:24 SP:FA STACK: 00 00 C6 11 80
D128  C1 80     CMP ($80,X) @ 80 = 0200 = 7F    A:80 X:00 Y:5A P:A4 SP:FB STACK: 00 00 C6 11
D12A  20 D3 F8  JSR $F8D3                       A:80 X:00 Y:5A P:25 SP:FB STACK: 00 00 C6 11
F8D3  90 05     BCC $F8DA                       A:80 X:00 Y:5A P:25 SP:F9 STACK: 00 00 C6 11 D1 2C
F8D5  F0 03     BEQ $F8DA                       A:80 X:00 Y:5A P:25 SP:F9 STACK: 00 00 C6 11 D1 2C
F8D7  30 01     BMI $F8DA                       A:80 X:00 Y:5A P:25 SP:F9 STACK: 00 00 C6 11 D1 2C
F8D9  60        RTS                             A:80 X:00 Y:5A P:25 SP:F9 STACK: 00 00 C6 11 D1 2C
D12D  C8        INY                             A:80 X:00 Y:5A P:25 SP:FB STACK: 00 00 C6 11
D12E  A9 40     LDA #$40                        A:80 X:00 Y:5A P:25 SP:FB STACK: 00 00 C6 11
D130  8D 00 02  STA $0200 = 7F                  A:40 X:00 Y:5A P:25 SP:FB STACK: 00 00 C6 11
D133  20 31 F9  JSR $F931                       A:40 X:00 Y:5A P:25 SP:FB STACK: 00 00 C6 11
F931  24 01     BIT $01 = FF                    A:40 X:00 Y:5A P:25 SP:F9 STACK: 00 00 C6 11 D1 35
F933  A9 40     LDA #$40                        A:40 X:00 Y:5A P:E5 SP:F9 STACK: 00 00 C6 11 D1 35
F935  38        SEC                             A:40 X:00 Y:5A P:65 SP:F9 STACK: 00 00 C6 11 D1 35
F936  60        RTS                             A:40 X:00 Y:5A P:65 SP:F9 STACK: 00 00 C6 11 D1 35
D136  E1 80     SBC ($80,X) @ 80 = 0200 = 40    A:40 X:00 Y:5A P:65 SP:FB STACK: 00 00 C6 11
D138  20 37 F9  JSR $F937                       A:00 X:00 Y:5A P:27 SP:FB STACK: 00 00 C6 11
F937  30 0B     BMI $F944                       A:00 X:00 Y:5A P:27 SP:F9 STACK: 00 00 C6 11 D1 3A
F939  90 09     BCC $F944                       A:00 X:00 Y:5A P:27 SP:F9 STACK: 00 00 C6 11 D1 3A
F93B  D0 07     BNE $F944                       A:00 X:00 Y:5A P:27 SP:F9 STACK: 00 00 C6 11 D1 3A
F93D  70 05     BVS $F944                       A:00 X:00 Y:5A P:27 SP:F9 STACK: 00 00 C6 11 D1 3A
F93F  C9 00     CMP #$00                        A:00 X:00 Y:5A P:27 SP:F9 STACK: 00 00 C6 11 D1 3A
F941  D0 01     BNE $F944                       A:00 X:00 Y:5A P:27 SP:F9 STACK: 00 00 C6 11 D1 3A
F943  60        RTS                             A:00 X:00 Y:5A P:27 SP:F9 STACK: 00 00 C6 11 D1 3A
D13B  C8        INY                             A:00 X:00 Y:5A P:27 SP:FB STACK: 00 00 C6 11
D13C  A9 3F     LDA #$3F                        A:00 X:00 Y:5A P:27 SP:FB STACK: 00 00 C6 11
D13E  8D 00 02  STA $0200 = 40                  A:3F X:00 Y:5A P:25 SP:FB STACK: 00 00 C6 11
D141  20 47 F9  JSR $F947                       A:3F X:00 Y:5A P:25 SP:FB STACK: 00 00 C6 11
F947  B8        CLV                             A:3F X:00 Y:5A P:25 SP:F9 STACK: 00 00 C6 11 D1 43
F948  38        SEC                             A:3F X:00 Y:5A P:25 SP:F9 STACK: 00 00 C6 11 D1 43
F949  A9 40     LDA #$40                        A:3F X:00 Y:5A P:25 SP:F9 STACK: 00 00 C6 11 D1 43
F94B  60        RTS                             A:40 X:00 Y:5A P:25 SP:F9 STACK: 00 00 C6 11 D1 43
D144  E1 80     SBC ($80,X) @ 80 = 0200 = 3F    A:40 X:00 Y:5A P:25 SP:FB STACK: 00 00 C6 11
D146  20 4C F9  JSR $F94C                       A:FF X:00 Y:5A P:A4 SP:FB STACK: 00 00 C6 11
F94C  F0 0B     BEQ $F959                       A:FF X:00 Y:5A P:A4 SP:F9 STACK: 00 00 C6 11 D1 48
F94E  30 09     BMI $F959                       A:FF X:00 Y:5A P:A4 SP:F9 STACK: 00 00 C6 11 D1 48
F959  84 00     STY $00 = 59                    A:FF X:00 Y:5A P:A4 SP:F9 STACK: 00 00 C6 11 D1 48
F95B  60        RTS                             A:FF X:00 Y:5A P:A4 SP:F9 STACK: 00 00 C6 11 D1 48
D149  C8        INY                             A:FF X:00 Y:5A P:A4 SP:FB STACK: 00 00 C6 11
D14A  A9 41     LDA #$41                        A:FF X:00 Y:5A P:A4 SP:FB STACK: 00 00 C6 11
D14C  8D 00 02  STA $0200 = 3F                  A:41 X:00 Y:5A P:24 SP:FB STACK: 00 00 C6 11
D14F  20 5C F9  JSR $F95C                       A:41 X:00 Y:5A P:24 SP:FB STACK: 00 00 C6 11
F95C  A9 40     LDA #$40                        A:41 X:00 Y:5A P:24 SP:F9 STACK: 00 00 C6 11 D1 51
F95E  38        SEC                             A:40 X:00 Y:5A P:24 SP:F9 STACK: 00 00 C6 11 D1 51
F95F  24 01     BIT $01 = FF                    A:40 X:00 Y:5A P:25 SP:F9 STACK: 00 00 C6 11 D1 51
F961  60        RTS                             A:40 X:00 Y:5A P:E5 SP:F9 STACK: 00 00 C6 11 D1 51
D152  E1 80     SBC ($80,X) @ 80 = 0200 = 41    A:40 X:00 Y:5A P:E5 SP:FB STACK: 00 00 C6 11
D154  20 62 F9  JSR $F962                       A:01 X:00 Y:5A P:25 SP:FB STACK: 00 00 C6 11
F962  B0 0B     BCS $F96F                       A:01 X:00 Y:5A P:25 SP:F9 STACK: 00 00 C6 11 D1 56
F96F  84 00     STY $00 = 5A                    A:01 X:00 Y:5A P:25 SP:F9 STACK: 00 00 C6 11 D1 56
F971  60        RTS                             A:01 X:00 Y:5A P:25 SP:F9 STACK: 00 00 C6 11 D1 56
D157  C8        INY                             A:01 X:00 Y:5A P:25 SP:FB STACK: 00 00 C6 11
D158  A9 00     LDA #$00                        A:01 X:00 Y:5A P:25 SP:FB STACK: 00 00 C6 11
D15A  8D 00 02  STA $0200 = 41                  A:00 X:00 Y:5A P:27 SP:FB STACK: 00 00 C6 11
D15D  20 72 F9  JSR $F972                       A:00 X:00 Y:5A P:27 SP:FB STACK: 00 00 C6 11
F972  18        CLC                             A:00 X:00 Y:5A P:27 SP:F9 STACK: 00 00 C6 11 D1 5F
F973  A9 80     LDA #$80                        A:00 X:00 Y:5A P:26 SP:F9 STACK: 00 00 C6 11 D1 5F
F975  60        RTS                             A:80 X:00 Y:5A P:A4 SP:F9 STACK: 00 00 C6 11 D1 5F
D160  E1 80     SBC ($80,X) @ 80 = 0200 = 00    A:80 X:00 Y:5A P:A4 SP:FB STACK: 00 00 C6 11
D162  20 76 F9  JSR $F976                       A:81 X:00 Y:5A P:E4 SP:FB STACK: 00 00 C6 11
F976  90 05     BCC $F97D                       A:81 X:00 Y:5A P:E4 SP:F9 STACK: 00 00 C6 11 D1 64
F97D  84 00     STY $00 = 5A                    A:81 X:00 Y:5A P:E4 SP:F9 STACK: 00 00 C6 11 D1 64
F97F  60        RTS                             A:81 X:00 Y:5A P:E4 SP:F9 STACK: 00 00 C6 11 D1 64
D165  C8        INY                             A:81 X:00 Y:5A P:E4 SP:FB STACK: 00 00 C6 11
D166  A9 7F     LDA #$7F                        A:81 X:00 Y:5A P:E4 SP:FB STACK: 00 00 C6 11
D168  8D 00 02  STA $0200 = 00                  A:7F X:00 Y:5A P:64 SP:FB STACK: 00 00 C6 11
D16B  20 80 F9  JSR $F980                       A:7F X:00 Y:5A P:64 SP:FB STACK: 00 00 C6 11
F980  38        SEC                             A:7F X:00 Y:5A P:64 SP:F9 STACK: 00 00 C6 11 D1 6D
F981  A9 81     LDA #$81                        A:7F X:00 Y:5A P:65 SP:F9 STACK: 00 00 C6 11 D1 6D
F983  60        RTS                             A:81 X:00 Y:5A P:E5 SP:F9 STACK: 00 00 C6 11 D1 6D
D16E  E1 80     SBC ($80,X) @ 80 = 0200 = 7F    A:81 X:00 Y:5A P:E5 SP:FB STACK: 00 00 C6 11
D170  20 84 F9  JSR $F984                       A:FE X:00 Y:5A P:E4 SP:FB STACK: 00 00 C6 11
F984  50 07     BVC $F98D                       A:FE X:00 Y:5A P:E4 SP:F9 STACK: 00 00 C6 11 D1 72
F986  90 05     BCC $F98D                       A:FE X:00 Y:5A P:E4 SP:F9 STACK: 00 00 C6 11 D1 72
F98D  84 00     STY $00 = 5A                    A:FE X:00 Y:5A P:E4 SP:F9 STACK: 00 00 C6 11 D1 72
F98F  60        RTS                             A:FE X:00 Y:5A P:E4 SP:F9 STACK: 00 00 C6 11 D1 72
D173  60        RTS                             A:FE X:00 Y:5A P:E4 SP:FB STACK: 00 00 C6 11
C612  20 74 D1  JSR $D174                       A:FE X:00 Y:5A P:E4 SP:FD STACK: 00 00
D174  A9 55     LDA #$55                        A:FE X:00 Y:5A P:E4 SP:FB STACK: 00 00 C6 14
D176  85 78     STA $78 = 00                    A:55 X:00 Y:5A P:64 SP:FB STACK: 00 00 C6 14
D178  A9 FF     LDA #$FF                        A:55 X:00 Y:5A P:64 SP:FB STACK: 00 00 C6 14
D17A  85 01     STA $01 = FF                    A:FF X:00 Y:5A P:E4 SP:FB STACK: 00 00 C6 14
D17C  24 01     BIT $01 = FF                    A:FF X:00 Y:5A P:E4 SP:FB STACK: 00 00 C6 14
D17E  A0 11     LDY #$11                        A:FF X:00 Y:5A P:E4 SP:FB STACK: 00 00 C6 14
D180  A2 23     LDX #$23                        A:FF X:00 Y:11 P:64 SP:FB STACK: 00 00 C6 14
D182  A9 00     LDA #$00                        A:FF X:23 Y:11 P:64 SP:FB STACK: 00 00 C6 14
D184  A5 78     LDA $78 = 55                    A:00 X:23 Y:11 P:66 SP:FB STACK: 00 00 C6 14
D186  F0 10     BEQ $D198                       A:55 X:23 Y:11 P:64 SP:FB STACK: 00 00 C6 14
D188  30 0E     BMI $D198                       A:55 X:23 Y:11 P:64 SP:FB STACK: 00 00 C6 14
D18A  C9 55     CMP #$55                        A:55 X:23 Y:11 P:64 SP:FB STACK: 00 00 C6 14
D18C  D0 0A     BNE $D198                       A:55 X:23 Y:11 P:67 SP:FB STACK: 00 00 C6 14
D18E  C0 11     CPY #$11                        A:55 X:23 Y:11 P:67 SP:FB STACK: 00 00 C6 14
D190  D0 06     BNE $D198                       A:55 X:23 Y:11 P:67 SP:FB STACK: 00 00 C6 14
D192  E0 23     CPX #$23                        A:55 X:23 Y:11 P:67 SP:FB STACK: 00 00 C6 14
D194  50 02     BVC $D198                       A:55 X:23 Y:11 P:67 SP:FB STACK: 00 00 C6 14
D196  F0 04     BEQ $D19C                       A:55 X:23 Y:11 P:67 SP:FB STACK: 00 00 C6 14
D19C  A9 46     LDA #$46                        A:55 X:23 Y:11 P:67 SP:FB STACK: 00 00 C6 14
D19E  24 01     BIT $01 = FF                    A:46 X:23 Y:11 P:65 SP:FB STACK: 00 00 C6 14
D1A0  85 78     STA $78 = 55                    A:46 X:23 Y:11 P:E5 SP:FB STACK: 00 00 C6 14
D1A2  F0 0A     BEQ $D1AE                       A:46 X:23 Y:11 P:E5 SP:FB STACK: 00 00 C6 14
D1A4  10 08     BPL $D1AE                       A:46 X:23 Y:11 P:E5 SP:FB STACK: 00 00 C6 14
D1A6  50 06     BVC $D1AE                       A:46 X:23 Y:11 P:E5 SP:FB STACK: 00 00 C6 14
D1A8  A5 78     LDA $78 = 46                    A:46 X:23 Y:11 P:E5 SP:FB STACK: 00 00 C6 14
D1AA  C9 46     CMP #$46                        A:46 X:23 Y:11 P:65 SP:FB STACK: 00 00 C6 14
D1AC  F0 04     BEQ $D1B2                       A:46 X:23 Y:11 P:67 SP:FB STACK: 00 00 C6 14
D1B2  A9 55     LDA #$55                        A:46 X:23 Y:11 P:67 SP:FB STACK: 00 00 C6 14
D1B4  85 78     STA $78 = 46                    A:55 X:23 Y:11 P:65 SP:FB STACK: 00 00 C6 14
D1B6  24 01     BIT $01 = FF                    A:55 X:23 Y:11 P:65 SP:FB STACK: 00 00 C6 14
D1B8  A9 11     LDA #$11                        A:55 X:23 Y:11 P:E5 SP:FB STACK: 00 00 C6 14
D1BA  A2 23     LDX #$23                        A:11 X:23 Y:11 P:65 SP:FB STACK: 00 00 C6 14
D1BC  A0 00     LDY #$00                        A:11 X:23 Y:11 P:65 SP:FB STACK: 00 00 C6 14
D1BE  A4 78     LDY $78 = 55                    A:11 X:23 Y:00 P:67 SP:FB STACK: 00 00 C6 14
D1C0  F0 10     BEQ $D1D2                       A:11 X:23 Y:55 P:65 SP:FB STACK: 00 00 C6 14
D1C2  30 0E     BMI $D1D2                       A:11 X:23 Y:55 P:65 SP:FB STACK: 00 00 C6 14
D1C4  C0 55     CPY #$55                        A:11 X:23 Y:55 P:65 SP:FB STACK: 00 00 C6 14
D1C6  D0 0A     BNE $D1D2                       A:11 X:23 Y:55 P:67 SP:FB STACK: 00 00 C6 14
D1C8  C9 11     CMP #$11                        A:11 X:23 Y:55 P:67 SP:FB STACK: 00 00 C6 14
D1CA  D0 06     BNE $D1D2                       A:11 X:23 Y:55 P:67 SP:FB STACK: 00 00 C6 14
D1CC  E0 23     CPX #$23                        A:11 X:23 Y:55 P:67 SP:FB STACK: 00 00 C6 14
D1CE  50 02     BVC $D1D2                       A:11 X:23 Y:55 P:67 SP:FB STACK: 00 00 C6 14
D1D0  F0 04     BEQ $D1D6                       A:11 X:23 Y:55 P:67 SP:FB STACK: 00 00 C6 14
D1D6  A0 46     LDY #$46                        A:11 X:23 Y:55 P:67 SP:FB STACK: 00 00 C6 14
D1D8  24 01     BIT $01 = FF                    A:11 X:23 Y:46 P:65 SP:FB STACK: 00 00 C6 14
D1DA  84 78     STY $78 = 55                    A:11 X:23 Y:46 P:E5 SP:FB STACK: 00 00 C6 14
D1DC  F0 0A     BEQ $D1E8                       A:11 X:23 Y:46 P:E5 SP:FB STACK: 00 00 C6 14
D1DE  10 08     BPL $D1E8                       A:11 X:23 Y:46 P:E5 SP:FB STACK: 00 00 C6 14
D1E0  50 06     BVC $D1E8                       A:11 X:23 Y:46 P:E5 SP:FB STACK: 00 00 C6 14
D1E2  A4 78     LDY $78 = 46                    A:11 X:23 Y:46 P:E5 SP:FB STACK: 00 00 C6 14
D1E4  C0 46     CPY #$46                        A:11 X:23 Y:46 P:65 SP:FB STACK: 00 00 C6 14
D1E6  F0 04     BEQ $D1EC                       A:11 X:23 Y:46 P:67 SP:FB STACK: 00 00 C6 14
D1EC  24 01     BIT $01 = FF                    A:11 X:23 Y:46 P:67 SP:FB STACK: 00 00 C6 14
D1EE  A9 55     LDA #$55                        A:11 X:23 Y:46 P:E5 SP:FB STACK: 00 00 C6 14
D1F0  85 78     STA $78 = 46                    A:55 X:23 Y:46 P:65 SP:FB STACK: 00 00 C6 14
D1F2  A0 11     LDY #$11                        A:55 X:23 Y:46 P:65 SP:FB STACK: 00 00 C6 14
D1F4  A9 23     LDA #$23                        A:55 X:23 Y:11 P:65 SP:FB STACK: 00 00 C6 14
D1F6  A2 00     LDX #$00                        A:23 X:23 Y:11 P:65 SP:FB STACK: 00 00 C6 14
D1F8  A6 78     LDX $78 = 55                    A:23 X:00 Y:11 P:67 SP:FB STACK: 00 00 C6 14
D1FA  F0 10     BEQ $D20C                       A:23 X:55 Y:11 P:65 SP:FB STACK: 00 00 C6 14
D1FC  30 0E     BMI $D20C                       A:23 X:55 Y:11 P:65 SP:FB STACK: 00 00 C6 14
D1FE  E0 55     CPX #$55                        A:23 X:55 Y:11 P:65 SP:FB STACK: 00 00 C6 14
D200  D0 0A     BNE $D20C                       A:23 X:55 Y:11 P:67 SP:FB STACK: 00 00 C6 14
D202  C0 11     CPY #$11                        A:23 X:55 Y:11 P:67 SP:FB STACK: 00 00 C6 14
D204  D0 06     BNE $D20C                       A:23 X:55 Y:11 P:67 SP:FB STACK: 00 00 C6 14
D206  C9 23     CMP #$23                        A:23 X:55 Y:11 P:67 SP:FB STACK: 00 00 C6 14
D208  50 02     BVC $D20C                       A:23 X:55 Y:11 P:67 SP:FB STACK: 00 00 C6 14
D20A  F0 04     BEQ $D210                       A:23 X:55 Y:11 P:67 SP:FB STACK: 00 00 C6 14
D210  A2 46     LDX #$46                        A:23 X:55 Y:11 P:67 SP:FB STACK: 00 00 C6 14
D212  24 01     BIT $01 = FF                    A:23 X:46 Y:11 P:65 SP:FB STACK: 00 00 C6 14
D214  86 78     STX $78 = 55                    A:23 X:46 Y:11 P:E5 SP:FB STACK: 00 00 C6 14
D216  F0 0A     BEQ $D222                       A:23 X:46 Y:11 P:E5 SP:FB STACK: 00 00 C6 14
D218  10 08     BPL $D222                       A:23 X:46 Y:11 P:E5 SP:FB STACK: 00 00 C6 14
D21A  50 06     BVC $D222                       A:23 X:46 Y:11 P:E5 SP:FB STACK: 00 00 C6 14
D21C  A6 78     LDX $78 = 46                    A:23 X:46 Y:11 P:E5 SP:FB STACK: 00 00 C6 14
D21E  E0 46     CPX #$46                        A:23 X:46 Y:11 P:65 SP:FB STACK: 00 00 C6 14
D220  F0 04     BEQ $D226                       A:23 X:46 Y:11 P:67 SP:FB STACK: 00 00 C6 14
D226  A9 C0     LDA #$C0                        A:23 X:46 Y:11 P:67 SP:FB STACK: 00 00 C6 14
D228  85 78     STA $78 = 46                    A:C0 X:46 Y:11 P:E5 SP:FB STACK: 00 00 C6 14
D22A  A2 33     LDX #$33                        A:C0 X:46 Y:11 P:E5 SP:FB STACK: 00 00 C6 14
D22C  A0 88     LDY #$88                        A:C0 X:33 Y:11 P:65 SP:FB STACK: 00 00 C6 14
D22E  A9 05     LDA #$05                        A:C0 X:33 Y:88 P:E5 SP:FB STACK: 00 00 C6 14
D230  24 78     BIT $78 = C0                    A:05 X:33 Y:88 P:65 SP:FB STACK: 00 00 C6 14
D232  10 10     BPL $D244                       A:05 X:33 Y:88 P:E7 SP:FB STACK: 00 00 C6 14
D234  50 0E     BVC $D244                       A:05 X:33 Y:88 P:E7 SP:FB STACK: 00 00 C6 14
D236  D0 0C     BNE $D244                       A:05 X:33 Y:88 P:E7 SP:FB STACK: 00 00 C6 14
D238  C9 05     CMP #$05                        A:05 X:33 Y:88 P:E7 SP:FB STACK: 00 00 C6 14
D23A  D0 08     BNE $D244                       A:05 X:33 Y:88 P:67 SP:FB STACK: 00 00 C6 14
D23C  E0 33     CPX #$33                        A:05 X:33 Y:88 P:67 SP:FB STACK: 00 00 C6 14
D23E  D0 04     BNE $D244                       A:05 X:33 Y:88 P:67 SP:FB STACK: 00 00 C6 14
D240  C0 88     CPY #$88                        A:05 X:33 Y:88 P:67 SP:FB STACK: 00 00 C6 14
D242  F0 04     BEQ $D248                       A:05 X:33 Y:88 P:67 SP:FB STACK: 00 00 C6 14
D248  A9 03     LDA #$03                        A:05 X:33 Y:88 P:67 SP:FB STACK: 00 00 C6 14
D24A  85 78     STA $78 = C0                    A:03 X:33 Y:88 P:65 SP:FB STACK: 00 00 C6 14
D24C  A9 01     LDA #$01                        A:03 X:33 Y:88 P:65 SP:FB STACK: 00 00 C6 14
D24E  24 78     BIT $78 = 03                    A:01 X:33 Y:88 P:65 SP:FB STACK: 00 00 C6 14
D250  30 08     BMI $D25A                       A:01 X:33 Y:88 P:25 SP:FB STACK: 00 00 C6 14
D252  70 06     BVS $D25A                       A:01 X:33 Y:88 P:25 SP:FB STACK: 00 00 C6 14
D254  F0 04     BEQ $D25A                       A:01 X:33 Y:88 P:25 SP:FB STACK: 00 00 C6 14
D256  C9 01     CMP #$01                        A:01 X:33 Y:88 P:25 SP:FB STACK: 00 00 C6 14
D258  F0 04     BEQ $D25E                       A:01 X:33 Y:88 P:27 SP:FB STACK: 00 00 C6 14
D25E  A0 7E     LDY #$7E                        A:01 X:33 Y:88 P:27 SP:FB STACK: 00 00 C6 14
D260  A9 AA     LDA #$AA                        A:01 X:33 Y:7E P:25 SP:FB STACK: 00 00 C6 14
D262  85 78     STA $78 = 03                    A:AA X:33 Y:7E P:A5 SP:FB STACK: 00 00 C6 14
D264  20 B6 F7  JSR $F7B6                       A:AA X:33 Y:7E P:A5 SP:FB STACK: 00 00 C6 14
F7B6  18        CLC                             A:AA X:33 Y:7E P:A5 SP:F9 STACK: 00 00 C6 14 D2 66
F7B7  A9 FF     LDA #$FF                        A:AA X:33 Y:7E P:A4 SP:F9 STACK: 00 00 C6 14 D2 66
F7B9  85 01     STA $01 = FF                    A:FF X:33 Y:7E P:A4 SP:F9 STACK: 00 00 C6 14 D2 66
F7BB  24 01     BIT $01 = FF                    A:FF X:33 Y:7E P:A4 SP:F9 STACK: 00 00 C6 14 D2 66
F7BD  A9 55     LDA #$55                        A:FF X:33 Y:7E P:E4 SP:F9 STACK: 00 00 C6 14 D2 66
F7BF  60        RTS                             A:55 X:33 Y:7E P:64 SP:F9 STACK: 00 00 C6 14 D2 66
D267  05 78     ORA $78 = AA                    A:55 X:33 Y:7E P:64 SP:FB STACK: 00 00 C6 14
D269  20 C0 F7  JSR $F7C0                       A:FF X:33 Y:7E P:E4 SP:FB STACK: 00 00 C6 14
F7C0  B0 09     BCS $F7CB                       A:FF X:33 Y:7E P:E4 SP:F9 STACK: 00 00 C6 14 D2 6B
F7C2  10 07     BPL $F7CB                       A:FF X:33 Y:7E P:E4 SP:F9 STACK: 00 00 C6 14 D2 6B
F7C4  C9 FF     CMP #$FF                        A:FF X:33 Y:7E P:E4 SP:F9 STACK: 00 00 C6 14 D2 6B
F7C6  D0 03     BNE $F7CB                       A:FF X:33 Y:7E P:67 SP:F9 STACK: 00 00 C6 14 D2 6B
F7C8  50 01     BVC $F7CB                       A:FF X:33 Y:7E P:67 SP:F9 STACK: 00 00 C6 14 D2 6B
F7CA  60        RTS                             A:FF X:33 Y:7E P:67 SP:F9 STACK: 00 00 C6 14 D2 6B
D26C  C8        INY                             A:FF X:33 Y:7E P:67 SP:FB STACK: 00 00 C6 14
D26D  A9 00     LDA #$00                        A:FF X:33 Y:7E P:67 SP:FB STACK: 00 00 C6 14
D26F  85 78     STA $78 = AA                    A:00 X:33 Y:7E P:67 SP:FB STACK: 00 00 C6 14
D271  20 CE F7  JSR $F7CE                       A:00 X:33 Y:7E P:67 SP:FB STACK: 00 00 C6 14
F7CE  38        SEC                             A:00 X:33 Y:7E P:67 SP:F9 STACK: 00 00 C6 14 D2 73
F7CF  B8        CLV                             A:00 X:33 Y:7E P:67 SP:F9 STACK: 00 00 C6 14 D2 73
F7D0  A9 00     LDA #$00                        A:00 X:33 Y:7E P:27 SP:F9 STACK: 00 00 C6 14 D2 73
F7D2  60        RTS                             A:00 X:33 Y:7E P:27 SP:F9 STACK: 00 00 C6 14 D2 73
D274  05 78     ORA $78 = 00                    A:00 X:33 Y:7E P:27 SP:FB STACK: 00 00 C6 14
D276  20 D3 F7  JSR $F7D3                       A:00 X:33 Y:7E P:27 SP:FB STACK: 00 00 C6 14
F7D3  D0 07     BNE $F7DC                       A:00 X:33 Y:7E P:27 SP:F9 STACK: 00 00 C6 14 D2 78
F7D5  70 05     BVS $F7DC                       A:00 X:33 Y:7E P:27 SP:F9 STACK: 00 00 C6 14 D2 78
F7D7  90 03     BCC $F7DC                       A:00 X:33 Y:7E P:27 SP:F9 STACK: 00 00 C6 14 D2 78
F7D9  30 01     BMI $F7DC                       A:00 X:33 Y:7E P:27 SP:F9 STACK: 00 00 C6 14 D2 78
F7DB  60        RTS                             A:00 X:33 Y:7E P:27 SP:F9 STACK: 00 00 C6 14 D2 78
D279  C8        INY                             A:00 X:33 Y:7E P:27 SP:FB STACK: 00 00 C6 14
D27A  A9 AA     LDA #$AA                        A:00 X:33 Y:7E P:27 SP:FB STACK: 00 00 C6 14
D27C  85 78     STA $78 = 00                    A:AA X:33 Y:7E P:A5 SP:FB STACK: 00 00 C6 14
D27E  20 DF F7  JSR $F7DF                       A:AA X:33 Y:7E P:A5 SP:FB STACK: 00 00 C6 14
F7DF  18        CLC                             A:AA X:33 Y:7E P:A5 SP:F9 STACK: 00 00 C6 14 D2 80
F7E0  24 01     BIT $01 = FF                    A:AA X:33 Y:7E P:A4 SP:F9 STACK: 00 00 C6 14 D2 80
F7E2  A9 55     LDA #$55                        A:AA X:33 Y:7E P:E4 SP:F9 STACK: 00 00 C6 14 D2 80
F7E4  60        RTS                             A:55 X:33 Y:7E P:64 SP:F9 STACK: 00 00 C6 14 D2 80
D281  25 78     AND $78 = AA                    A:55 X:33 Y:7E P:64 SP:FB STACK: 00 00 C6 14
D283  20 E5 F7  JSR $F7E5                       A:00 X:33 Y:7E P:66 SP:FB STACK: 00 00 C6 14
F7E5  D0 07     BNE $F7EE                       A:00 X:33 Y:7E P:66 SP:F9 STACK: 00 00 C6 14 D2 85
F7E7  50 05     BVC $F7EE                       A:00 X:33 Y:7E P:66 SP:F9 STACK: 00 00 C6 14 D2 85
F7E9  B0 03     BCS $F7EE                       A:00 X:33 Y:7E P:66 SP:F9 STACK: 00 00 C6 14 D2 85
F7EB  30 01     BMI $F7EE                       A:00 X:33 Y:7E P:66 SP:F9 STACK: 00 00 C6 14 D2 85
F7ED  60        RTS                             A:00 X:33 Y:7E P:66 SP:F9 STACK: 00 00 C6 14 D2 85
D286  C8        INY                             A:00 X:33 Y:7E P:66 SP:FB STACK: 00 00 C6 14
D287  A9 EF     LDA #$EF                        A:00 X:33 Y:7E P:66 SP:FB STACK: 00 00 C6 14
D289  85 78     STA $78 = AA                    A:EF X:33 Y:7E P:E4 SP:FB STACK: 00 00 C6 14
D28B  20 F1 F7  JSR $F7F1                       A:EF X:33 Y:7E P:E4 SP:FB STACK: 00 00 C6 14
F7F1  38        SEC                             A:EF X:33 Y:7E P:E4 SP:F9 STACK: 00 00 C6 14 D2 8D
F7F2  B8        CLV                             A:EF X:33 Y:7E P:E5 SP:F9 STACK: 00 00 C6 14 D2 8D
F7F3  A9 F8     LDA #$F8                        A:EF X:33 Y:7E P:A5 SP:F9 STACK: 00 00 C6 14 D2 8D
F7F5  60        RTS                             A:F8 X:33 Y:7E P:A5 SP:F9 STACK: 00 00 C6 14 D2 8D
D28E  25 78     AND $78 = EF                    A:F8 X:33 Y:7E P:A5 SP:FB STACK: 00 00 C6 14
D290  20 F6 F7  JSR $F7F6                       A:E8 X:33 Y:7E P:A5 SP:FB STACK: 00 00 C6 14
F7F6  90 09     BCC $F801                       A:E8 X:33 Y:7E P:A5 SP:F9 STACK: 00 00 C6 14 D2 92
F7F8  10 07     BPL $F801                       A:E8 X:33 Y:7E P:A5 SP:F9 STACK: 00 00 C6 14 D2 92
F7FA  C9 E8     CMP #$E8                        A:E8 X:33 Y:7E P:A5 SP:F9 STACK: 00 00 C6 14 D2 92
F7FC  D0 03     BNE $F801                       A:E8 X:33 Y:7E P:27 SP:F9 STACK: 00 00 C6 14 D2 92
F7FE  70 01     BVS $F801                       A:E8 X:33 Y:7E P:27 SP:F9 STACK: 00 00 C6 14 D2 92
F800  60        RTS                             A:E8 X:33 Y:7E P:27 SP:F9 STACK: 00 00 C6 14 D2 92
D293  C8        INY                             A:E8 X:33 Y:7E P:27 SP:FB STACK: 00 00 C6 14
D294  A9 AA     LDA #$AA                        A:E8 X:33 Y:7E P:27 SP:FB STACK: 00 00 C6 14
D296  85 78     STA $78 = EF                    A:AA X:33 Y:7E P:A5 SP:FB STACK: 00 00 C6 14
D298  20 04 F8  JSR $F804                       A:AA X:33 Y:7E P:A5 SP:FB STACK: 00 00 C6 14
F804  18        CLC                             A:AA X:33 Y:7E P:A5 SP:F9 STACK: 00 00 C6 14 D2 9A
F805  24 01     BIT $01 = FF                    A:AA X:33 Y:7E P:A4 SP:F9 STACK: 00 00 C6 14 D2 9A
F807  A9 5F     LDA #$5F                        A:AA X:33 Y:7E P:E4 SP:F9 STACK: 00 00 C6 14 D2 9A
F809  60        RTS                             A:5F X:33 Y:7E P:64 SP:F9 STACK: 00 00 C6 14 D2 9A
D29B  45 78     EOR $78 = AA                    A:5F X:33 Y:7E P:64 SP:FB STACK: 00 00 C6 14
D29D  20 0A F8  JSR $F80A                       A:F5 X:33 Y:7E P:E4 SP:FB STACK: 00 00 C6 14
F80A  B0 09     BCS $F815                       A:F5 X:33 Y:7E P:E4 SP:F9 STACK: 00 00 C6 14 D2 9F
F80C  10 07     BPL $F815                       A:F5 X:33 Y:7E P:E4 SP:F9 STACK: 00 00 C6 14 D2 9F
F80E  C9 F5     CMP #$F5                        A:F5 X:33 Y:7E P:E4 SP:F9 STACK: 00 00 C6 14 D2 9F
F810  D0 03     BNE $F815                       A:F5 X:33 Y:7E P:67 SP:F9 STACK: 00 00 C6 14 D2 9F
F812  50 01     BVC $F815                       A:F5 X:33 Y:7E P:67 SP:F9 STACK: 00 00 C6 14 D2 9F
F814  60        RTS                             A:F5 X:33 Y:7E P:67 SP:F9 STACK: 00 00 C6 14 D2 9F
D2A0  C8        INY                             A:F5 X:33 Y:7E P:67 SP:FB STACK: 00 00 C6 14
D2A1  A9 70     LDA #$70                        A:F5 X:33 Y:7E P:67 SP:FB STACK: 00 00 C6 14
D2A3  85 78     STA $78 = AA                    A:70 X:33 Y:7E P:65 SP:FB STACK: 00 00 C6 14
D2A5  20 18 F8  JSR $F818                       A:70 X:33 Y:7E P:65 SP:FB STACK: 00 00 C6 14
F818  38        SEC                             A:70 X:33 Y:7E P:65 SP:F9 STACK: 00 00 C6 14 D2 A7
F819  B8        CLV                             A:70 X:33 Y:7E P:65 SP:F9 STACK: 00 00 C6 14 D2 A7
F81A  A9 70     LDA #$70                        A:70 X:33 Y:7E P:25 SP:F9 STACK: 00 00 C6 14 D2 A7
F81C  60        RTS                             A:70 X:33 Y:7E P:25 SP:F9 STACK: 00 00 C6 14 D2 A7
D2A8  45 78     EOR $78 = 70                    A:70 X:33 Y:7E P:25 SP:FB STACK: 00 00 C6 14
D2AA  20 1D F8  JSR $F81D                       A:00 X:33 Y:7E P:27 SP:FB STACK: 00 00 C6 14
F81D  D0 07     BNE $F826                       A:00 X:33 Y:7E P:27 SP:F9 STACK: 00 00 C6 14 D2 AC
F81F  70 05     BVS $F826                       A:00 X:33 Y:7E P:27 SP:F9 STACK: 00 00 C6 14 D2 AC
F821  90 03     BCC $F826                       A:00 X:33 Y:7E P:27 SP:F9 STACK: 00 00 C6 14 D2 AC
F823  30 01     BMI $F826                       A:00 X:33 Y:7E P:27 SP:F9 STACK: 00 00 C6 14 D2 AC
F825  60        RTS                             A:00 X:33 Y:7E P:27 SP:F9 STACK: 00 00 C6 14 D2 AC
D2AD  C8        INY                             A:00 X:33 Y:7E P:27 SP:FB STACK: 00 00 C6 14
D2AE  A9 69     LDA #$69                        A:00 X:33 Y:7E P:27 SP:FB STACK: 00 00 C6 14
D2B0  85 78     STA $78 = 70                    A:69 X:33 Y:7E P:25 SP:FB STACK: 00 00 C6 14
D2B2  20 29 F8  JSR $F829                       A:69 X:33 Y:7E P:25 SP:FB STACK: 00 00 C6 14
F829  18        CLC                             A:69 X:33 Y:7E P:25 SP:F9 STACK: 00 00 C6 14 D2 B4
F82A  24 01     BIT $01 = FF                    A:69 X:33 Y:7E P:24 SP:F9 STACK: 00 00 C6 14 D2 B4
F82C  A9 00     LDA #$00                        A:69 X:33 Y:7E P:E4 SP:F9 STACK: 00 00 C6 14 D2 B4
F82E  60        RTS                             A:00 X:33 Y:7E P:66 SP:F9 STACK: 00 00 C6 14 D2 B4
D2B5  65 78     ADC $78 = 69                    A:00 X:33 Y:7E P:66 SP:FB STACK: 00 00 C6 14
D2B7  20 2F F8  JSR $F82F                       A:69 X:33 Y:7E P:24 SP:FB STACK: 00 00 C6 14
F82F  30 09     BMI $F83A                       A:69 X:33 Y:7E P:24 SP:F9 STACK: 00 00 C6 14 D2 B9
F831  B0 07     BCS $F83A                       A:69 X:33 Y:7E P:24 SP:F9 STACK: 00 00 C6 14 D2 B9
F833  C9 69     CMP #$69                        A:69 X:33 Y:7E P:24 SP:F9 STACK: 00 00 C6 14 D2 B9
F835  D0 03     BNE $F83A                       A:69 X:33 Y:7E P:27 SP:F9 STACK: 00 00 C6 14 D2 B9
F837  70 01     BVS $F83A                       A:69 X:33 Y:7E P:27 SP:F9 STACK: 00 00 C6 14 D2 B9
F839  60        RTS                             A:69 X:33 Y:7E P:27 SP:F9 STACK: 00 00 C6 14 D2 B9
D2BA  C8        INY                             A:69 X:33 Y:7E P:27 SP:FB STACK: 00 00 C6 14
D2BB  20 3D F8  JSR $F83D                       A:69 X:33 Y:7E P:27 SP:FB STACK: 00 00 C6 14
F83D  38        SEC                             A:69 X:33 Y:7E P:27 SP:F9 STACK: 00 00 C6 14 D2 BD
F83E  24 01     BIT $01 = FF                    A:69 X:33 Y:7E P:27 SP:F9 STACK: 00 00 C6 14 D2 BD
F840  A9 00     LDA #$00                        A:69 X:33 Y:7E P:E5 SP:F9 STACK: 00 00 C6 14 D2 BD
F842  60        RTS                             A:00 X:33 Y:7E P:67 SP:F9 STACK: 00 00 C6 14 D2 BD
D2BE  65 78     ADC $78 = 69                    A:00 X:33 Y:7E P:67 SP:FB STACK: 00 00 C6 14
D2C0  20 43 F8  JSR $F843                       A:6A X:33 Y:7E P:24 SP:FB STACK: 00 00 C6 14
F843  30 09     BMI $F84E                       A:6A X:33 Y:7E P:24 SP:F9 STACK: 00 00 C6 14 D2 C2
F845  B0 07     BCS $F84E                       A:6A X:33 Y:7E P:24 SP:F9 STACK: 00 00 C6 14 D2 C2
F847  C9 6A     CMP #$6A                        A:6A X:33 Y:7E P:24 SP:F9 STACK: 00 00 C6 14 D2 C2
F849  D0 03     BNE $F84E                       A:6A X:33 Y:7E P:27 SP:F9 STACK: 00 00 C6 14 D2 C2
F84B  70 01     BVS $F84E                       A:6A X:33 Y:7E P:27 SP:F9 STACK: 00 00 C6 14 D2 C2
F84D  60        RTS                             A:6A X:33 Y:7E P:27 SP:F9 STACK: 00 00 C6 14 D2 C2
D2C3  C8        INY                             A:6A X:33 Y:7E P:27 SP:FB STACK: 00 00 C6 14
D2C4  A9 7F     LDA #$7F                        A:6A X:33 Y:7E P:27 SP:FB STACK: 00 00 C6 14
D2C6  85 78     STA $78 = 69                    A:7F X:33 Y:7E P:25 SP:FB STACK: 00 00 C6 14
D2C8  20 51 F8  JSR $F851                       A:7F X:33 Y:7E P:25 SP:FB STACK: 00 00 C6 14
F851  38        SEC                             A:7F X:33 Y:7E P:25 SP:F9 STACK: 00 00 C6 14 D2 CA
F852  B8        CLV                             A:7F X:33 Y:7E P:25 SP:F9 STACK: 00 00 C6 14 D2 CA
F853  A9 7F     LDA #$7F                        A:7F X:33 Y:7E P:25 SP:F9 STACK: 00 00 C6 14 D2 CA
F855  60        RTS                             A:7F X:33 Y:7E P:25 SP:F9 STACK: 00 00 C6 14 D2 CA
D2CB  65 78     ADC $78 = 7F                    A:7F X:33 Y:7E P:25 SP:FB STACK: 00 00 C6 14
D2CD  20 56 F8  JSR $F856                       A:FF X:33 Y:7E P:E4 SP:FB STACK: 00 00 C6 14
F856  10 09     BPL $F861                       A:FF X:33 Y:7E P:E4 SP:F9 STACK: 00 00 C6 14 D2 CF
F858  B0 07     BCS $F861                       A:FF X:33 Y:7E P:E4 SP:F9 STACK: 00 00 C6 14 D2 CF
F85A  C9 FF     CMP #$FF                        A:FF X:33 Y:7E P:E4 SP:F9 STACK: 00 00 C6 14 D2 CF
F85C  D0 03     BNE $F861                       A:FF X:33 Y:7E P:67 SP:F9 STACK: 00 00 C6 14 D2 CF
F85E  50 01     BVC $F861                       A:FF X:33 Y:7E P:67 SP:F9 STACK: 00 00 C6 14 D2 CF
F860  60        RTS                             A:FF X:33 Y:7E P:67 SP:F9 STACK: 00 00 C6 14 D2 CF
D2D0  C8        INY                             A:FF X:33 Y:7E P:67 SP:FB STACK: 00 00 C6 14
D2D1  A9 80     LDA #$80                        A:FF X:33 Y:7E P:67 SP:FB STACK: 00 00 C6 14
D2D3  85 78     STA $78 = 7F                    A:80 X:33 Y:7E P:E5 SP:FB STACK: 00 00 C6 14
D2D5  20 64 F8  JSR $F864                       A:80 X:33 Y:7E P:E5 SP:FB STACK: 00 00 C6 14
F864  18        CLC                             A:80 X:33 Y:7E P:E5 SP:F9 STACK: 00 00 C6 14 D2 D7
F865  24 01     BIT $01 = FF                    A:80 X:33 Y:7E P:E4 SP:F9 STACK: 00 00 C6 14 D2 D7
F867  A9 7F     LDA #$7F                        A:80 X:33 Y:7E P:E4 SP:F9 STACK: 00 00 C6 14 D2 D7
F869  60        RTS                             A:7F X:33 Y:7E P:64 SP:F9 STACK: 00 00 C6 14 D2 D7
D2D8  65 78     ADC $78 = 80                    A:7F X:33 Y:7E P:64 SP:FB STACK: 00 00 C6 14
D2DA  20 6A F8  JSR $F86A                       A:FF X:33 Y:7E P:A4 SP:FB STACK: 00 00 C6 14
F86A  10 09     BPL $F875                       A:FF X:33 Y:7E P:A4 SP:F9 STACK: 00 00 C6 14 D2 DC
F86C  B0 07     BCS $F875                       A:FF X:33 Y:7E P:A4 SP:F9 STACK: 00 00 C6 14 D2 DC
F86E  C9 FF     CMP #$FF                        A:FF X:33 Y:7E P:A4 SP:F9 STACK: 00 00 C6 14 D2 DC
F870  D0 03     BNE $F875                       A:FF X:33 Y:7E P:27 SP:F9 STACK: 00 00 C6 14 D2 DC
F872  70 01     BVS $F875                       A:FF X:33 Y:7E P:27 SP:F9 STACK: 00 00 C6 14 D2 DC
F874  60        RTS                             A:FF X:33 Y:7E P:27 SP:F9 STACK: 00 00 C6 14 D2 DC
D2DD  C8        INY                             A:FF X:33 Y:7E P:27 SP:FB STACK: 00 00 C6 14
D2DE  20 78 F8  JSR $F878                       A:FF X:33 Y:7E P:27 SP:FB STACK: 00 00 C6 14
F878  38        SEC                             A:FF X:33 Y:7E P:27 SP:F9 STACK: 00 00 C6 14 D2 E0
F879  B8        CLV                             A:FF X:33 Y:7E P:27 SP:F9 STACK: 00 00 C6 14 D2 E0
F87A  A9 7F     LDA #$7F                        A:FF X:33 Y:7E P:27 SP:F9 STACK: 00 00 C6 14 D2 E0
F87C  60        RTS                             A:7F X:33 Y:7E P:25 SP:F9 STACK: 00 00 C6 14 D2 E0
D2E1  65 78     ADC $78 = 80                    A:7F X:33 Y:7E P:25 SP:FB STACK: 00 00 C6 14
D2E3  20 7D F8  JSR $F87D                       A:00 X:33 Y:7E P:27 SP:FB STACK: 00 00 C6 14
F87D  D0 07     BNE $F886                       A:00 X:33 Y:7E P:27 SP:F9 STACK: 00 00 C6 14 D2 E5
F87F  30 05     BMI $F886                       A:00 X:33 Y:7E P:27 SP:F9 STACK: 00 00 C6 14 D2 E5
F881  70 03     BVS $F886                       A:00 X:33 Y:7E P:27 SP:F9 STACK: 00 00 C6 14 D2 E5
F883  90 01     BCC $F886                       A:00 X:33 Y:7E P:27 SP:F9 STACK: 00 00 C6 14 D2 E5
F885  60        RTS                             A:00 X:33 Y:7E P:27 SP:F9 STACK: 00 00 C6 14 D2 E5
D2E6  C8        INY                             A:00 X:33 Y:7E P:27 SP:FB STACK: 00 00 C6 14
D2E7  A9 40     LDA #$40                        A:00 X:33 Y:7E P:27 SP:FB STACK: 00 00 C6 14
D2E9  85 78     STA $78 = 80                    A:40 X:33 Y:7E P:25 SP:FB STACK: 00 00 C6 14
D2EB  20 89 F8  JSR $F889                       A:40 X:33 Y:7E P:25 SP:FB STACK: 00 00 C6 14
F889  24 01     BIT $01 = FF                    A:40 X:33 Y:7E P:25 SP:F9 STACK: 00 00 C6 14 D2 ED
F88B  A9 40     LDA #$40                        A:40 X:33 Y:7E P:E5 SP:F9 STACK: 00 00 C6 14 D2 ED
F88D  60        RTS                             A:40 X:33 Y:7E P:65 SP:F9 STACK: 00 00 C6 14 D2 ED
D2EE  C5 78     CMP $78 = 40                    A:40 X:33 Y:7E P:65 SP:FB STACK: 00 00 C6 14
D2F0  20 8E F8  JSR $F88E                       A:40 X:33 Y:7E P:67 SP:FB STACK: 00 00 C6 14
F88E  30 07     BMI $F897                       A:40 X:33 Y:7E P:67 SP:F9 STACK: 00 00 C6 14 D2 F2
F890  90 05     BCC $F897                       A:40 X:33 Y:7E P:67 SP:F9 STACK: 00 00 C6 14 D2 F2
F892  D0 03     BNE $F897                       A:40 X:33 Y:7E P:67 SP:F9 STACK: 00 00 C6 14 D2 F2
F894  50 01     BVC $F897                       A:40 X:33 Y:7E P:67 SP:F9 STACK: 00 00 C6 14 D2 F2
F896  60        RTS                             A:40 X:33 Y:7E P:67 SP:F9 STACK: 00 00 C6 14 D2 F2
D2F3  C8        INY                             A:40 X:33 Y:7E P:67 SP:FB STACK: 00 00 C6 14
D2F4  48        PHA                             A:40 X:33 Y:7E P:67 SP:FB STACK: 00 00 C6 14
D2F5  A9 3F     LDA #$3F                        A:40 X:33 Y:7E P:67 SP:FA STACK: 00 00 C6 14 40
D2F7  85 78     STA $78 = 40                    A:3F X:33 Y:7E P:65 SP:FA STACK: 00 00 C6 14 40
D2F9  68        PLA                             A:3F X:33 Y:7E P:65 SP:FA STACK: 00 00 C6 14 40
D2FA  20 9A F8  JSR $F89A                       A:40 X:33 Y:7E P:65 SP:FB STACK: 00 00 C6 14
F89A  B8        CLV                             A:40 X:33 Y:7E P:65 SP:F9 STACK: 00 00 C6 14 D2 FC
F89B  60        RTS                             A:40 X:33 Y:7E P:25 SP:F9 STACK: 00 00 C6 14 D2 FC
D2FD  C5 78     CMP $78 = 3F                    A:40 X:33 Y:7E P:25 SP:FB STACK: 00 00 C6 14
D2FF  20 9C F8  JSR $F89C                       A:40 X:33 Y:7E P:25 SP:FB STACK: 00 00 C6 14
F89C  F0 07     BEQ $F8A5                       A:40 X:33 Y:7E P:25 SP:F9 STACK: 00 00 C6 14 D3 01
F89E  30 05     BMI $F8A5                       A:40 X:33 Y:7E P:25 SP:F9 STACK: 00 00 C6 14 D3 01
F8A0  90 03     BCC $F8A5                       A:40 X:33 Y:7E P:25 SP:F9 STACK: 00 00 C6 14 D3 01
F8A2  70 01     BVS $F8A5                       A:40 X:33 Y:7E P:25 SP:F9 STACK: 00 00 C6 14 D3 01
F8A4  60        RTS                             A:40 X:33 Y:7E P:25 SP:F9 STACK: 00 00 C6 14 D3 01
D302  C8        INY                             A:40 X:33 Y:7E P:25 SP:FB STACK: 00 00 C6 14
D303  48        PHA                             A:40 X:33 Y:7E P:25 SP:FB STACK: 00 00 C6 14
D304  A9 41     LDA #$41                        A:40 X:33 Y:7E P:25 SP:FA STACK: 00 00 C6 14 40
D306  85 78     STA $78 = 3F                    A:41 X:33 Y:7E P:25 SP:FA STACK: 00 00 C6 14 40
D308  68        PLA                             A:41 X:33 Y:7E P:25 SP:FA STACK: 00 00 C6 14 40
D309  C5 78     CMP $78 = 41                    A:40 X:33 Y:7E P:25 SP:FB STACK: 00 00 C6 14
D30B  20 A8 F8  JSR $F8A8                       A:40 X:33 Y:7E P:A4 SP:FB STACK: 00 00 C6 14
F8A8  F0 05     BEQ $F8AF                       A:40 X:33 Y:7E P:A4 SP:F9 STACK: 00 00 C6 14 D3 0D
F8AA  10 03     BPL $F8AF                       A:40 X:33 Y:7E P:A4 SP:F9 STACK: 00 00 C6 14 D3 0D
F8AC  10 01     BPL $F8AF                       A:40 X:33 Y:7E P:A4 SP:F9 STACK: 00 00 C6 14 D3 0D
F8AE  60        RTS                             A:40 X:33 Y:7E P:A4 SP:F9 STACK: 00 00 C6 14 D3 0D
D30E  C8        INY                             A:40 X:33 Y:7E P:A4 SP:FB STACK: 00 00 C6 14
D30F  48        PHA                             A:40 X:33 Y:7E P:A4 SP:FB STACK: 00 00 C6 14
D310  A9 00     LDA #$00                        A:40 X:33 Y:7E P:A4 SP:FA STACK: 00 00 C6 14 40
D312  85 78     STA $78 = 41                    A:00 X:33 Y:7E P:26 SP:FA STACK: 00 00 C6 14 40
D314  68        PLA                             A:00 X:33 Y:7E P:26 SP:FA STACK: 00 00 C6 14 40
D315  20 B2 F8  JSR $F8B2                       A:40 X:33 Y:7E P:24 SP:FB STACK: 00 00 C6 14
F8B2  A9 80     LDA #$80                        A:40 X:33 Y:7E P:24 SP:F9 STACK: 00 00 C6 14 D3 17
F8B4  60        RTS                             A:80 X:33 Y:7E P:A4 SP:F9 STACK: 00 00 C6 14 D3 17
D318  C5 78     CMP $78 = 00                    A:80 X:33 Y:7E P:A4 SP:FB STACK: 00 00 C6 14
D31A  20 B5 F8  JSR $F8B5                       A:80 X:33 Y:7E P:A5 SP:FB STACK: 00 00 C6 14
F8B5  F0 05     BEQ $F8BC                       A:80 X:33 Y:7E P:A5 SP:F9 STACK: 00 00 C6 14 D3 1C
F8B7  10 03     BPL $F8BC                       A:80 X:33 Y:7E P:A5 SP:F9 STACK: 00 00 C6 14 D3 1C
F8B9  90 01     BCC $F8BC                       A:80 X:33 Y:7E P:A5 SP:F9 STACK: 00 00 C6 14 D3 1C
F8BB  60        RTS                             A:80 X:33 Y:7E P:A5 SP:F9 STACK: 00 00 C6 14 D3 1C
D31D  C8        INY                             A:80 X:33 Y:7E P:A5 SP:FB STACK: 00 00 C6 14
D31E  48        PHA                             A:80 X:33 Y:7E P:A5 SP:FB STACK: 00 00 C6 14
D31F  A9 80     LDA #$80                        A:80 X:33 Y:7E P:A5 SP:FA STACK: 00 00 C6 14 80
D321  85 78     STA $78 = 00                    A:80 X:33 Y:7E P:A5 SP:FA STACK: 00 00 C6 14 80
D323  68        PLA                             A:80 X:33 Y:7E P:A5 SP:FA STACK: 00 00 C6 14 80
D324  C5 78     CMP $78 = 80                    A:80 X:33 Y:7E P:A5 SP:FB STACK: 00 00 C6 14
D326  20 BF F8  JSR $F8BF                       A:80 X:33 Y:7E P:27 SP:FB STACK: 00 00 C6 14
F8BF  D0 05     BNE $F8C6                       A:80 X:33 Y:7E P:27 SP:F9 STACK: 00 00 C6 14 D3 28
F8C1  30 03     BMI $F8C6                       A:80 X:33 Y:7E P:27 SP:F9 STACK: 00 00 C6 14 D3 28
F8C3  90 01     BCC $F8C6                       A:80 X:33 Y:7E P:27 SP:F9 STACK: 00 00 C6 14 D3 28
F8C5  60        RTS                             A:80 X:33 Y:7E P:27 SP:F9 STACK: 00 00 C6 14 D3 28
D329  C8        INY                             A:80 X:33 Y:7E P:27 SP:FB STACK: 00 00 C6 14
D32A  48        PHA                             A:80 X:33 Y:7E P:27 SP:FB STACK: 00 00 C6 14
D32B  A9 81     LDA #$81                        A:80 X:33 Y:7E P:27 SP:FA STACK: 00 00 C6 14 80
D32D  85 78     STA $78 = 80                    A:81 X:33 Y:7E P:A5 SP:FA STACK: 00 00 C6 14 80
D32F  68        PLA                             A:81 X:33 Y:7E P:A5 SP:FA STACK: 00 00 C6 14 80
D330  C5 78     CMP $78 = 81                    A:80 X:33 Y:7E P:A5 SP:FB STACK: 00 00 C6 14
D332  20 C9 F8  JSR $F8C9                       A:80 X:33 Y:7E P:A4 SP:FB STACK: 00 00 C6 14
F8C9  B0 05     BCS $F8D0                       A:80 X:33 Y:7E P:A4 SP:F9 STACK: 00 00 C6 14 D3 34
F8CB  F0 03     BEQ $F8D0                       A:80 X:33 Y:7E P:A4 SP:F9 STACK: 00 00 C6 14 D3 34
F8CD  10 01     BPL $F8D0                       A:80 X:33 Y:7E P:A4 SP:F9 STACK: 00 00 C6 14 D3 34
F8CF  60        RTS                             A:80 X:33 Y:7E P:A4 SP:F9 STACK: 00 00 C6 14 D3 34
D335  C8        INY                             A:80 X:33 Y:7E P:A4 SP:FB STACK: 00 00 C6 14
D336  48        PHA                             A:80 X:33 Y:7E P:A4 SP:FB STACK: 00 00 C6 14
D337  A9 7F     LDA #$7F                        A:80 X:33 Y:7E P:A4 SP:FA STACK: 00 00 C6 14 80
D339  85 78     STA $78 = 81                    A:7F X:33 Y:7E P:24 SP:FA STACK: 00 00 C6 14 80
D33B  68        PLA                             A:7F X:33 Y:7E P:24 SP:FA STACK: 00 00 C6 14 80
D33C  C5 78     CMP $78 = 7F                    A:80 X:33 Y:7E P:A4 SP:FB STACK: 00 00 C6 14
D33E  20 D3 F8  JSR $F8D3                       A:80 X:33 Y:7E P:25 SP:FB STACK: 00 00 C6 14
F8D3  90 05     BCC $F8DA                       A:80 X:33 Y:7E P:25 SP:F9 STACK: 00 00 C6 14 D3 40
F8D5  F0 03     BEQ $F8DA                       A:80 X:33 Y:7E P:25 SP:F9 STACK: 00 00 C6 14 D3 40
F8D7  30 01     BMI $F8DA                       A:80 X:33 Y:7E P:25 SP:F9 STACK: 00 00 C6 14 D3 40
F8D9  60        RTS                             A:80 X:33 Y:7E P:25 SP:F9 STACK: 00 00 C6 14 D3 40
D341  C8        INY                             A:80 X:33 Y:7E P:25 SP:FB STACK: 00 00 C6 14
D342  A9 40     LDA #$40                        A:80 X:33 Y:7E P:25 SP:FB STACK: 00 00 C6 14
D344  85 78     STA $78 = 7F                    A:40 X:33 Y:7E P:25 SP:FB STACK: 00 00 C6 14
D346  20 31 F9  JSR $F931                       A:40 X:33 Y:7E P:25 SP:FB STACK: 00 00 C6 14
F931  24 01     BIT $01 = FF                    A:40 X:33 Y:7E P:25 SP:F9 STACK: 00 00 C6 14 D3 48
F933  A9 40     LDA #$40                        A:40 X:33 Y:7E P:E5 SP:F9 STACK: 00 00 C6 14 D3 48
F935  38        SEC                             A:40 X:33 Y:7E P:65 SP:F9 STACK: 00 00 C6 14 D3 48
F936  60        RTS                             A:40 X:33 Y:7E P:65 SP:F9 STACK: 00 00 C6 14 D3 48
D349  E5 78     SBC $78 = 40                    A:40 X:33 Y:7E P:65 SP:FB STACK: 00 00 C6 14
D34B  20 37 F9  JSR $F937                       A:00 X:33 Y:7E P:27 SP:FB STACK: 00 00 C6 14
F937  30 0B     BMI $F944                       A:00 X:33 Y:7E P:27 SP:F9 STACK: 00 00 C6 14 D3 4D
F939  90 09     BCC $F944                       A:00 X:33 Y:7E P:27 SP:F9 STACK: 00 00 C6 14 D3 4D
F93B  D0 07     BNE $F944                       A:00 X:33 Y:7E P:27 SP:F9 STACK: 00 00 C6 14 D3 4D
F93D  70 05     BVS $F944                       A:00 X:33 Y:7E P:27 SP:F9 STACK: 00 00 C6 14 D3 4D
F93F  C9 00     CMP #$00                        A:00 X:33 Y:7E P:27 SP:F9 STACK: 00 00 C6 14 D3 4D
F941  D0 01     BNE $F944                       A:00 X:33 Y:7E P:27 SP:F9 STACK: 00 00 C6 14 D3 4D
F943  60        RTS                             A:00 X:33 Y:7E P:27 SP:F9 STACK: 00 00 C6 14 D3 4D
D34E  C8        INY                             A:00 X:33 Y:7E P:27 SP:FB STACK: 00 00 C6 14
D34F  A9 3F     LDA #$3F                        A:00 X:33 Y:7E P:27 SP:FB STACK: 00 00 C6 14
D351  85 78     STA $78 = 40                    A:3F X:33 Y:7E P:25 SP:FB STACK: 00 00 C6 14
D353  20 47 F9  JSR $F947                       A:3F X:33 Y:7E P:25 SP:FB STACK: 00 00 C6 14
F947  B8        CLV                             A:3F X:33 Y:7E P:25 SP:F9 STACK: 00 00 C6 14 D3 55
F948  38        SEC                             A:3F X:33 Y:7E P:25 SP:F9 STACK: 00 00 C6 14 D3 55
F949  A9 40     LDA #$40                        A:3F X:33 Y:7E P:25 SP:F9 STACK: 00 00 C6 14 D3 55
F94B  60        RTS                             A:40 X:33 Y:7E P:25 SP:F9 STACK: 00 00 C6 14 D3 55
D356  E5 78     SBC $78 = 3F                    A:40 X:33 Y:7E P:25 SP:FB STACK: 00 00 C6 14
D358  20 4C F9  JSR $F94C                       A:FF X:33 Y:7E P:A4 SP:FB STACK: 00 00 C6 14
F94C  F0 0B     BEQ $F959                       A:FF X:33 Y:7E P:A4 SP:F9 STACK: 00 00 C6 14 D3 5A
F94E  30 09     BMI $F959                       A:FF X:33 Y:7E P:A4 SP:F9 STACK: 00 00 C6 14 D3 5A
F959  84 00     STY $00 = 5A                    A:FF X:33 Y:7E P:A4 SP:F9 STACK: 00 00 C6 14 D3 5A
F95B  60        RTS                             A:FF X:33 Y:7E P:A4 SP:F9 STACK: 00 00 C6 14 D3 5A
D35B  C8        INY                             A:FF X:33 Y:7E P:A4 SP:FB STACK: 00 00 C6 14
D35C  A9 41     LDA #$41                        A:FF X:33 Y:7E P:A4 SP:FB STACK: 00 00 C6 14
D35E  85 78     STA $78 = 3F                    A:41 X:33 Y:7E P:24 SP:FB STACK: 00 00 C6 14
D360  20 5C F9  JSR $F95C                       A:41 X:33 Y:7E P:24 SP:FB STACK: 00 00 C6 14
F95C  A9 40     LDA #$40                        A:41 X:33 Y:7E P:24 SP:F9 STACK: 00 00 C6 14 D3 62
F95E  38        SEC                             A:40 X:33 Y:7E P:24 SP:F9 STACK: 00 00 C6 14 D3 62
F95F  24 01     BIT $01 = FF                    A:40 X:33 Y:7E P:25 SP:F9 STACK: 00 00 C6 14 D3 62
F961  60        RTS                             A:40 X:33 Y:7E P:E5 SP:F9 STACK: 00 00 C6 14 D3 62
D363  E5 78     SBC $78 = 41                    A:40 X:33 Y:7E P:E5 SP:FB STACK: 00 00 C6 14
D365  20 62 F9  JSR $F962                       A:01 X:33 Y:7E P:25 SP:FB STACK: 00 00 C6 14
F962  B0 0B     BCS $F96F                       A:01 X:33 Y:7E P:25 SP:F9 STACK: 00 00 C6 14 D3 67
F96F  84 00     STY $00 = 7E                    A:01 X:33 Y:7E P:25 SP:F9 STACK: 00 00 C6 14 D3 67
F971  60        RTS                             A:01 X:33 Y:7E P:25 SP:F9 STACK: 00 00 C6 14 D3 67
D368  C8        INY                             A:01 X:33 Y:7E P:25 SP:FB STACK: 00 00 C6 14
D369  A9 00     LDA #$00                        A:01 X:33 Y:7E P:25 SP:FB STACK: 00 00 C6 14
D36B  85 78     STA $78 = 41                    A:00 X:33 Y:7E P:27 SP:FB STACK: 00 00 C6 14
D36D  20 72 F9  JSR $F972                       A:00 X:33 Y:7E P:27 SP:FB STACK: 00 00 C6 14
F972  18        CLC                             A:00 X:33 Y:7E P:27 SP:F9 STACK: 00 00 C6 14 D3 6F
F973  A9 80     LDA #$80                        A:00 X:33 Y:7E P:26 SP:F9 STACK: 00 00 C6 14 D3 6F
F975  60        RTS                             A:80 X:33 Y:7E P:A4 SP:F9 STACK: 00 00 C6 14 D3 6F
D370  E5 78     SBC $78 = 00                    A:80 X:33 Y:7E P:A4 SP:FB STACK: 00 00 C6 14
D372  20 76 F9  JSR $F976                       A:81 X:33 Y:7E P:E4 SP:FB STACK: 00 00 C6 14
F976  90 05     BCC $F97D                       A:81 X:33 Y:7E P:E4 SP:F9 STACK: 00 00 C6 14 D3 74
F97D  84 00     STY $00 = 7E                    A:81 X:33 Y:7E P:E4 SP:F9 STACK: 00 00 C6 14 D3 74
F97F  60        RTS                             A:81 X:33 Y:7E P:E4 SP:F9 STACK: 00 00 C6 14 D3 74
D375  C8        INY                             A:81 X:33 Y:7E P:E4 SP:FB STACK: 00 00 C6 14
D376  A9 7F     LDA #$7F                        A:81 X:33 Y:7E P:E4 SP:FB STACK: 00 00 C6 14
D378  85 78     STA $78 = 00                    A:7F X:33 Y:7E P:64 SP:FB STACK: 00 00 C6 14
D37A  20 80 F9  JSR $F980                       A:7F X:33 Y:7E P:64 SP:FB STACK: 00 00 C6 14
F980  38        SEC                             A:7F X:33 Y:7E P:64 SP:F9 STACK: 00 00 C6 14 D3 7C
F981  A9 81     LDA #$81                        A:7F X:33 Y:7E P:65 SP:F9 STACK: 00 00 C6 14 D3 7C
F983  60        RTS                             A:81 X:33 Y:7E P:E5 SP:F9 STACK: 00 00 C6 14 D3 7C
D37D  E5 78     SBC $78 = 7F                    A:81 X:33 Y:7E P:E5 SP:FB STACK: 00 00 C6 14
D37F  20 84 F9  JSR $F984                       A:FE X:33 Y:7E P:E4 SP:FB STACK: 00 00 C6 14
F984  50 07     BVC $F98D                       A:FE X:33 Y:7E P:E4 SP:F9 STACK: 00 00 C6 14 D3 81
F986  90 05     BCC $F98D                       A:FE X:33 Y:7E P:E4 SP:F9 STACK: 00 00 C6 14 D3 81
F98D  84 00     STY $00 = 7E                    A:FE X:33 Y:7E P:E4 SP:F9 STACK: 00 00 C6 14 D3 81
F98F  60        RTS                             A:FE X:33 Y:7E P:E4 SP:F9 STACK: 00 00 C6 14 D3 81
D382  C8        INY                             A:FE X:33 Y:7E P:E4 SP:FB STACK: 00 00 C6 14
D383  A9 40     LDA #$40                        A:FE X:33 Y:7E P:E4 SP:FB STACK: 00 00 C6 14
D385  85 78     STA $78 = 7F                    A:40 X:33 Y:7E P:64 SP:FB STACK: 00 00 C6 14
D387  20 89 F8  JSR $F889                       A:40 X:33 Y:7E P:64 SP:FB STACK: 00 00 C6 14
F889  24 01     BIT $01 = FF                    A:40 X:33 Y:7E P:64 SP:F9 STACK: 00 00 C6 14 D3 89
F88B  A9 40     LDA #$40                        A:40 X:33 Y:7E P:E4 SP:F9 STACK: 00 00 C6 14 D3 89
F88D  60        RTS                             A:40 X:33 Y:7E P:64 SP:F9 STACK: 00 00 C6 14 D3 89
D38A  AA        TAX                             A:40 X:33 Y:7E P:64 SP:FB STACK: 00 00 C6 14
D38B  E4 78     CPX $78 = 40                    A:40 X:40 Y:7E P:64 SP:FB STACK: 00 00 C6 14
D38D  20 8E F8  JSR $F88E                       A:40 X:40 Y:7E P:67 SP:FB STACK: 00 00 C6 14
F88E  30 07     BMI $F897                       A:40 X:40 Y:7E P:67 SP:F9 STACK: 00 00 C6 14 D3 8F
F890  90 05     BCC $F897                       A:40 X:40 Y:7E P:67 SP:F9 STACK: 00 00 C6 14 D3 8F
F892  D0 03     BNE $F897                       A:40 X:40 Y:7E P:67 SP:F9 STACK: 00 00 C6 14 D3 8F
F894  50 01     BVC $F897                       A:40 X:40 Y:7E P:67 SP:F9 STACK: 00 00 C6 14 D3 8F
F896  60        RTS                             A:40 X:40 Y:7E P:67 SP:F9 STACK: 00 00 C6 14 D3 8F
D390  C8        INY                             A:40 X:40 Y:7E P:67 SP:FB STACK: 00 00 C6 14
D391  A9 3F     LDA #$3F                        A:40 X:40 Y:7E P:67 SP:FB STACK: 00 00 C6 14
D393  85 78     STA $78 = 40                    A:3F X:40 Y:7E P:65 SP:FB STACK: 00 00 C6 14
D395  20 9A F8  JSR $F89A                       A:3F X:40 Y:7E P:65 SP:FB STACK: 00 00 C6 14
F89A  B8        CLV                             A:3F X:40 Y:7E P:65 SP:F9 STACK: 00 00 C6 14 D3 97
F89B  60        RTS                             A:3F X:40 Y:7E P:25 SP:F9 STACK: 00 00 C6 14 D3 97
D398  E4 78     CPX $78 = 3F                    A:3F X:40 Y:7E P:25 SP:FB STACK: 00 00 C6 14
D39A  20 9C F8  JSR $F89C                       A:3F X:40 Y:7E P:25 SP:FB STACK: 00 00 C6 14
F89C  F0 07     BEQ $F8A5                       A:3F X:40 Y:7E P:25 SP:F9 STACK: 00 00 C6 14 D3 9C
F89E  30 05     BMI $F8A5                       A:3F X:40 Y:7E P:25 SP:F9 STACK: 00 00 C6 14 D3 9C
F8A0  90 03     BCC $F8A5                       A:3F X:40 Y:7E P:25 SP:F9 STACK: 00 00 C6 14 D3 9C
F8A2  70 01     BVS $F8A5                       A:3F X:40 Y:7E P:25 SP:F9 STACK: 00 00 C6 14 D3 9C
F8A4  60        RTS                             A:3F X:40 Y:7E P:25 SP:F9 STACK: 00 00 C6 14 D3 9C
D39D  C8        INY                             A:3F X:40 Y:7E P:25 SP:FB STACK: 00 00 C6 14
D39E  A9 41     LDA #$41                        A:3F X:40 Y:7E P:25 SP:FB STACK: 00 00 C6 14
D3A0  85 78     STA $78 = 3F                    A:41 X:40 Y:7E P:25 SP:FB STACK: 00 00 C6 14
D3A2  E4 78     CPX $78 = 41                    A:41 X:40 Y:7E P:25 SP:FB STACK: 00 00 C6 14
D3A4  20 A8 F8  JSR $F8A8                       A:41 X:40 Y:7E P:A4 SP:FB STACK: 00 00 C6 14
F8A8  F0 05     BEQ $F8AF                       A:41 X:40 Y:7E P:A4 SP:F9 STACK: 00 00 C6 14 D3 A6
F8AA  10 03     BPL $F8AF                       A:41 X:40 Y:7E P:A4 SP:F9 STACK: 00 00 C6 14 D3 A6
F8AC  10 01     BPL $F8AF                       A:41 X:40 Y:7E P:A4 SP:F9 STACK: 00 00 C6 14 D3 A6
F8AE  60        RTS                             A:41 X:40 Y:7E P:A4 SP:F9 STACK: 00 00 C6 14 D3 A6
D3A7  C8        INY                             A:41 X:40 Y:7E P:A4 SP:FB STACK: 00 00 C6 14
D3A8  A9 00     LDA #$00                        A:41 X:40 Y:7E P:A4 SP:FB STACK: 00 00 C6 14
D3AA  85 78     STA $78 = 41                    A:00 X:40 Y:7E P:26 SP:FB STACK: 00 00 C6 14
D3AC  20 B2 F8  JSR $F8B2                       A:00 X:40 Y:7E P:26 SP:FB STACK: 00 00 C6 14
F8B2  A9 80     LDA #$80                        A:00 X:40 Y:7E P:26 SP:F9 STACK: 00 00 C6 14 D3 AE
F8B4  60        RTS                             A:80 X:40 Y:7E P:A4 SP:F9 STACK: 00 00 C6 14 D3 AE
D3AF  AA        TAX                             A:80 X:40 Y:7E P:A4 SP:FB STACK: 00 00 C6 14
D3B0  E4 78     CPX $78 = 00                    A:80 X:80 Y:7E P:A4 SP:FB STACK: 00 00 C6 14
D3B2  20 B5 F8  JSR $F8B5                       A:80 X:80 Y:7E P:A5 SP:FB STACK: 00 00 C6 14
F8B5  F0 05     BEQ $F8BC                       A:80 X:80 Y:7E P:A5 SP:F9 STACK: 00 00 C6 14 D3 B4
F8B7  10 03     BPL $F8BC                       A:80 X:80 Y:7E P:A5 SP:F9 STACK: 00 00 C6 14 D3 B4
F8B9  90 01     BCC $F8BC                       A:80 X:80 Y:7E P:A5 SP:F9 STACK: 00 00 C6 14 D3 B4
F8BB  60        RTS                             A:80 X:80 Y:7E P:A5 SP:F9 STACK: 00 00 C6 14 D3 B4
D3B5  C8        INY                             A:80 X:80 Y:7E P:A5 SP:FB STACK: 00 00 C6 14
D3B6  A9 80     LDA #$80                        A:80 X:80 Y:7E P:A5 SP:FB STACK: 00 00 C6 14
D3B8  85 78     STA $78 = 00                    A:80 X:80 Y:7E P:A5 SP:FB STACK: 00 00 C6 14
D3BA  E4 78     CPX $78 = 80                    A:80 X:80 Y:7E P:A5 SP:FB STACK: 00 00 C6 14
D3BC  20 BF F8  JSR $F8BF                       A:80 X:80 Y:7E P:27 SP:FB STACK: 00 00 C6 14
F8BF  D0 05     BNE $F8C6                       A:80 X:80 Y:7E P:27 SP:F9 STACK: 00 00 C6 14 D3 BE
F8C1  30 03     BMI $F8C6                       A:80 X:80 Y:7E P:27 SP:F9 STACK: 00 00 C6 14 D3 BE
F8C3  90 01     BCC $F8C6                       A:80 X:80 Y:7E P:27 SP:F9 STACK: 00 00 C6 14 D3 BE
F8C5  60        RTS                             A:80 X:80 Y:7E P:27 SP:F9 STACK: 00 00 C6 14 D3 BE
D3BF  C8        INY                             A:80 X:80 Y:7E P:27 SP:FB STACK: 00 00 C6 14
D3C0  A9 81     LDA #$81                        A:80 X:80 Y:7E P:27 SP:FB STACK: 00 00 C6 14
D3C2  85 78     STA $78 = 80                    A:81 X:80 Y:7E P:A5 SP:FB STACK: 00 00 C6 14
D3C4  E4 78     CPX $78 = 81                    A:81 X:80 Y:7E P:A5 SP:FB STACK: 00 00 C6 14
D3C6  20 C9 F8  JSR $F8C9                       A:81 X:80 Y:7E P:A4 SP:FB STACK: 00 00 C6 14
F8C9  B0 05     BCS $F8D0                       A:81 X:80 Y:7E P:A4 SP:F9 STACK: 00 00 C6 14 D3 C8
F8CB  F0 03     BEQ $F8D0                       A:81 X:80 Y:7E P:A4 SP:F9 STACK: 00 00 C6 14 D3 C8
F8CD  10 01     BPL $F8D0                       A:81 X:80 Y:7E P:A4 SP:F9 STACK: 00 00 C6 14 D3 C8
F8CF  60        RTS                             A:81 X:80 Y:7E P:A4 SP:F9 STACK: 00 00 C6 14 D3 C8
D3C9  C8        INY                             A:81 X:80 Y:7E P:A4 SP:FB STACK: 00 00 C6 14
D3CA  A9 7F     LDA #$7F                        A:81 X:80 Y:7E P:A4 SP:FB STACK: 00 00 C6 14
D3CC  85 78     STA $78 = 81                    A:7F X:80 Y:7E P:24 SP:FB STACK: 00 00 C6 14
D3CE  E4 78     CPX $78 = 7F                    A:7F X:80 Y:7E P:24 SP:FB STACK: 00 00 C6 14
D3D0  20 D3 F8  JSR $F8D3                       A:7F X:80 Y:7E P:25 SP:FB STACK: 00 00 C6 14
F8D3  90 05     BCC $F8DA                       A:7F X:80 Y:7E P:25 SP:F9 STACK: 00 00 C6 14 D3 D2
F8D5  F0 03     BEQ $F8DA                       A:7F X:80 Y:7E P:25 SP:F9 STACK: 00 00 C6 14 D3 D2
F8D7  30 01     BMI $F8DA                       A:7F X:80 Y:7E P:25 SP:F9 STACK: 00 00 C6 14 D3 D2
F8D9  60        RTS                             A:7F X:80 Y:7E P:25 SP:F9 STACK: 00 00 C6 14 D3 D2
D3D3  C8        INY                             A:7F X:80 Y:7E P:25 SP:FB STACK: 00 00 C6 14
D3D4  98        TYA                             A:7F X:80 Y:7E P:25 SP:FB STACK: 00 00 C6 14
D3D5  AA        TAX                             A:7E X:80 Y:7E P:25 SP:FB STACK: 00 00 C6 14
D3D6  A9 40     LDA #$40                        A:7E X:7E Y:7E P:25 SP:FB STACK: 00 00 C6 14
D3D8  85 78     STA $78 = 7F                    A:40 X:7E Y:7E P:25 SP:FB STACK: 00 00 C6 14
D3DA  20 DD F8  JSR $F8DD                       A:40 X:7E Y:7E P:25 SP:FB STACK: 00 00 C6 14
F8DD  24 01     BIT $01 = FF                    A:40 X:7E Y:7E P:25 SP:F9 STACK: 00 00 C6 14 D3 DC
F8DF  A0 40     LDY #$40                        A:40 X:7E Y:7E P:E5 SP:F9 STACK: 00 00 C6 14 D3 DC
F8E1  60        RTS                             A:40 X:7E Y:40 P:65 SP:F9 STACK: 00 00 C6 14 D3 DC
D3DD  C4 78     CPY $78 = 40                    A:40 X:7E Y:40 P:65 SP:FB STACK: 00 00 C6 14
D3DF  20 E2 F8  JSR $F8E2                       A:40 X:7E Y:40 P:67 SP:FB STACK: 00 00 C6 14
F8E2  30 07     BMI $F8EB                       A:40 X:7E Y:40 P:67 SP:F9 STACK: 00 00 C6 14 D3 E1
F8E4  90 05     BCC $F8EB                       A:40 X:7E Y:40 P:67 SP:F9 STACK: 00 00 C6 14 D3 E1
F8E6  D0 03     BNE $F8EB                       A:40 X:7E Y:40 P:67 SP:F9 STACK: 00 00 C6 14 D3 E1
F8E8  50 01     BVC $F8EB                       A:40 X:7E Y:40 P:67 SP:F9 STACK: 00 00 C6 14 D3 E1
F8EA  60        RTS                             A:40 X:7E Y:40 P:67 SP:F9 STACK: 00 00 C6 14 D3 E1
D3E2  E8        INX                             A:40 X:7E Y:40 P:67 SP:FB STACK: 00 00 C6 14
D3E3  A9 3F     LDA #$3F                        A:40 X:7E Y:40 P:67 SP:FB STACK: 00 00 C6 14
D3E5  85 78     STA $78 = 40                    A:3F X:7E Y:40 P:65 SP:FB STACK: 00 00 C6 14
D3E7  20 EE F8  JSR $F8EE                       A:3F X:7E Y:40 P:65 SP:FB STACK: 00 00 C6 14
F8EE  B8        CLV                             A:3F X:7E Y:40 P:65 SP:F9 STACK: 00 00 C6 14 D3 E9
F8EF  60        RTS                             A:3F X:7E Y:40 P:25 SP:F9 STACK: 00 00 C6 14 D3 E9
D3EA  C4 78     CPY $78 = 3F                    A:3F X:7E Y:40 P:25 SP:FB STACK: 00 00 C6 14
D3EC  20 F0 F8  JSR $F8F0                       A:3F X:7E Y:40 P:25 SP:FB STACK: 00 00 C6 14
F8F0  F0 07     BEQ $F8F9                       A:3F X:7E Y:40 P:25 SP:F9 STACK: 00 00 C6 14 D3 EE
F8F2  30 05     BMI $F8F9                       A:3F X:7E Y:40 P:25 SP:F9 STACK: 00 00 C6 14 D3 EE
F8F4  90 03     BCC $F8F9                       A:3F X:7E Y:40 P:25 SP:F9 STACK: 00 00 C6 14 D3 EE
F8F6  70 01     BVS $F8F9                       A:3F X:7E Y:40 P:25 SP:F9 STACK: 00 00 C6 14 D3 EE
F8F8  60        RTS                             A:3F X:7E Y:40 P:25 SP:F9 STACK: 00 00 C6 14 D3 EE
D3EF  E8        INX                             A:3F X:7E Y:40 P:25 SP:FB STACK: 00 00 C6 14
D3F0  A9 41     LDA #$41                        A:3F X:7E Y:40 P:25 SP:FB STACK: 00 00 C6 14
D3F2  85 78     STA $78 = 3F                    A:41 X:7E Y:40 P:25 SP:FB STACK: 00 00 C6 14
D3F4  C4 78     CPY $78 = 41                    A:41 X:7E Y:40 P:25 SP:FB STACK: 00 00 C6 14
D3F6  20 FC F8  JSR $F8FC                       A:41 X:7E Y:40 P:A4 SP:FB STACK: 00 00 C6 14
F8FC  F0 05     BEQ $F903                       A:41 X:7E Y:40 P:A4 SP:F9 STACK: 00 00 C6 14 D3 F8
F8FE  10 03     BPL $F903                       A:41 X:7E Y:40 P:A4 SP:F9 STACK: 00 00 C6 14 D3 F8
F900  10 01     BPL $F903                       A:41 X:7E Y:40 P:A4 SP:F9 STACK: 00 00 C6 14 D3 F8
F902  60        RTS                             A:41 X:7E Y:40 P:A4 SP:F9 STACK: 00 00 C6 14 D3 F8
D3F9  E8        INX                             A:41 X:7E Y:40 P:A4 SP:FB STACK: 00 00 C6 14
D3FA  A9 00     LDA #$00                        A:41 X:7E Y:40 P:A4 SP:FB STACK: 00 00 C6 14
D3FC  85 78     STA $78 = 41                    A:00 X:7E Y:40 P:26 SP:FB STACK: 00 00 C6 14
D3FE  20 06 F9  JSR $F906                       A:00 X:7E Y:40 P:26 SP:FB STACK: 00 00 C6 14
F906  A0 80     LDY #$80                        A:00 X:7E Y:40 P:26 SP:F9 STACK: 00 00 C6 14 D4 00
F908  60        RTS                             A:00 X:7E Y:80 P:A4 SP:F9 STACK: 00 00 C6 14 D4 00
D401  C4 78     CPY $78 = 00                    A:00 X:7E Y:80 P:A4 SP:FB STACK: 00 00 C6 14
D403  20 09 F9  JSR $F909                       A:00 X:7E Y:80 P:A5 SP:FB STACK: 00 00 C6 14
F909  F0 05     BEQ $F910                       A:00 X:7E Y:80 P:A5 SP:F9 STACK: 00 00 C6 14 D4 05
F90B  10 03     BPL $F910                       A:00 X:7E Y:80 P:A5 SP:F9 STACK: 00 00 C6 14 D4 05
F90D  90 01     BCC $F910                       A:00 X:7E Y:80 P:A5 SP:F9 STACK: 00 00 C6 14 D4 05
F90F  60        RTS                             A:00 X:7E Y:80 P:A5 SP:F9 STACK: 00 00 C6 14 D4 05
D406  E8        INX                             A:00 X:7E Y:80 P:A5 SP:FB STACK: 00 00 C6 14
D407  A9 80     LDA #$80                        A:00 X:7E Y:80 P:A5 SP:FB STACK: 00 00 C6 14
D409  85 78     STA $78 = 00                    A:80 X:7E Y:80 P:A5 SP:FB STACK: 00 00 C6 14
D40B  C4 78     CPY $78 = 80                    A:80 X:7E Y:80 P:A5 SP:FB STACK: 00 00 C6 14
D40D  20 13 F9  JSR $F913                       A:80 X:7E Y:80 P:27 SP:FB STACK: 00 00 C6 14
F913  D0 05     BNE $F91A                       A:80 X:7E Y:80 P:27 SP:F9 STACK: 00 00 C6 14 D4 0F
F915  30 03     BMI $F91A                       A:80 X:7E Y:80 P:27 SP:F9 STACK: 00 00 C6 14 D4 0F
F917  90 01     BCC $F91A                       A:80 X:7E Y:80 P:27 SP:F9 STACK: 00 00 C6 14 D4 0F
F919  60        RTS                             A:80 X:7E Y:80 P:27 SP:F9 STACK: 00 00 C6 14 D4 0F
D410  E8        INX                             A:80 X:7E Y:80 P:27 SP:FB STACK: 00 00 C6 14
D411  A9 81     LDA #$81                        A:80 X:7E Y:80 P:27 SP:FB STACK: 00 00 C6 14
D413  85 78     STA $78 = 80                    A:81 X:7E Y:80 P:A5 SP:FB STACK: 00 00 C6 14
D415  C4 78     CPY $78 = 81                    A:81 X:7E Y:80 P:A5 SP:FB STACK: 00 00 C6 14
D417  20 1D F9  JSR $F91D                       A:81 X:7E Y:80 P:A4 SP:FB STACK: 00 00 C6 14
F91D  B0 05     BCS $F924                       A:81 X:7E Y:80 P:A4 SP:F9 STACK: 00 00 C6 14 D4 19
F91F  F0 03     BEQ $F924                       A:81 X:7E Y:80 P:A4 SP:F9 STACK: 00 00 C6 14 D4 19
F921  10 01     BPL $F924                       A:81 X:7E Y:80 P:A4 SP:F9 STACK: 00 00 C6 14 D4 19
F923  60        RTS                             A:81 X:7E Y:80 P:A4 SP:F9 STACK: 00 00 C6 14 D4 19
D41A  E8        INX                             A:81 X:7E Y:80 P:A4 SP:FB STACK: 00 00 C6 14
D41B  A9 7F     LDA #$7F                        A:81 X:7E Y:80 P:A4 SP:FB STACK: 00 00 C6 14
D41D  85 78     STA $78 = 81                    A:7F X:7E Y:80 P:24 SP:FB STACK: 00 00 C6 14
D41F  C4 78     CPY $78 = 7F                    A:7F X:7E Y:80 P:24 SP:FB STACK: 00 00 C6 14
D421  20 27 F9  JSR $F927                       A:7F X:7E Y:80 P:25 SP:FB STACK: 00 00 C6 14
F927  90 05     BCC $F92E                       A:7F X:7E Y:80 P:25 SP:F9 STACK: 00 00 C6 14 D4 23
F929  F0 03     BEQ $F92E                       A:7F X:7E Y:80 P:25 SP:F9 STACK: 00 00 C6 14 D4 23
F92B  30 01     BMI $F92E                       A:7F X:7E Y:80 P:25 SP:F9 STACK: 00 00 C6 14 D4 23
F92D  60        RTS                             A:7F X:7E Y:80 P:25 SP:F9 STACK: 00 00 C6 14 D4 23
D424  E8        INX                             A:7F X:7E Y:80 P:25 SP:FB STACK: 00 00 C6 14
D425  8A        TXA                             A:7F X:7E Y:80 P:25 SP:FB STACK: 00 00 C6 14
D426  A8        TAY                             A:7E X:7E Y:80 P:25 SP:FB STACK: 00 00 C6 14
D427  20 90 F9  JSR $F990                       A:7E X:7E Y:7E P:25 SP:FB STACK: 00 00 C6 14
F990  A2 55     LDX #$55                        A:7E X:7E Y:7E P:25 SP:F9 STACK: 00 00 C6 14 D4 29
F992  A9 FF     LDA #$FF                        A:7E X:55 Y:7E P:25 SP:F9 STACK: 00 00 C6 14 D4 29
F994  85 01     STA $01 = FF                    A:FF X:55 Y:7E P:A5 SP:F9 STACK: 00 00 C6 14 D4 29
F996  EA        NOP                             A:FF X:55 Y:7E P:A5 SP:F9 STACK: 00 00 C6 14 D4 29
F997  24 01     BIT $01 = FF                    A:FF X:55 Y:7E P:A5 SP:F9 STACK: 00 00 C6 14 D4 29
F999  38        SEC                             A:FF X:55 Y:7E P:E5 SP:F9 STACK: 00 00 C6 14 D4 29
F99A  A9 01     LDA #$01                        A:FF X:55 Y:7E P:E5 SP:F9 STACK: 00 00 C6 14 D4 29
F99C  60        RTS                             A:01 X:55 Y:7E P:65 SP:F9 STACK: 00 00 C6 14 D4 29
D42A  85 78     STA $78 = 7F                    A:01 X:55 Y:7E P:65 SP:FB STACK: 00 00 C6 14
D42C  46 78     LSR $78 = 01                    A:01 X:55 Y:7E P:65 SP:FB STACK: 00 00 C6 14
