C000  4C F5 C5  JMP $C5F5                       A:00 X:00 Y:00 P:24 SP:FD STACK: 00 00
C5F5  A2 00     LDX #$00                        A:00 X:00 Y:00 P:24 SP:FD STACK: 00 00
C5F7  86 00     STX $00 = 00                    A:00 X:00 Y:00 P:26 SP:FD STACK: 00 00
C5F9  86 10     STX $10 = 00                    A:00 X:00 Y:00 P:26 SP:FD STACK: 00 00
C5FB  86 11     STX $11 = 00                    A:00 X:00 Y:00 P:26 SP:FD STACK: 00 00
C5FD  20 2D C7  JSR $C72D                       A:00 X:00 Y:00 P:26 SP:FD STACK: 00 00
C72D  EA        NOP                             A:00 X:00 Y:00 P:26 SP:FB STACK: 00 00 C5 FF
C72E  38        SEC                             A:00 X:00 Y:00 P:26 SP:FB STACK: 00 00 C5 FF
C72F  B0 04     BCS $C735                       A:00 X:00 Y:00 P:27 SP:FB STACK: 00 00 C5 FF
C735  EA        NOP                             A:00 X:00 Y:00 P:27 SP:FB STACK: 00 00 C5 FF
C736  18        CLC                             A:00 X:00 Y:00 P:27 SP:FB STACK: 00 00 C5 FF
C737  B0 03     BCS $C73C                       A:00 X:00 Y:00 P:26 SP:FB STACK: 00 00 C5 FF
C739  4C 40 C7  JMP $C740                       A:00 X:00 Y:00 P:26 SP:FB STACK: 00 00 C5 FF
C740  EA        NOP                             A:00 X:00 Y:00 P:26 SP:FB STACK: 00 00 C5 FF
C741  38        SEC                             A:00 X:00 Y:00 P:26 SP:FB STACK: 00 00 C5 FF
C742  90 03     BCC $C747                       A:00 X:00 Y:00 P:27 SP:FB STACK: 00 00 C5 FF
C744  4C 4B C7  JMP $C74B                       A:00 X:00 Y:00 P:27 SP:FB STACK: 00 00 C5 FF
C74B  EA        NOP                             A:00 X:00 Y:00 P:27 SP:FB STACK: 00 00 C5 FF
C74C  18        CLC                             A:00 X:00 Y:00 P:27 SP:FB STACK: 00 00 C5 FF
C74D  90 04     BCC $C753                       A:00 X:00 Y:00 P:26 SP:FB STACK: 00 00 C5 FF
C753  EA        NOP                             A:00 X:00 Y:00 P:26 SP:FB STACK: 00 00 C5 FF
C754  A9 00     LDA #$00                        A:00 X:00 Y:00 P:26 SP:FB STACK: 00 00 C5 FF
C756  F0 04     BEQ $C75C                       A:00 X:00 Y:00 P:26 SP:FB STACK: 00 00 C5 FF
C75C  EA        NOP                             A:00 X:00 Y:00 P:26 SP:FB STACK: 00 00 C5 FF
C75D  A9 40     LDA #$40                        A:00 X:00 Y:00 P:26 SP:FB STACK: 00 00 C5 FF
C75F  F0 03     BEQ $C764                       A:40 X:00 Y:00 P:24 SP:FB STACK: 00 00 C5 FF
C761  4C 68 C7  JMP $C768                       A:40 X:00 Y:00 P:24 SP:FB STACK: 00 00 C5 FF
C768  EA        NOP                             A:40 X:00 Y:00 P:24 SP:FB STACK: 00 00 C5 FF
C769  A9 40     LDA #$40                        A:40 X:00 Y:00 P:24 SP:FB STACK: 00 00 C5 FF
C76B  D0 04     BNE $C771                       A:40 X:00 Y:00 P:24 SP:FB STACK: 00 00 C5 FF
C771  EA        NOP                             A:40 X:00 Y:00 P:24 SP:FB STACK: 00 00 C5 FF
C772  A9 00     LDA #$00                        A:40 X:00 Y:00 P:24 SP:FB STACK: 00 00 C5 FF
C774  D0 03     BNE $C779                       A:00 X:00 Y:00 P:26 SP:FB STACK: 00 00 C5 FF
C776  4C 7D C7  JMP $C77D                       A:00 X:00 Y:00 P:26 SP:FB STACK: 00 00 C5 FF
C77D  EA        NOP                             A:00 X:00 Y:00 P:26 SP:FB STACK: 00 00 C5 FF
C77E  A9 FF     LDA #$FF                        A:00 X:00 Y:00 P:26 SP:FB STACK: 00 00 C5 FF
C780  85 01     STA $01 = 00                    A:FF X:00 Y:00 P:A4 SP:FB STACK: 00 00 C5 FF
C782  24 01     BIT $01 = FF                    A:FF X:00 Y:00 P:A4 SP:FB STACK: 00 00 C5 FF
C784  70 04     BVS $C78A                       A:FF X:00 Y:00 P:E4 SP:FB STACK: 00 00 C5 FF
C78A  EA        NOP                             A:FF X:00 Y:00 P:E4 SP:FB STACK: 00 00 C5 FF
C78B  24 01     BIT $01 = FF                    A:FF X:00 Y:00 P:E4 SP:FB STACK: 00 00 C5 FF
C78D  50 03     BVC $C792                       A:FF X:00 Y:00 P:E4 SP:FB STACK: 00 00 C5 FF
C78F  4C 96 C7  JMP $C796                       A:FF X:00 Y:00 P:E4 SP:FB STACK: 00 00 C5 FF
C796  EA        NOP                             A:FF X:00 Y:00 P:E4 SP:FB STACK: 00 00 C5 FF
C797  A9 00     LDA #$00                        A:FF X:00 Y:00 P:E4 SP:FB STACK: 00 00 C5 FF
C799  85 01     STA $01 = FF                    A:00 X:00 Y:00 P:66 SP:FB STACK: 00 00 C5 FF
C79B  24 01     BIT $01 = 00                    A:00 X:00 Y:00 P:66 SP:FB STACK: 00 00 C5 FF
C79D  50 04     BVC $C7A3                       A:00 X:00 Y:00 P:26 SP:FB STACK: 00 00 C5 FF
C7A3  EA        NOP                             A:00 X:00 Y:00 P:26 SP:FB STACK: 00 00 C5 FF
C7A4  24 01     BIT $01 = 00                    A:00 X:00 Y:00 P:26 SP:FB STACK: 00 00 C5 FF
C7A6  70 03     BVS $C7AB                       A:00 X:00 Y:00 P:26 SP:FB STACK: 00 00 C5 FF
C7A8  4C AF C7  JMP $C7AF                       A:00 X:00 Y:00 P:26 SP:FB STACK: 00 00 C5 FF
C7AF  EA        NOP                             A:00 X:00 Y:00 P:26 SP:FB STACK: 00 00 C5 FF
C7B0  A9 00     LDA #$00                        A:00 X:00 Y:00 P:26 SP:FB STACK: 00 00 C5 FF
C7B2  10 04     BPL $C7B8                       A:00 X:00 Y:00 P:26 SP:FB STACK: 00 00 C5 FF
C7B8  EA        NOP                             A:00 X:00 Y:00 P:26 SP:FB STACK: 00 00 C5 FF
C7B9  A9 80     LDA #$80                        A:00 X:00 Y:00 P:26 SP:FB STACK: 00 00 C5 FF
C7BB  10 03     BPL $C7C0                       A:80 X:00 Y:00 P:A4 SP:FB STACK: 00 00 C5 FF
C7BD  4C D9 C7  JMP $C7D9                       A:80 X:00 Y:00 P:A4 SP:FB STACK: 00 00 C5 FF
C7D9  EA        NOP                             A:80 X:00 Y:00 P:A4 SP:FB STACK: 00 00 C5 FF
C7DA  60        RTS                             A:80 X:00 Y:00 P:A4 SP:FB STACK: 00 00 C5 FF
C600  20 DB C7  JSR $C7DB                       A:80 X:00 Y:00 P:A4 SP:FD STACK: 00 00
C7DB  EA        NOP                             A:80 X:00 Y:00 P:A4 SP:FB STACK: 00 00 C6 02
C7DC  A9 FF     LDA #$FF                        A:80 X:00 Y:00 P:A4 SP:FB STACK: 00 00 C6 02
C7DE  85 01     STA $01 = 00                    A:FF X:00 Y:00 P:A4 SP:FB STACK: 00 00 C6 02
C7E0  24 01     BIT $01 = FF                    A:FF X:00 Y:00 P:A4 SP:FB STACK: 00 00 C6 02
C7E2  A9 00     LDA #$00                        A:FF X:00 Y:00 P:E4 SP:FB STACK: 00 00 C6 02
C7E4  38        SEC                             A:00 X:00 Y:00 P:66 SP:FB STACK: 00 00 C6 02
C7E5  78        SEI                             A:00 X:00 Y:00 P:67 SP:FB STACK: 00 00 C6 02
C7E6  F8        SED                             A:00 X:00 Y:00 P:67 SP:FB STACK: 00 00 C6 02
C7E7  08        PHP                             A:00 X:00 Y:00 P:6F SP:FB STACK: 00 00 C6 02
C7E8  68        PLA                             A:00 X:00 Y:00 P:6F SP:FA STACK: 00 00 C6 02 7F
C7E9  29 EF     AND #$EF                        A:7F X:00 Y:00 P:6D SP:FB STACK: 00 00 C6 02
C7EB  C9 6F     CMP #$6F                        A:6F X:00 Y:00 P:6D SP:FB STACK: 00 00 C6 02
C7ED  F0 04     BEQ $C7F3                       A:6F X:00 Y:00 P:6F SP:FB STACK: 00 00 C6 02
C7F3  EA        NOP                             A:6F X:00 Y:00 P:6F SP:FB STACK: 00 00 C6 02
C7F4  A9 40     LDA #$40                        A:6F X:00 Y:00 P:6F SP:FB STACK: 00 00 C6 02
C7F6  85 01     STA $01 = FF                    A:40 X:00 Y:00 P:6D SP:FB STACK: 00 00 C6 02
C7F8  24 01     BIT $01 = 40                    A:40 X:00 Y:00 P:6D SP:FB STACK: 00 00 C6 02
C7FA  D8        CLD                             A:40 X:00 Y:00 P:6D SP:FB STACK: 00 00 C6 02
C7FB  A9 10     LDA #$10                        A:40 X:00 Y:00 P:65 SP:FB STACK: 00 00 C6 02
C7FD  18        CLC                             A:10 X:00 Y:00 P:65 SP:FB STACK: 00 00 C6 02
C7FE  08        PHP                             A:10 X:00 Y:00 P:64 SP:FB STACK: 00 00 C6 02
C7FF  68        PLA                             A:10 X:00 Y:00 P:64 SP:FA STACK: 00 00 C6 02 74
C800  29 EF     AND #$EF                        A:74 X:00 Y:00 P:64 SP:FB STACK: 00 00 C6 02
C802  C9 64     CMP #$64                        A:64 X:00 Y:00 P:64 SP:FB STACK: 00 00 C6 02
C804  F0 04     BEQ $C80A                       A:64 X:00 Y:00 P:67 SP:FB STACK: 00 00 C6 02
C80A  EA        NOP                             A:64 X:00 Y:00 P:67 SP:FB STACK: 00 00 C6 02
C80B  A9 80     LDA #$80                        A:64 X:00 Y:00 P:67 SP:FB STACK: 00 00 C6 02
C80D  85 01     STA $01 = 40                    A:80 X:00 Y:00 P:E5 SP:FB STACK: 00 00 C6 02
C80F  24 01     BIT $01 = 80                    A:80 X:00 Y:00 P:E5 SP:FB STACK: 00 00 C6 02
C811  F8        SED                             A:80 X:00 Y:00 P:A5 SP:FB STACK: 00 00 C6 02
C812  A9 00     LDA #$00                        A:80 X:00 Y:00 P:AD SP:FB STACK: 00 00 C6 02
C814  38        SEC                             A:00 X:00 Y:00 P:2F SP:FB STACK: 00 00 C6 02
C815  08        PHP                             A:00 X:00 Y:00 P:2F SP:FB STACK: 00 00 C6 02
C816  68        PLA                             A:00 X:00 Y:00 P:2F SP:FA STACK: 00 00 C6 02 3F
C817  29 EF     AND #$EF                        A:3F X:00 Y:00 P:2D SP:FB STACK: 00 00 C6 02
C819  C9 2F     CMP #$2F                        A:2F X:00 Y:00 P:2D SP:FB STACK: 00 00 C6 02
C81B  F0 04     BEQ $C821                       A:2F X:00 Y:00 P:2F SP:FB STACK: 00 00 C6 02
C821  EA        NOP                             A:2F X:00 Y:00 P:2F SP:FB STACK: 00 00 C6 02
C822  A9 FF     LDA #$FF                        A:2F X:00 Y:00 P:2F SP:FB STACK: 00 00 C6 02
C824  48        PHA                             A:FF X:00 Y:00 P:AD SP:FB STACK: 00 00 C6 02
C825  28        PLP                             A:FF X:00 Y:00 P:AD SP:FA STACK: 00 00 C6 02 FF
C826  D0 09     BNE $C831                       A:FF X:00 Y:00 P:EF SP:FB STACK: 00 00 C6 02
C828  10 07     BPL $C831                       A:FF X:00 Y:00 P:EF SP:FB STACK: 00 00 C6 02
C82A  50 05     BVC $C831                       A:FF X:00 Y:00 P:EF SP:FB STACK: 00 00 C6 02
C82C  90 03     BCC $C831                       A:FF X:00 Y:00 P:EF SP:FB STACK: 00 00 C6 02
C82E  4C 35 C8  JMP $C835                       A:FF X:00 Y:00 P:EF SP:FB STACK: 00 00 C6 02
C835  EA        NOP                             A:FF X:00 Y:00 P:EF SP:FB STACK: 00 00 C6 02
C836  A9 04     LDA #$04                        A:FF X:00 Y:00 P:EF SP:FB STACK: 00 00 C6 02
C838  48        PHA                             A:04 X:00 Y:00 P:6D SP:FB STACK: 00 00 C6 02
C839  28        PLP                             A:04 X:00 Y:00 P:6D SP:FA STACK: 00 00 C6 02 04
C83A  F0 09     BEQ $C845                       A:04 X:00 Y:00 P:24 SP:FB STACK: 00 00 C6 02
C83C  30 07     BMI $C845                       A:04 X:00 Y:00 P:24 SP:FB STACK: 00 00 C6 02
C83E  70 05     BVS $C845                       A:04 X:00 Y:00 P:24 SP:FB STACK: 00 00 C6 02
C840  B0 03     BCS $C845                       A:04 X:00 Y:00 P:24 SP:FB STACK: 00 00 C6 02
C842  4C 49 C8  JMP $C849                       A:04 X:00 Y:00 P:24 SP:FB STACK: 00 00 C6 02
C849  EA        NOP                             A:04 X:00 Y:00 P:24 SP:FB STACK: 00 00 C6 02
C84A  F8        SED                             A:04 X:00 Y:00 P:24 SP:FB STACK: 00 00 C6 02
C84B  A9 FF     LDA #$FF                        A:04 X:00 Y:00 P:2C SP:FB STACK: 00 00 C6 02
C84D  85 01     STA $01 = 80                    A:FF X:00 Y:00 P:AC SP:FB STACK: 00 00 C6 02
C84F  24 01     BIT $01 = FF                    A:FF X:00 Y:00 P:AC SP:FB STACK: 00 00 C6 02
C851  18        CLC                             A:FF X:00 Y:00 P:EC SP:FB STACK: 00 00 C6 02
C852  A9 00     LDA #$00                        A:FF X:00 Y:00 P:EC SP:FB STACK: 00 00 C6 02
C854  48        PHA                             A:00 X:00 Y:00 P:6E SP:FB STACK: 00 00 C6 02
C855  A9 FF     LDA #$FF                        A:00 X:00 Y:00 P:6E SP:FA STACK: 00 00 C6 02 00
C857  68        PLA                             A:FF X:00 Y:00 P:EC SP:FA STACK: 00 00 C6 02 00
C858  D0 09     BNE $C863                       A:00 X:00 Y:00 P:6E SP:FB STACK: 00 00 C6 02
C85A  30 07     BMI $C863                       A:00 X:00 Y:00 P:6E SP:FB STACK: 00 00 C6 02
C85C  50 05     BVC $C863                       A:00 X:00 Y:00 P:6E SP:FB STACK: 00 00 C6 02
C85E  B0 03     BCS $C863                       A:00 X:00 Y:00 P:6E SP:FB STACK: 00 00 C6 02
C860  4C 67 C8  JMP $C867                       A:00 X:00 Y:00 P:6E SP:FB STACK: 00 00 C6 02
C867  EA        NOP                             A:00 X:00 Y:00 P:6E SP:FB STACK: 00 00 C6 02
C868  A9 00     LDA #$00                        A:00 X:00 Y:00 P:6E SP:FB STACK: 00 00 C6 02
C86A  85 01     STA $01 = FF                    A:00 X:00 Y:00 P:6E SP:FB STACK: 00 00 C6 02
C86C  24 01     BIT $01 = 00                    A:00 X:00 Y:00 P:6E SP:FB STACK: 00 00 C6 02
C86E  38        SEC                             A:00 X:00 Y:00 P:2E SP:FB STACK: 00 00 C6 02
C86F  A9 FF     LDA #$FF                        A:00 X:00 Y:00 P:2F SP:FB STACK: 00 00 C6 02
C871  48        PHA                             A:FF X:00 Y:00 P:AD SP:FB STACK: 00 00 C6 02
C872  A9 00     LDA #$00                        A:FF X:00 Y:00 P:AD SP:FA STACK: 00 00 C6 02 FF
C874  68        PLA                             A:00 X:00 Y:00 P:2F SP:FA STACK: 00 00 C6 02 FF
C875  F0 09     BEQ $C880                       A:FF X:00 Y:00 P:AD SP:FB STACK: 00 00 C6 02
C877  10 07     BPL $C880                       A:FF X:00 Y:00 P:AD SP:FB STACK: 00 00 C6 02
C879  70 05     BVS $C880                       A:FF X:00 Y:00 P:AD SP:FB STACK: 00 00 C6 02
C87B  90 03     BCC $C880                       A:FF X:00 Y:00 P:AD SP:FB STACK: 00 00 C6 02
C87D  4C 84 C8  JMP $C884                       A:FF X:00 Y:00 P:AD SP:FB STACK: 00 00 C6 02
C884  60        RTS                             A:FF X:00 Y:00 P:AD SP:FB STACK: 00 00 C6 02
C603  20 85 C8  JSR $C885                       A:FF X:00 Y:00 P:AD SP:FD STACK: 00 00
C885  EA        NOP                             A:FF X:00 Y:00 P:AD SP:FB STACK: 00 00 C6 05
C886  18        CLC                             A:FF X:00 Y:00 P:AD SP:FB STACK: 00 00 C6 05
C887  A9 FF     LDA #$FF                        A:FF X:00 Y:00 P:AC SP:FB STACK: 00 00 C6 05
C889  85 01     STA $01 = 00                    A:FF X:00 Y:00 P:AC SP:FB STACK: 00 00 C6 05
C88B  24 01     BIT $01 = FF                    A:FF X:00 Y:00 P:AC SP:FB STACK: 00 00 C6 05
C88D  A9 55     LDA #$55                        A:FF X:00 Y:00 P:EC SP:FB STACK: 00 00 C6 05
C88F  09 AA     ORA #$AA                        A:55 X:00 Y:00 P:6C SP:FB STACK: 00 00 C6 05
C891  B0 0B     BCS $C89E                       A:FF X:00 Y:00 P:EC SP:FB STACK: 00 00 C6 05
C893  10 09     BPL $C89E                       A:FF X:00 Y:00 P:EC SP:FB STACK: 00 00 C6 05
C895  C9 FF     CMP #$FF                        A:FF X:00 Y:00 P:EC SP:FB STACK: 00 00 C6 05
C897  D0 05     BNE $C89E                       A:FF X:00 Y:00 P:6F SP:FB STACK: 00 00 C6 05
C899  50 03     BVC $C89E                       A:FF X:00 Y:00 P:6F SP:FB STACK: 00 00 C6 05
C89B  4C A2 C8  JMP $C8A2                       A:FF X:00 Y:00 P:6F SP:FB STACK: 00 00 C6 05
C8A2  EA        NOP                             A:FF X:00 Y:00 P:6F SP:FB STACK: 00 00 C6 05
C8A3  38        SEC                             A:FF X:00 Y:00 P:6F SP:FB STACK: 00 00 C6 05
C8A4  B8        CLV                             A:FF X:00 Y:00 P:6F SP:FB STACK: 00 00 C6 05
C8A5  A9 00     LDA #$00                        A:FF X:00 Y:00 P:2F SP:FB STACK: 00 00 C6 05
C8A7  09 00     ORA #$00                        A:00 X:00 Y:00 P:2F SP:FB STACK: 00 00 C6 05
C8A9  D0 09     BNE $C8B4                       A:00 X:00 Y:00 P:2F SP:FB STACK: 00 00 C6 05
C8AB  70 07     BVS $C8B4                       A:00 X:00 Y:00 P:2F SP:FB STACK: 00 00 C6 05
C8AD  90 05     BCC $C8B4                       A:00 X:00 Y:00 P:2F SP:FB STACK: 00 00 C6 05
C8AF  30 03     BMI $C8B4                       A:00 X:00 Y:00 P:2F SP:FB STACK: 00 00 C6 05
C8B1  4C B8 C8  JMP $C8B8                       A:00 X:00 Y:00 P:2F SP:FB STACK: 00 00 C6 05
C8B8  EA        NOP                             A:00 X:00 Y:00 P:2F SP:FB STACK: 00 00 C6 05
C8B9  18        CLC                             A:00 X:00 Y:00 P:2F SP:FB STACK: 00 00 C6 05
C8BA  24 01     BIT $01 = FF                    A:00 X:00 Y:00 P:2E SP:FB STACK: 00 00 C6 05
C8BC  A9 55     LDA #$55                        A:00 X:00 Y:00 P:EE SP:FB STACK: 00 00 C6 05
C8BE  29 AA     AND #$AA                        A:55 X:00 Y:00 P:6C SP:FB STACK: 00 00 C6 05
C8C0  D0 09     BNE $C8CB                       A:00 X:00 Y:00 P:6E SP:FB STACK: 00 00 C6 05
C8C2  50 07     BVC $C8CB                       A:00 X:00 Y:00 P:6E SP:FB STACK: 00 00 C6 05
C8C4  B0 05     BCS $C8CB                       A:00 X:00 Y:00 P:6E SP:FB STACK: 00 00 C6 05
C8C6  30 03     BMI $C8CB                       A:00 X:00 Y:00 P:6E SP:FB STACK: 00 00 C6 05
C8C8  4C CF C8  JMP $C8CF                       A:00 X:00 Y:00 P:6E SP:FB STACK: 00 00 C6 05
C8CF  EA        NOP                             A:00 X:00 Y:00 P:6E SP:FB STACK: 00 00 C6 05
C8D0  38        SEC                             A:00 X:00 Y:00 P:6E SP:FB STACK: 00 00 C6 05
C8D1  B8        CLV                             A:00 X:00 Y:00 P:6F SP:FB STACK: 00 00 C6 05
C8D2  A9 F8     LDA #$F8                        A:00 X:00 Y:00 P:2F SP:FB STACK: 00 00 C6 05
C8D4  29 EF     AND #$EF                        A:F8 X:00 Y:00 P:AD SP:FB STACK: 00 00 C6 05
C8D6  90 0B     BCC $C8E3                       A:E8 X:00 Y:00 P:AD SP:FB STACK: 00 00 C6 05
C8D8  10 09     BPL $C8E3                       A:E8 X:00 Y:00 P:AD SP:FB STACK: 00 00 C6 05
C8DA  C9 E8     CMP #$E8                        A:E8 X:00 Y:00 P:AD SP:FB STACK: 00 00 C6 05
C8DC  D0 05     BNE $C8E3                       A:E8 X:00 Y:00 P:2F SP:FB STACK: 00 00 C6 05
C8DE  70 03     BVS $C8E3                       A:E8 X:00 Y:00 P:2F SP:FB STACK: 00 00 C6 05
C8E0  4C E7 C8  JMP $C8E7                       A:E8 X:00 Y:00 P:2F SP:FB STACK: 00 00 C6 05
C8E7  EA        NOP                             A:E8 X:00 Y:00 P:2F SP:FB STACK: 00 00 C6 05
C8E8  18        CLC                             A:E8 X:00 Y:00 P:2F SP:FB STACK: 00 00 C6 05
C8E9  24 01     BIT $01 = FF                    A:E8 X:00 Y:00 P:2E SP:FB STACK: 00 00 C6 05
C8EB  A9 5F     LDA #$5F                        A:E8 X:00 Y:00 P:EC SP:FB STACK: 00 00 C6 05
C8ED  49 AA     EOR #$AA                        A:5F X:00 Y:00 P:6C SP:FB STACK: 00 00 C6 05
C8EF  B0 0B     BCS $C8FC                       A:F5 X:00 Y:00 P:EC SP:FB STACK: 00 00 C6 05
C8F1  10 09     BPL $C8FC                       A:F5 X:00 Y:00 P:EC SP:FB STACK: 00 00 C6 05
C8F3  C9 F5     CMP #$F5                        A:F5 X:00 Y:00 P:EC SP:FB STACK: 00 00 C6 05
C8F5  D0 05     BNE $C8FC                       A:F5 X:00 Y:00 P:6F SP:FB STACK: 00 00 C6 05
C8F7  50 03     BVC $C8FC                       A:F5 X:00 Y:00 P:6F SP:FB STACK: 00 00 C6 05
C8F9  4C 00 C9  JMP $C900                       A:F5 X:00 Y:00 P:6F SP:FB STACK: 00 00 C6 05
C900  EA        NOP                             A:F5 X:00 Y:00 P:6F SP:FB STACK: 00 00 C6 05
C901  38        SEC                             A:F5 X:00 Y:00 P:6F SP:FB STACK: 00 00 C6 05
C902  B8        CLV                             A:F5 X:00 Y:00 P:6F SP:FB STACK: 00 00 C6 05
C903  A9 70     LDA #$70                        A:F5 X:00 Y:00 P:2F SP:FB STACK: 00 00 C6 05
C905  49 70     EOR #$70                        A:70 X:00 Y:00 P:2D SP:FB STACK: 00 00 C6 05
C907  D0 09     BNE $C912                       A:00 X:00 Y:00 P:2F SP:FB STACK: 00 00 C6 05
C909  70 07     BVS $C912                       A:00 X:00 Y:00 P:2F SP:FB STACK: 00 00 C6 05
C90B  90 05     BCC $C912                       A:00 X:00 Y:00 P:2F SP:FB STACK: 00 00 C6 05
C90D  30 03     BMI $C912                       A:00 X:00 Y:00 P:2F SP:FB STACK: 00 00 C6 05
C90F  4C 16 C9  JMP $C916                       A:00 X:00 Y:00 P:2F SP:FB STACK: 00 00 C6 05
C916  EA        NOP                             A:00 X:00 Y:00 P:2F SP:FB STACK: 00 00 C6 05
C917  18        CLC                             A:00 X:00 Y:00 P:2F SP:FB STACK: 00 00 C6 05
C918  24 01     BIT $01 = FF                    A:00 X:00 Y:00 P:2E SP:FB STACK: 00 00 C6 05
C91A  A9 00     LDA #$00                        A:00 X:00 Y:00 P:EE SP:FB STACK: 00 00 C6 05
C91C  69 69     ADC #$69                        A:00 X:00 Y:00 P:6E SP:FB STACK: 00 00 C6 05
C91E  30 0B     BMI $C92B                       A:69 X:00 Y:00 P:2C SP:FB STACK: 00 00 C6 05
C920  B0 09     BCS $C92B                       A:69 X:00 Y:00 P:2C SP:FB STACK: 00 00 C6 05
C922  C9 69     CMP #$69                        A:69 X:00 Y:00 P:2C SP:FB STACK: 00 00 C6 05
C924  D0 05     BNE $C92B                       A:69 X:00 Y:00 P:2F SP:FB STACK: 00 00 C6 05
C926  70 03     BVS $C92B                       A:69 X:00 Y:00 P:2F SP:FB STACK: 00 00 C6 05
C928  4C 2F C9  JMP $C92F                       A:69 X:00 Y:00 P:2F SP:FB STACK: 00 00 C6 05
C92F  EA        NOP                             A:69 X:00 Y:00 P:2F SP:FB STACK: 00 00 C6 05
C930  38        SEC                             A:69 X:00 Y:00 P:2F SP:FB STACK: 00 00 C6 05
C931  F8        SED                             A:69 X:00 Y:00 P:2F SP:FB STACK: 00 00 C6 05
C932  24 01     BIT $01 = FF                    A:69 X:00 Y:00 P:2F SP:FB STACK: 00 00 C6 05
C934  A9 01     LDA #$01                        A:69 X:00 Y:00 P:ED SP:FB STACK: 00 00 C6 05
C936  69 69     ADC #$69                        A:01 X:00 Y:00 P:6D SP:FB STACK: 00 00 C6 05
C938  30 0B     BMI $C945                       A:6B X:00 Y:00 P:2C SP:FB STACK: 00 00 C6 05
C93A  B0 09     BCS $C945                       A:6B X:00 Y:00 P:2C SP:FB STACK: 00 00 C6 05
C93C  C9 6B     CMP #$6B                        A:6B X:00 Y:00 P:2C SP:FB STACK: 00 00 C6 05
C93E  D0 05     BNE $C945                       A:6B X:00 Y:00 P:2F SP:FB STACK: 00 00 C6 05
C940  70 03     BVS $C945                       A:6B X:00 Y:00 P:2F SP:FB STACK: 00 00 C6 05
C942  4C 49 C9  JMP $C949                       A:6B X:00 Y:00 P:2F SP:FB STACK: 00 00 C6 05
C949  EA        NOP                             A:6B X:00 Y:00 P:2F SP:FB STACK: 00 00 C6 05
C94A  D8        CLD                             A:6B X:00 Y:00 P:2F SP:FB STACK: 00 00 C6 05
C94B  38        SEC                             A:6B X:00 Y:00 P:27 SP:FB STACK: 00 00 C6 05
C94C  B8        CLV                             A:6B X:00 Y:00 P:27 SP:FB STACK: 00 00 C6 05
C94D  A9 7F     LDA #$7F                        A:6B X:00 Y:00 P:27 SP:FB STACK: 00 00 C6 05
C94F  69 7F     ADC #$7F                        A:7F X:00 Y:00 P:25 SP:FB STACK: 00 00 C6 05
C951  10 0B     BPL $C95E                       A:FF X:00 Y:00 P:E4 SP:FB STACK: 00 00 C6 05
C953  B0 09     BCS $C95E                       A:FF X:00 Y:00 P:E4 SP:FB STACK: 00 00 C6 05
C955  C9 FF     CMP #$FF                        A:FF X:00 Y:00 P:E4 SP:FB STACK: 00 00 C6 05
C957  D0 05     BNE $C95E                       A:FF X:00 Y:00 P:67 SP:FB STACK: 00 00 C6 05
C959  50 03     BVC $C95E                       A:FF X:00 Y:00 P:67 SP:FB STACK: 00 00 C6 05
C95B  4C 62 C9  JMP $C962                       A:FF X:00 Y:00 P:67 SP:FB STACK: 00 00 C6 05
C962  EA        NOP                             A:FF X:00 Y:00 P:67 SP:FB STACK: 00 00 C6 05
C963  18        CLC                             A:FF X:00 Y:00 P:67 SP:FB STACK: 00 00 C6 05
C964  24 01     BIT $01 = FF                    A:FF X:00 Y:00 P:66 SP:FB STACK: 00 00 C6 05
C966  A9 7F     LDA #$7F                        A:FF X:00 Y:00 P:E4 SP:FB STACK: 00 00 C6 05
C968  69 80     ADC #$80                        A:7F X:00 Y:00 P:64 SP:FB STACK: 00 00 C6 05
C96A  10 0B     BPL $C977                       A:FF X:00 Y:00 P:A4 SP:FB STACK: 00 00 C6 05
C96C  B0 09     BCS $C977                       A:FF X:00 Y:00 P:A4 SP:FB STACK: 00 00 C6 05
C96E  C9 FF     CMP #$FF                        A:FF X:00 Y:00 P:A4 SP:FB STACK: 00 00 C6 05
C970  D0 05     BNE $C977                       A:FF X:00 Y:00 P:27 SP:FB STACK: 00 00 C6 05
C972  70 03     BVS $C977                       A:FF X:00 Y:00 P:27 SP:FB STACK: 00 00 C6 05
C974  4C 7B C9  JMP $C97B                       A:FF X:00 Y:00 P:27 SP:FB STACK: 00 00 C6 05
C97B  EA        NOP                             A:FF X:00 Y:00 P:27 SP:FB STACK: 00 00 C6 05
C97C  38        SEC                             A:FF X:00 Y:00 P:27 SP:FB STACK: 00 00 C6 05
C97D  B8        CLV                             A:FF X:00 Y:00 P:27 SP:FB STACK: 00 00 C6 05
C97E  A9 7F     LDA #$7F                        A:FF X:00 Y:00 P:27 SP:FB STACK: 00 00 C6 05
C980  69 80     ADC #$80                        A:7F X:00 Y:00 P:25 SP:FB STACK: 00 00 C6 05
C982  D0 09     BNE $C98D                       A:00 X:00 Y:00 P:27 SP:FB STACK: 00 00 C6 05
C984  30 07     BMI $C98D                       A:00 X:00 Y:00 P:27 SP:FB STACK: 00 00 C6 05
C986  70 05     BVS $C98D                       A:00 X:00 Y:00 P:27 SP:FB STACK: 00 00 C6 05
C988  90 03     BCC $C98D                       A:00 X:00 Y:00 P:27 SP:FB STACK: 00 00 C6 05
C98A  4C 91 C9  JMP $C991                       A:00 X:00 Y:00 P:27 SP:FB STACK: 00 00 C6 05
C991  EA        NOP                             A:00 X:00 Y:00 P:27 SP:FB STACK: 00 00 C6 05
C992  38        SEC                             A:00 X:00 Y:00 P:27 SP:FB STACK: 00 00 C6 05
C993  B8        CLV                             A:00 X:00 Y:00 P:27 SP:FB STACK: 00 00 C6 05
C994  A9 9F     LDA #$9F                        A:00 X:00 Y:00 P:27 SP:FB STACK: 00 00 C6 05
C996  F0 09     BEQ $C9A1                       A:9F X:00 Y:00 P:A5 SP:FB STACK: 00 00 C6 05
C998  10 07     BPL $C9A1                       A:9F X:00 Y:00 P:A5 SP:FB STACK: 00 00 C6 05
C99A  70 05     BVS $C9A1                       A:9F X:00 Y:00 P:A5 SP:FB STACK: 00 00 C6 05
C99C  90 03     BCC $C9A1                       A:9F X:00 Y:00 P:A5 SP:FB STACK: 00 00 C6 05
C99E  4C A5 C9  JMP $C9A5                       A:9F X:00 Y:00 P:A5 SP:FB STACK: 00 00 C6 05
C9A5  EA        NOP                             A:9F X:00 Y:00 P:A5 SP:FB STACK: 00 00 C6 05
C9A6  18        CLC                             A:9F X:00 Y:00 P:A5 SP:FB STACK: 00 00 C6 05
C9A7  24 01     BIT $01 = FF                    A:9F X:00 Y:00 P:A4 SP:FB STACK: 00 00 C6 05
C9A9  A9 00     LDA #$00                        A:9F X:00 Y:00 P:E4 SP:FB STACK: 00 00 C6 05
C9AB  D0 09     BNE $C9B6                       A:00 X:00 Y:00 P:66 SP:FB STACK: 00 00 C6 05
C9AD  30 07     BMI $C9B6                       A:00 X:00 Y:00 P:66 SP:FB STACK: 00 00 C6 05
C9AF  50 05     BVC $C9B6                       A:00 X:00 Y:00 P:66 SP:FB STACK: 00 00 C6 05
C9B1  B0 03     BCS $C9B6                       A:00 X:00 Y:00 P:66 SP:FB STACK: 00 00 C6 05
C9B3  4C BA C9  JMP $C9BA                       A:00 X:00 Y:00 P:66 SP:FB STACK: 00 00 C6 05
C9BA  EA        NOP                             A:00 X:00 Y:00 P:66 SP:FB STACK: 00 00 C6 05
C9BB  24 01     BIT $01 = FF                    A:00 X:00 Y:00 P:66 SP:FB STACK: 00 00 C6 05
C9BD  A9 40     LDA #$40                        A:00 X:00 Y:00 P:E6 SP:FB STACK: 00 00 C6 05
C9BF  C9 40     CMP #$40                        A:40 X:00 Y:00 P:64 SP:FB STACK: 00 00 C6 05
C9C1  30 09     BMI $C9CC                       A:40 X:00 Y:00 P:67 SP:FB STACK: 00 00 C6 05
C9C3  90 07     BCC $C9CC                       A:40 X:00 Y:00 P:67 SP:FB STACK: 00 00 C6 05
C9C5  D0 05     BNE $C9CC                       A:40 X:00 Y:00 P:67 SP:FB STACK: 00 00 C6 05
C9C7  50 03     BVC $C9CC                       A:40 X:00 Y:00 P:67 SP:FB STACK: 00 00 C6 05
C9C9  4C D0 C9  JMP $C9D0                       A:40 X:00 Y:00 P:67 SP:FB STACK: 00 00 C6 05
C9D0  EA        NOP                             A:40 X:00 Y:00 P:67 SP:FB STACK: 00 00 C6 05
C9D1  B8        CLV                             A:40 X:00 Y:00 P:67 SP:FB STACK: 00 00 C6 05
C9D2  C9 3F     CMP #$3F                        A:40 X:00 Y:00 P:27 SP:FB STACK: 00 00 C6 05
C9D4  F0 09     BEQ $C9DF                       A:40 X:00 Y:00 P:25 SP:FB STACK: 00 00 C6 05
C9D6  30 07     BMI $C9DF                       A:40 X:00 Y:00 P:25 SP:FB STACK: 00 00 C6 05
C9D8  90 05     BCC $C9DF                       A:40 X:00 Y:00 P:25 SP:FB STACK: 00 00 C6 05
C9DA  70 03     BVS $C9DF                       A:40 X:00 Y:00 P:25 SP:FB STACK: 00 00 C6 05
C9DC  4C E3 C9  JMP $C9E3                       A:40 X:00 Y:00 P:25 SP:FB STACK: 00 00 C6 05
C9E3  EA        NOP                             A:40 X:00 Y:00 P:25 SP:FB STACK: 00 00 C6 05
C9E4  C9 41     CMP #$41                        A:40 X:00 Y:00 P:25 SP:FB STACK: 00 00 C6 05
C9E6  F0 07     BEQ $C9EF                       A:40 X:00 Y:00 P:A4 SP:FB STACK: 00 00 C6 05
C9E8  10 05     BPL $C9EF                       A:40 X:00 Y:00 P:A4 SP:FB STACK: 00 00 C6 05
C9EA  10 03     BPL $C9EF                       A:40 X:00 Y:00 P:A4 SP:FB STACK: 00 00 C6 05
C9EC  4C F3 C9  JMP $C9F3                       A:40 X:00 Y:00 P:A4 SP:FB STACK: 00 00 C6 05
C9F3  EA        NOP                             A:40 X:00 Y:00 P:A4 SP:FB STACK: 00 00 C6 05
C9F4  A9 80     LDA #$80                        A:40 X:00 Y:00 P:A4 SP:FB STACK: 00 00 C6 05
C9F6  C9 00     CMP #$00                        A:80 X:00 Y:00 P:A4 SP:FB STACK: 00 00 C6 05
C9F8  F0 07     BEQ $CA01                       A:80 X:00 Y:00 P:A5 SP:FB STACK: 00 00 C6 05
C9FA  10 05     BPL $CA01                       A:80 X:00 Y:00 P:A5 SP:FB STACK: 00 00 C6 05
C9FC  90 03     BCC $CA01                       A:80 X:00 Y:00 P:A5 SP:FB STACK: 00 00 C6 05
C9FE  4C 05 CA  JMP $CA05                       A:80 X:00 Y:00 P:A5 SP:FB STACK: 00 00 C6 05
CA05  EA        NOP                             A:80 X:00 Y:00 P:A5 SP:FB STACK: 00 00 C6 05
CA06  C9 80     CMP #$80                        A:80 X:00 Y:00 P:A5 SP:FB STACK: 00 00 C6 05
CA08  D0 07     BNE $CA11                       A:80 X:00 Y:00 P:27 SP:FB STACK: 00 00 C6 05
CA0A  30 05     BMI $CA11                       A:80 X:00 Y:00 P:27 SP:FB STACK: 00 00 C6 05
CA0C  90 03     BCC $CA11                       A:80 X:00 Y:00 P:27 SP:FB STACK: 00 00 C6 05
CA0E  4C 15 CA  JMP $CA15                       A:80 X:00 Y:00 P:27 SP:FB STACK: 00 00 C6 05
CA15  EA        NOP                             A:80 X:00 Y:00 P:27 SP:FB STACK: 00 00 C6 05
CA16  C9 81     CMP #$81                        A:80 X:00 Y:00 P:27 SP:FB STACK: 00 00 C6 05
CA18  B0 07     BCS $CA21                       A:80 X:00 Y:00 P:A4 SP:FB STACK: 00 00 C6 05
CA1A  F0 05     BEQ $CA21                       A:80 X:00 Y:00 P:A4 SP:FB STACK: 00 00 C6 05
CA1C  10 03     BPL $CA21                       A:80 X:00 Y:00 P:A4 SP:FB STACK: 00 00 C6 05
CA1E  4C 25 CA  JMP $CA25                       A:80 X:00 Y:00 P:A4 SP:FB STACK: 00 00 C6 05
CA25  EA        NOP                             A:80 X:00 Y:00 P:A4 SP:FB STACK: 00 00 C6 05
CA26  C9 7F     CMP #$7F                        A:80 X:00 Y:00 P:A4 SP:FB STACK: 00 00 C6 05
CA28  90 07     BCC $CA31                       A:80 X:00 Y:00 P:25 SP:FB STACK: 00 00 C6 05
CA2A  F0 05     BEQ $CA31                       A:80 X:00 Y:00 P:25 SP:FB STACK: 00 00 C6 05
CA2C  30 03     BMI $CA31                       A:80 X:00 Y:00 P:25 SP:FB STACK: 00 00 C6 05
CA2E  4C 35 CA  JMP $CA35                       A:80 X:00 Y:00 P:25 SP:FB STACK: 00 00 C6 05
CA35  EA        NOP                             A:80 X:00 Y:00 P:25 SP:FB STACK: 00 00 C6 05
CA36  24 01     BIT $01 = FF                    A:80 X:00 Y:00 P:25 SP:FB STACK: 00 00 C6 05
CA38  A0 40     LDY #$40                        A:80 X:00 Y:00 P:E5 SP:FB STACK: 00 00 C6 05
CA3A  C0 40     CPY #$40                        A:80 X:00 Y:40 P:65 SP:FB STACK: 00 00 C6 05
CA3C  D0 09     BNE $CA47                       A:80 X:00 Y:40 P:67 SP:FB STACK: 00 00 C6 05
CA3E  30 07     BMI $CA47                       A:80 X:00 Y:40 P:67 SP:FB STACK: 00 00 C6 05
CA40  90 05     BCC $CA47                       A:80 X:00 Y:40 P:67 SP:FB STACK: 00 00 C6 05
CA42  50 03     BVC $CA47                       A:80 X:00 Y:40 P:67 SP:FB STACK: 00 00 C6 05
CA44  4C 4B CA  JMP $CA4B                       A:80 X:00 Y:40 P:67 SP:FB STACK: 00 00 C6 05
CA4B  EA        NOP                             A:80 X:00 Y:40 P:67 SP:FB STACK: 00 00 C6 05
CA4C  B8        CLV                             A:80 X:00 Y:40 P:67 SP:FB STACK: 00 00 C6 05
CA4D  C0 3F     CPY #$3F                        A:80 X:00 Y:40 P:27 SP:FB STACK: 00 00 C6 05
CA4F  F0 09     BEQ $CA5A                       A:80 X:00 Y:40 P:25 SP:FB STACK: 00 00 C6 05
CA51  30 07     BMI $CA5A                       A:80 X:00 Y:40 P:25 SP:FB STACK: 00 00 C6 05
CA53  90 05     BCC $CA5A                       A:80 X:00 Y:40 P:25 SP:FB STACK: 00 00 C6 05
CA55  70 03     BVS $CA5A                       A:80 X:00 Y:40 P:25 SP:FB STACK: 00 00 C6 05
CA57  4C 5E CA  JMP $CA5E                       A:80 X:00 Y:40 P:25 SP:FB STACK: 00 00 C6 05
CA5E  EA        NOP                             A:80 X:00 Y:40 P:25 SP:FB STACK: 00 00 C6 05
CA5F  C0 41     CPY #$41                        A:80 X:00 Y:40 P:25 SP:FB STACK: 00 00 C6 05
CA61  F0 07     BEQ $CA6A                       A:80 X:00 Y:40 P:A4 SP:FB STACK: 00 00 C6 05
CA63  10 05     BPL $CA6A                       A:80 X:00 Y:40 P:A4 SP:FB STACK: 00 00 C6 05
CA65  10 03     BPL $CA6A                       A:80 X:00 Y:40 P:A4 SP:FB STACK: 00 00 C6 05
CA67  4C 6E CA  JMP $CA6E                       A:80 X:00 Y:40 P:A4 SP:FB STACK: 00 00 C6 05
CA6E  EA        NOP                             A:80 X:00 Y:40 P:A4 SP:FB STACK: 00 00 C6 05
CA6F  A0 80     LDY #$80                        A:80 X:00 Y:40 P:A4 SP:FB STACK: 00 00 C6 05
CA71  C0 00     CPY #$00                        A:80 X:00 Y:80 P:A4 SP:FB STACK: 00 00 C6 05
CA73  F0 07     BEQ $CA7C                       A:80 X:00 Y:80 P:A5 SP:FB STACK: 00 00 C6 05
CA75  10 05     BPL $CA7C                       A:80 X:00 Y:80 P:A5 SP:FB STACK: 00 00 C6 05
CA77  90 03     BCC $CA7C                       A:80 X:00 Y:80 P:A5 SP:FB STACK: 00 00 C6 05
CA79  4C 80 CA  JMP $CA80                       A:80 X:00 Y:80 P:A5 SP:FB STACK: 00 00 C6 05
CA80  EA        NOP                             A:80 X:00 Y:80 P:A5 SP:FB STACK: 00 00 C6 05
CA81  C0 80     CPY #$80                        A:80 X:00 Y:80 P:A5 SP:FB STACK: 00 00 C6 05
CA83  D0 07     BNE $CA8C                       A:80 X:00 Y:80 P:27 SP:FB STACK: 00 00 C6 05
CA85  30 05     BMI $CA8C                       A:80 X:00 Y:80 P:27 SP:FB STACK: 00 00 C6 05
CA87  90 03     BCC $CA8C                       A:80 X:00 Y:80 P:27 SP:FB STACK: 00 00 C6 05
CA89  4C 90 CA  JMP $CA90                       A:80 X:00 Y:80 P:27 SP:FB STACK: 00 00 C6 05
CA90  EA        NOP                             A:80 X:00 Y:80 P:27 SP:FB STACK: 00 00 C6 05
CA91  C0 81     CPY #$81                        A:80 X:00 Y:80 P:27 SP:FB STACK: 00 00 C6 05
CA93  B0 07     BCS $CA9C                       A:80 X:00 Y:80 P:A4 SP:FB STACK: 00 00 C6 05
CA95  F0 05     BEQ $CA9C                       A:80 X:00 Y:80 P:A4 SP:FB STACK: 00 00 C6 05
CA97  10 03     BPL $CA9C                       A:80 X:00 Y:80 P:A4 SP:FB STACK: 00 00 C6 05
CA99  4C A0 CA  JMP $CAA0                       A:80 X:00 Y:80 P:A4 SP:FB STACK: 00 00 C6 05
CAA0  EA        NOP                             A:80 X:00 Y:80 P:A4 SP:FB STACK: 00 00 C6 05
CAA1  C0 7F     CPY #$7F                        A:80 X:00 Y:80 P:A4 SP:FB STACK: 00 00 C6 05
CAA3  90 07     BCC $CAAC                       A:80 X:00 Y:80 P:25 SP:FB STACK: 00 00 C6 05
CAA5  F0 05     BEQ $CAAC                       A:80 X:00 Y:80 P:25 SP:FB STACK: 00 00 C6 05
CAA7  30 03     BMI $CAAC                       A:80 X:00 Y:80 P:25 SP:FB STACK: 00 00 C6 05
CAA9  4C B0 CA  JMP $CAB0                       A:80 X:00 Y:80 P:25 SP:FB STACK: 00 00 C6 05
CAB0  EA        NOP                             A:80 X:00 Y:80 P:25 SP:FB STACK: 00 00 C6 05
CAB1  24 01     BIT $01 = FF                    A:80 X:00 Y:80 P:25 SP:FB STACK: 00 00 C6 05
CAB3  A2 40     LDX #$40                        A:80 X:00 Y:80 P:E5 SP:FB STACK: 00 00 C6 05
CAB5  E0 40     CPX #$40                        A:80 X:40 Y:80 P:65 SP:FB STACK: 00 00 C6 05
CAB7  D0 09     BNE $CAC2                       A:80 X:40 Y:80 P:67 SP:FB STACK: 00 00 C6 05
CAB9  30 07     BMI $CAC2                       A:80 X:40 Y:80 P:67 SP:FB STACK: 00 00 C6 05
CABB  90 05     BCC $CAC2                       A:80 X:40 Y:80 P:67 SP:FB STACK: 00 00 C6 05
CABD  50 03     BVC $CAC2                       A:80 X:40 Y:80 P:67 SP:FB STACK: 00 00 C6 05
CABF  4C C6 CA  JMP $CAC6                       A:80 X:40 Y:80 P:67 SP:FB STACK: 00 00 C6 05
CAC6  EA        NOP                             A:80 X:40 Y:80 P:67 SP:FB STACK: 00 00 C6 05
CAC7  B8        CLV                             A:80 X:40 Y:80 P:67 SP:FB STACK: 00 00 C6 05
CAC8  E0 3F     CPX #$3F                        A:80 X:40 Y:80 P:27 SP:FB STACK: 00 00 C6 05
CACA  F0 09     BEQ $CAD5                       A:80 X:40 Y:80 P:25 SP:FB STACK: 00 00 C6 05
CACC  30 07     BMI $CAD5                       A:80 X:40 Y:80 P:25 SP:FB STACK: 00 00 C6 05
CACE  90 05     BCC $CAD5                       A:80 X:40 Y:80 P:25 SP:FB STACK: 00 00 C6 05
CAD0  70 03     BVS $CAD5                       A:80 X:40 Y:80 P:25 SP:FB STACK: 00 00 C6 05
CAD2  4C D9 CA  JMP $CAD9                       A:80 X:40 Y:80 P:25 SP:FB STACK: 00 00 C6 05
CAD9  EA        NOP                             A:80 X:40 Y:80 P:25 SP:FB STACK: 00 00 C6 05
CADA  E0 41     CPX #$41                        A:80 X:40 Y:80 P:25 SP:FB STACK: 00 00 C6 05
CADC  F0 07     BEQ $CAE5                       A:80 X:40 Y:80 P:A4 SP:FB STACK: 00 00 C6 05
CADE  10 05     BPL $CAE5                       A:80 X:40 Y:80 P:A4 SP:FB STACK: 00 00 C6 05
CAE0  10 03     BPL $CAE5                       A:80 X:40 Y:80 P:A4 SP:FB STACK: 00 00 C6 05
CAE2  4C E9 CA  JMP $CAE9                       A:80 X:40 Y:80 P:A4 SP:FB STACK: 00 00 C6 05
CAE9  EA        NOP                             A:80 X:40 Y:80 P:A4 SP:FB STACK: 00 00 C6 05
CAEA  A2 80     LDX #$80                        A:80 X:40 Y:80 P:A4 SP:FB STACK: 00 00 C6 05
CAEC  E0 00     CPX #$00                        A:80 X:80 Y:80 P:A4 SP:FB STACK: 00 00 C6 05
CAEE  F0 07     BEQ $CAF7                       A:80 X:80 Y:80 P:A5 SP:FB STACK: 00 00 C6 05
CAF0  10 05     BPL $CAF7                       A:80 X:80 Y:80 P:A5 SP:FB STACK: 00 00 C6 05
CAF2  90 03     BCC $CAF7                       A:80 X:80 Y:80 P:A5 SP:FB STACK: 00 00 C6 05
CAF4  4C FB CA  JMP $CAFB                       A:80 X:80 Y:80 P:A5 SP:FB STACK: 00 00 C6 05
CAFB  EA        NOP                             A:80 X:80 Y:80 P:A5 SP:FB STACK: 00 00 C6 05
CAFC  E0 80     CPX #$80                        A:80 X:80 Y:80 P:A5 SP:FB STACK: 00 00 C6 05
CAFE  D0 07     BNE $CB07                       A:80 X:80 Y:80 P:27 SP:FB STACK: 00 00 C6 05
CB00  30 05     BMI $CB07                       A:80 X:80 Y:80 P:27 SP:FB STACK: 00 00 C6 05
CB02  90 03     BCC $CB07                       A:80 X:80 Y:80 P:27 SP:FB STACK: 00 00 C6 05
CB04  4C 0B CB  JMP $CB0B                       A:80 X:80 Y:80 P:27 SP:FB STACK: 00 00 C6 05
CB0B  EA        NOP                             A:80 X:80 Y:80 P:27 SP:FB STACK: 00 00 C6 05
CB0C  E0 81     CPX #$81                        A:80 X:80 Y:80 P:27 SP:FB STACK: 00 00 C6 05
CB0E  B0 07     BCS $CB17                       A:80 X:80 Y:80 P:A4 SP:FB STACK: 00 00 C6 05
CB10  F0 05     BEQ $CB17                       A:80 X:80 Y:80 P:A4 SP:FB STACK: 00 00 C6 05
CB12  10 03     BPL $CB17                       A:80 X:80 Y:80 P:A4 SP:FB STACK: 00 00 C6 05
CB14  4C 1B CB  JMP $CB1B                       A:80 X:80 Y:80 P:A4 SP:FB STACK: 00 00 C6 05
CB1B  EA        NOP                             A:80 X:80 Y:80 P:A4 SP:FB STACK: 00 00 C6 05
CB1C  E0 7F     CPX #$7F                        A:80 X:80 Y:80 P:A4 SP:FB STACK: 00 00 C6 05
CB1E  90 07     BCC $CB27                       A:80 X:80 Y:80 P:25 SP:FB STACK: 00 00 C6 05
CB20  F0 05     BEQ $CB27                       A:80 X:80 Y:80 P:25 SP:FB STACK: 00 00 C6 05
CB22  30 03     BMI $CB27                       A:80 X:80 Y:80 P:25 SP:FB STACK: 00 00 C6 05
CB24  4C 2B CB  JMP $CB2B                       A:80 X:80 Y:80 P:25 SP:FB STACK: 00 00 C6 05
CB2B  EA        NOP                             A:80 X:80 Y:80 P:25 SP:FB STACK: 00 00 C6 05
CB2C  38        SEC                             A:80 X:80 Y:80 P:25 SP:FB STACK: 00 00 C6 05
CB2D  B8        CLV                             A:80 X:80 Y:80 P:25 SP:FB STACK: 00 00 C6 05
CB2E  A2 9F     LDX #$9F                        A:80 X:80 Y:80 P:25 SP:FB STACK: 00 00 C6 05
CB30  F0 09     BEQ $CB3B                       A:80 X:9F Y:80 P:A5 SP:FB STACK: 00 00 C6 05
CB32  10 07     BPL $CB3B                       A:80 X:9F Y:80 P:A5 SP:FB STACK: 00 00 C6 05
CB34  70 05     BVS $CB3B                       A:80 X:9F Y:80 P:A5 SP:FB STACK: 00 00 C6 05
CB36  90 03     BCC $CB3B                       A:80 X:9F Y:80 P:A5 SP:FB STACK: 00 00 C6 05
CB38  4C 3F CB  JMP $CB3F                       A:80 X:9F Y:80 P:A5 SP:FB STACK: 00 00 C6 05
CB3F  EA        NOP                             A:80 X:9F Y:80 P:A5 SP:FB STACK: 00 00 C6 05
CB40  18        CLC                             A:80 X:9F Y:80 P:A5 SP:FB STACK: 00 00 C6 05
CB41  24 01     BIT $01 = FF                    A:80 X:9F Y:80 P:A4 SP:FB STACK: 00 00 C6 05
CB43  A2 00     LDX #$00                        A:80 X:9F Y:80 P:E4 SP:FB STACK: 00 00 C6 05
CB45  D0 09     BNE $CB50                       A:80 X:00 Y:80 P:66 SP:FB STACK: 00 00 C6 05
CB47  30 07     BMI $CB50                       A:80 X:00 Y:80 P:66 SP:FB STACK: 00 00 C6 05
CB49  50 05     BVC $CB50                       A:80 X:00 Y:80 P:66 SP:FB STACK: 00 00 C6 05
CB4B  B0 03     BCS $CB50                       A:80 X:00 Y:80 P:66 SP:FB STACK: 00 00 C6 05
CB4D  4C 54 CB  JMP $CB54                       A:80 X:00 Y:80 P:66 SP:FB STACK: 00 00 C6 05
CB54  EA        NOP                             A:80 X:00 Y:80 P:66 SP:FB STACK: 00 00 C6 05
CB55  38        SEC                             A:80 X:00 Y:80 P:66 SP:FB STACK: 00 00 C6 05
CB56  B8        CLV                             A:80 X:00 Y:80 P:67 SP:FB STACK: 00 00 C6 05
CB57  A0 9F     LDY #$9F                        A:80 X:00 Y:80 P:27 SP:FB STACK: 00 00 C6 05
CB59  F0 09     BEQ $CB64                       A:80 X:00 Y:9F P:A5 SP:FB STACK: 00 00 C6 05
CB5B  10 07     BPL $CB64                       A:80 X:00 Y:9F P:A5 SP:FB STACK: 00 00 C6 05
CB5D  70 05     BVS $CB64                       A:80 X:00 Y:9F P:A5 SP:FB STACK: 00 00 C6 05
CB5F  90 03     BCC $CB64                       A:80 X:00 Y:9F P:A5 SP:FB STACK: 00 00 C6 05
CB61  4C 68 CB  JMP $CB68                       A:80 X:00 Y:9F P:A5 SP:FB STACK: 00 00 C6 05
CB68  EA        NOP                             A:80 X:00 Y:9F P:A5 SP:FB STACK: 00 00 C6 05
CB69  18        CLC                             A:80 X:00 Y:9F P:A5 SP:FB STACK: 00 00 C6 05
CB6A  24 01     BIT $01 = FF                    A:80 X:00 Y:9F P:A4 SP:FB STACK: 00 00 C6 05
CB6C  A0 00     LDY #$00                        A:80 X:00 Y:9F P:E4 SP:FB STACK: 00 00 C6 05
CB6E  D0 09     BNE $CB79                       A:80 X:00 Y:00 P:66 SP:FB STACK: 00 00 C6 05
CB70  30 07     BMI $CB79                       A:80 X:00 Y:00 P:66 SP:FB STACK: 00 00 C6 05
CB72  50 05     BVC $CB79                       A:80 X:00 Y:00 P:66 SP:FB STACK: 00 00 C6 05
CB74  B0 03     BCS $CB79                       A:80 X:00 Y:00 P:66 SP:FB STACK: 00 00 C6 05
CB76  4C 7D CB  JMP $CB7D                       A:80 X:00 Y:00 P:66 SP:FB STACK: 00 00 C6 05
CB7D  EA        NOP                             A:80 X:00 Y:00 P:66 SP:FB STACK: 00 00 C6 05
CB7E  A9 55     LDA #$55                        A:80 X:00 Y:00 P:66 SP:FB STACK: 00 00 C6 05
CB80  A2 AA     LDX #$AA                        A:55 X:00 Y:00 P:64 SP:FB STACK: 00 00 C6 05
CB82  A0 33     LDY #$33                        A:55 X:AA Y:00 P:E4 SP:FB STACK: 00 00 C6 05
CB84  C9 55     CMP #$55                        A:55 X:AA Y:33 P:64 SP:FB STACK: 00 00 C6 05
CB86  D0 23     BNE $CBAB                       A:55 X:AA Y:33 P:67 SP:FB STACK: 00 00 C6 05
CB88  E0 AA     CPX #$AA                        A:55 X:AA Y:33 P:67 SP:FB STACK: 00 00 C6 05
CB8A  D0 1F     BNE $CBAB                       A:55 X:AA Y:33 P:67 SP:FB STACK: 00 00 C6 05
CB8C  C0 33     CPY #$33                        A:55 X:AA Y:33 P:67 SP:FB STACK: 00 00 C6 05
CB8E  D0 1B     BNE $CBAB                       A:55 X:AA Y:33 P:67 SP:FB STACK: 00 00 C6 05
CB90  C9 55     CMP #$55                        A:55 X:AA Y:33 P:67 SP:FB STACK: 00 00 C6 05
CB92  D0 17     BNE $CBAB                       A:55 X:AA Y:33 P:67 SP:FB STACK: 00 00 C6 05
CB94  E0 AA     CPX #$AA                        A:55 X:AA Y:33 P:67 SP:FB STACK: 00 00 C6 05
CB96  D0 13     BNE $CBAB                       A:55 X:AA Y:33 P:67 SP:FB STACK: 00 00 C6 05
CB98  C0 33     CPY #$33                        A:55 X:AA Y:33 P:67 SP:FB STACK: 00 00 C6 05
CB9A  D0 0F     BNE $CBAB                       A:55 X:AA Y:33 P:67 SP:FB STACK: 00 00 C6 05
CB9C  C9 56     CMP #$56                        A:55 X:AA Y:33 P:67 SP:FB STACK: 00 00 C6 05
CB9E  F0 0B     BEQ $CBAB                       A:55 X:AA Y:33 P:E4 SP:FB STACK: 00 00 C6 05
CBA0  E0 AB     CPX #$AB                        A:55 X:AA Y:33 P:E4 SP:FB STACK: 00 00 C6 05
CBA2  F0 07     BEQ $CBAB                       A:55 X:AA Y:33 P:E4 SP:FB STACK: 00 00 C6 05
CBA4  C0 34     CPY #$34                        A:55 X:AA Y:33 P:E4 SP:FB STACK: 00 00 C6 05
CBA6  F0 03     BEQ $CBAB                       A:55 X:AA Y:33 P:E4 SP:FB STACK: 00 00 C6 05
CBA8  4C AF CB  JMP $CBAF                       A:55 X:AA Y:33 P:E4 SP:FB STACK: 00 00 C6 05
CBAF  A0 71     LDY #$71                        A:55 X:AA Y:33 P:E4 SP:FB STACK: 00 00 C6 05
CBB1  20 31 F9  JSR $F931                       A:55 X:AA Y:71 P:64 SP:FB STACK: 00 00 C6 05
F931  24 01     BIT $01 = FF                    A:55 X:AA Y:71 P:64 SP:F9 STACK: 00 00 C6 05 CB B3
F933  A9 40     LDA #$40                        A:55 X:AA Y:71 P:E4 SP:F9 STACK: 00 00 C6 05 CB B3
F935  38        SEC                             A:40 X:AA Y:71 P:64 SP:F9 STACK: 00 00 C6 05 CB B3
F936  60        RTS                             A:40 X:AA Y:71 P:65 SP:F9 STACK: 00 00 C6 05 CB B3
CBB4  E9 40     SBC #$40                        A:40 X:AA Y:71 P:65 SP:FB STACK: 00 00 C6 05
CBB6  20 37 F9  JSR $F937                       A:00 X:AA Y:71 P:27 SP:FB STACK: 00 00 C6 05
F937  30 0B     BMI $F944                       A:00 X:AA Y:71 P:27 SP:F9 STACK: 00 00 C6 05 CB B8
F939  90 09     BCC $F944                       A:00 X:AA Y:71 P:27 SP:F9 STACK: 00 00 C6 05 CB B8
F93B  D0 07     BNE $F944                       A:00 X:AA Y:71 P:27 SP:F9 STACK: 00 00 C6 05 CB B8
F93D  70 05     BVS $F944                       A:00 X:AA Y:71 P:27 SP:F9 STACK: 00 00 C6 05 CB B8
F93F  C9 00     CMP #$00                        A:00 X:AA Y:71 P:27 SP:F9 STACK: 00 00 C6 05 CB B8
F941  D0 01     BNE $F944                       A:00 X:AA Y:71 P:27 SP:F9 STACK: 00 00 C6 05 CB B8
F943  60        RTS                             A:00 X:AA Y:71 P:27 SP:F9 STACK: 00 00 C6 05 CB B8
CBB9  C8        INY                             A:00 X:AA Y:71 P:27 SP:FB STACK: 00 00 C6 05
CBBA  20 47 F9  JSR $F947                       A:00 X:AA Y:72 P:25 SP:FB STACK: 00 00 C6 05
F947  B8        CLV                             A:00 X:AA Y:72 P:25 SP:F9 STACK: 00 00 C6 05 CB BC
F948  38        SEC                             A:00 X:AA Y:72 P:25 SP:F9 STACK: 00 00 C6 05 CB BC
F949  A9 40     LDA #$40                        A:00 X:AA Y:72 P:25 SP:F9 STACK: 00 00 C6 05 CB BC
F94B  60        RTS                             A:40 X:AA Y:72 P:25 SP:F9 STACK: 00 00 C6 05 CB BC
CBBD  E9 3F     SBC #$3F                        A:40 X:AA Y:72 P:25 SP:FB STACK: 00 00 C6 05
CBBF  20 4C F9  JSR $F94C                       A:01 X:AA Y:72 P:25 SP:FB STACK: 00 00 C6 05
F94C  F0 0B     BEQ $F959                       A:01 X:AA Y:72 P:25 SP:F9 STACK: 00 00 C6 05 CB C1
F94E  30 09     BMI $F959                       A:01 X:AA Y:72 P:25 SP:F9 STACK: 00 00 C6 05 CB C1
F950  90 07     BCC $F959                       A:01 X:AA Y:72 P:25 SP:F9 STACK: 00 00 C6 05 CB C1
F952  70 05     BVS $F959                       A:01 X:AA Y:72 P:25 SP:F9 STACK: 00 00 C6 05 CB C1
F954  C9 01     CMP #$01                        A:01 X:AA Y:72 P:25 SP:F9 STACK: 00 00 C6 05 CB C1
F956  D0 01     BNE $F959                       A:01 X:AA Y:72 P:27 SP:F9 STACK: 00 00 C6 05 CB C1
F958  60        RTS                             A:01 X:AA Y:72 P:27 SP:F9 STACK: 00 00 C6 05 CB C1
CBC2  C8        INY                             A:01 X:AA Y:72 P:27 SP:FB STACK: 00 00 C6 05
CBC3  20 5C F9  JSR $F95C                       A:01 X:AA Y:73 P:25 SP:FB STACK: 00 00 C6 05
F95C  A9 40     LDA #$40                        A:01 X:AA Y:73 P:25 SP:F9 STACK: 00 00 C6 05 CB C5
F95E  38        SEC                             A:40 X:AA Y:73 P:25 SP:F9 STACK: 00 00 C6 05 CB C5
F95F  24 01     BIT $01 = FF                    A:40 X:AA Y:73 P:25 SP:F9 STACK: 00 00 C6 05 CB C5
F961  60        RTS                             A:40 X:AA Y:73 P:E5 SP:F9 STACK: 00 00 C6 05 CB C5
CBC6  E9 41     SBC #$41                        A:40 X:AA Y:73 P:E5 SP:FB STACK: 00 00 C6 05
CBC8  20 62 F9  JSR $F962                       A:FF X:AA Y:73 P:A4 SP:FB STACK: 00 00 C6 05
F962  B0 0B     BCS $F96F                       A:FF X:AA Y:73 P:A4 SP:F9 STACK: 00 00 C6 05 CB CA
F964  F0 09     BEQ $F96F                       A:FF X:AA Y:73 P:A4 SP:F9 STACK: 00 00 C6 05 CB CA
F966  10 07     BPL $F96F                       A:FF X:AA Y:73 P:A4 SP:F9 STACK: 00 00 C6 05 CB CA
F968  70 05     BVS $F96F                       A:FF X:AA Y:73 P:A4 SP:F9 STACK: 00 00 C6 05 CB CA
F96A  C9 FF     CMP #$FF                        A:FF X:AA Y:73 P:A4 SP:F9 STACK: 00 00 C6 05 CB CA
F96C  D0 01     BNE $F96F                       A:FF X:AA Y:73 P:27 SP:F9 STACK: 00 00 C6 05 CB CA
F96E  60        RTS                             A:FF X:AA Y:73 P:27 SP:F9 STACK: 00 00 C6 05 CB CA
CBCB  C8        INY                             A:FF X:AA Y:73 P:27 SP:FB STACK: 00 00 C6 05
CBCC  20 72 F9  JSR $F972                       A:FF X:AA Y:74 P:25 SP:FB STACK: 00 00 C6 05
F972  18        CLC                             A:FF X:AA Y:74 P:25 SP:F9 STACK: 00 00 C6 05 CB CE
F973  A9 80     LDA #$80                        A:FF X:AA Y:74 P:24 SP:F9 STACK: 00 00 C6 05 CB CE
F975  60        RTS                             A:80 X:AA Y:74 P:A4 SP:F9 STACK: 00 00 C6 05 CB CE
CBCF  E9 00     SBC #$00                        A:80 X:AA Y:74 P:A4 SP:FB STACK: 00 00 C6 05
CBD1  20 76 F9  JSR $F976                       A:7F X:AA Y:74 P:65 SP:FB STACK: 00 00 C6 05
F976  90 05     BCC $F97D                       A:7F X:AA Y:74 P:65 SP:F9 STACK: 00 00 C6 05 CB D3
F978  C9 7F     CMP #$7F                        A:7F X:AA Y:74 P:65 SP:F9 STACK: 00 00 C6 05 CB D3
F97A  D0 01     BNE $F97D                       A:7F X:AA Y:74 P:67 SP:F9 STACK: 00 00 C6 05 CB D3
F97C  60        RTS                             A:7F X:AA Y:74 P:67 SP:F9 STACK: 00 00 C6 05 CB D3
CBD4  C8        INY                             A:7F X:AA Y:74 P:67 SP:FB STACK: 00 00 C6 05
CBD5  20 80 F9  JSR $F980                       A:7F X:AA Y:75 P:65 SP:FB STACK: 00 00 C6 05
F980  38        SEC                             A:7F X:AA Y:75 P:65 SP:F9 STACK: 00 00 C6 05 CB D7
F981  A9 81     LDA #$81                        A:7F X:AA Y:75 P:65 SP:F9 STACK: 00 00 C6 05 CB D7
F983  60        RTS                             A:81 X:AA Y:75 P:E5 SP:F9 STACK: 00 00 C6 05 CB D7
CBD8  E9 7F     SBC #$7F                        A:81 X:AA Y:75 P:E5 SP:FB STACK: 00 00 C6 05
CBDA  20 84 F9  JSR $F984                       A:02 X:AA Y:75 P:65 SP:FB STACK: 00 00 C6 05
F984  50 07     BVC $F98D                       A:02 X:AA Y:75 P:65 SP:F9 STACK: 00 00 C6 05 CB DC
F986  90 05     BCC $F98D                       A:02 X:AA Y:75 P:65 SP:F9 STACK: 00 00 C6 05 CB DC
F988  C9 02     CMP #$02                        A:02 X:AA Y:75 P:65 SP:F9 STACK: 00 00 C6 05 CB DC
F98A  D0 01     BNE $F98D                       A:02 X:AA Y:75 P:67 SP:F9 STACK: 00 00 C6 05 CB DC
F98C  60        RTS                             A:02 X:AA Y:75 P:67 SP:F9 STACK: 00 00 C6 05 CB DC
CBDD  60        RTS                             A:02 X:AA Y:75 P:67 SP:FB STACK: 00 00 C6 05
C606  20 DE CB  JSR $CBDE                       A:02 X:AA Y:75 P:67 SP:FD STACK: 00 00
CBDE  EA        NOP                             A:02 X:AA Y:75 P:67 SP:FB STACK: 00 00 C6 08
CBDF  A9 FF     LDA #$FF                        A:02 X:AA Y:75 P:67 SP:FB STACK: 00 00 C6 08
CBE1  85 01     STA $01 = FF                    A:FF X:AA Y:75 P:E5 SP:FB STACK: 00 00 C6 08
CBE3  A9 44     LDA #$44                        A:FF X:AA Y:75 P:E5 SP:FB STACK: 00 00 C6 08
CBE5  A2 55     LDX #$55                        A:44 X:AA Y:75 P:65 SP:FB STACK: 00 00 C6 08
CBE7  A0 66     LDY #$66                        A:44 X:55 Y:75 P:65 SP:FB STACK: 00 00 C6 08
CBE9  E8        INX                             A:44 X:55 Y:66 P:65 SP:FB STACK: 00 00 C6 08
CBEA  88        DEY                             A:44 X:56 Y:66 P:65 SP:FB STACK: 00 00 C6 08
CBEB  E0 56     CPX #$56                        A:44 X:56 Y:65 P:65 SP:FB STACK: 00 00 C6 08
CBED  D0 21     BNE $CC10                       A:44 X:56 Y:65 P:67 SP:FB STACK: 00 00 C6 08
CBEF  C0 65     CPY #$65                        A:44 X:56 Y:65 P:67 SP:FB STACK: 00 00 C6 08
CBF1  D0 1D     BNE $CC10                       A:44 X:56 Y:65 P:67 SP:FB STACK: 00 00 C6 08
CBF3  E8        INX                             A:44 X:56 Y:65 P:67 SP:FB STACK: 00 00 C6 08
CBF4  E8        INX                             A:44 X:57 Y:65 P:65 SP:FB STACK: 00 00 C6 08
CBF5  88        DEY                             A:44 X:58 Y:65 P:65 SP:FB STACK: 00 00 C6 08
CBF6  88        DEY                             A:44 X:58 Y:64 P:65 SP:FB STACK: 00 00 C6 08
CBF7  E0 58     CPX #$58                        A:44 X:58 Y:63 P:65 SP:FB STACK: 00 00 C6 08
CBF9  D0 15     BNE $CC10                       A:44 X:58 Y:63 P:67 SP:FB STACK: 00 00 C6 08
CBFB  C0 63     CPY #$63                        A:44 X:58 Y:63 P:67 SP:FB STACK: 00 00 C6 08
CBFD  D0 11     BNE $CC10                       A:44 X:58 Y:63 P:67 SP:FB STACK: 00 00 C6 08
CBFF  CA        DEX                             A:44 X:58 Y:63 P:67 SP:FB STACK: 00 00 C6 08
CC00  C8        INY                             A:44 X:57 Y:63 P:65 SP:FB STACK: 00 00 C6 08
CC01  E0 57     CPX #$57                        A:44 X:57 Y:64 P:65 SP:FB STACK: 00 00 C6 08
CC03  D0 0B     BNE $CC10                       A:44 X:57 Y:64 P:67 SP:FB STACK: 00 00 C6 08
CC05  C0 64     CPY #$64                        A:44 X:57 Y:64 P:67 SP:FB STACK: 00 00 C6 08
CC07  D0 07     BNE $CC10                       A:44 X:57 Y:64 P:67 SP:FB STACK: 00 00 C6 08
CC09  C9 44     CMP #$44                        A:44 X:57 Y:64 P:67 SP:FB STACK: 00 00 C6 08
CC0B  D0 03     BNE $CC10                       A:44 X:57 Y:64 P:67 SP:FB STACK: 00 00 C6 08
CC0D  4C 14 CC  JMP $CC14                       A:44 X:57 Y:64 P:67 SP:FB STACK: 00 00 C6 08
CC14  EA        NOP                             A:44 X:57 Y:64 P:67 SP:FB STACK: 00 00 C6 08
CC15  38        SEC                             A:44 X:57 Y:64 P:67 SP:FB STACK: 00 00 C6 08
CC16  A2 69     LDX #$69                        A:44 X:57 Y:64 P:67 SP:FB STACK: 00 00 C6 08
CC18  A9 96     LDA #$96                        A:44 X:69 Y:64 P:65 SP:FB STACK: 00 00 C6 08
CC1A  24 01     BIT $01 = FF                    A:96 X:69 Y:64 P:E5 SP:FB STACK: 00 00 C6 08
CC1C  A0 FF     LDY #$FF                        A:96 X:69 Y:64 P:E5 SP:FB STACK: 00 00 C6 08
CC1E  C8        INY                             A:96 X:69 Y:FF P:E5 SP:FB STACK: 00 00 C6 08
CC1F  D0 3D     BNE $CC5E                       A:96 X:69 Y:00 P:67 SP:FB STACK: 00 00 C6 08
CC21  30 3B     BMI $CC5E                       A:96 X:69 Y:00 P:67 SP:FB STACK: 00 00 C6 08
CC23  90 39     BCC $CC5E                       A:96 X:69 Y:00 P:67 SP:FB STACK: 00 00 C6 08
CC25  50 37     BVC $CC5E                       A:96 X:69 Y:00 P:67 SP:FB STACK: 00 00 C6 08
CC27  C0 00     CPY #$00                        A:96 X:69 Y:00 P:67 SP:FB STACK: 00 00 C6 08
CC29  D0 33     BNE $CC5E                       A:96 X:69 Y:00 P:67 SP:FB STACK: 00 00 C6 08
CC2B  C8        INY                             A:96 X:69 Y:00 P:67 SP:FB STACK: 00 00 C6 08
CC2C  F0 30     BEQ $CC5E                       A:96 X:69 Y:01 P:65 SP:FB STACK: 00 00 C6 08
CC2E  30 2E     BMI $CC5E                       A:96 X:69 Y:01 P:65 SP:FB STACK: 00 00 C6 08
CC30  90 2C     BCC $CC5E                       A:96 X:69 Y:01 P:65 SP:FB STACK: 00 00 C6 08
CC32  50 2A     BVC $CC5E                       A:96 X:69 Y:01 P:65 SP:FB STACK: 00 00 C6 08
CC34  18        CLC                             A:96 X:69 Y:01 P:65 SP:FB STACK: 00 00 C6 08
CC35  B8        CLV                             A:96 X:69 Y:01 P:64 SP:FB STACK: 00 00 C6 08
CC36  A0 00     LDY #$00                        A:96 X:69 Y:01 P:24 SP:FB STACK: 00 00 C6 08
CC38  88        DEY                             A:96 X:69 Y:00 P:26 SP:FB STACK: 00 00 C6 08
CC39  F0 23     BEQ $CC5E                       A:96 X:69 Y:FF P:A4 SP:FB STACK: 00 00 C6 08
CC3B  10 21     BPL $CC5E                       A:96 X:69 Y:FF P:A4 SP:FB STACK: 00 00 C6 08
CC3D  B0 1F     BCS $CC5E                       A:96 X:69 Y:FF P:A4 SP:FB STACK: 00 00 C6 08
CC3F  70 1D     BVS $CC5E                       A:96 X:69 Y:FF P:A4 SP:FB STACK: 00 00 C6 08
CC41  C0 FF     CPY #$FF                        A:96 X:69 Y:FF P:A4 SP:FB STACK: 00 00 C6 08
CC43  D0 19     BNE $CC5E                       A:96 X:69 Y:FF P:27 SP:FB STACK: 00 00 C6 08
CC45  18        CLC                             A:96 X:69 Y:FF P:27 SP:FB STACK: 00 00 C6 08
CC46  88        DEY                             A:96 X:69 Y:FF P:26 SP:FB STACK: 00 00 C6 08
CC47  F0 15     BEQ $CC5E                       A:96 X:69 Y:FE P:A4 SP:FB STACK: 00 00 C6 08
CC49  10 13     BPL $CC5E                       A:96 X:69 Y:FE P:A4 SP:FB STACK: 00 00 C6 08
CC4B  B0 11     BCS $CC5E                       A:96 X:69 Y:FE P:A4 SP:FB STACK: 00 00 C6 08
CC4D  70 0F     BVS $CC5E                       A:96 X:69 Y:FE P:A4 SP:FB STACK: 00 00 C6 08
CC4F  C0 FE     CPY #$FE                        A:96 X:69 Y:FE P:A4 SP:FB STACK: 00 00 C6 08
CC51  D0 0B     BNE $CC5E                       A:96 X:69 Y:FE P:27 SP:FB STACK: 00 00 C6 08
CC53  C9 96     CMP #$96                        A:96 X:69 Y:FE P:27 SP:FB STACK: 00 00 C6 08
CC55  D0 07     BNE $CC5E                       A:96 X:69 Y:FE P:27 SP:FB STACK: 00 00 C6 08
CC57  E0 69     CPX #$69                        A:96 X:69 Y:FE P:27 SP:FB STACK: 00 00 C6 08
CC59  D0 03     BNE $CC5E                       A:96 X:69 Y:FE P:27 SP:FB STACK: 00 00 C6 08
CC5B  4C 62 CC  JMP $CC62                       A:96 X:69 Y:FE P:27 SP:FB STACK: 00 00 C6 08
CC62  EA        NOP                             A:96 X:69 Y:FE P:27 SP:FB STACK: 00 00 C6 08
CC63  38        SEC                             A:96 X:69 Y:FE P:27 SP:FB STACK: 00 00 C6 08
CC64  A0 69     LDY #$69                        A:96 X:69 Y:FE P:27 SP:FB STACK: 00 00 C6 08
CC66  A9 96     LDA #$96                        A:96 X:69 Y:69 P:25 SP:FB STACK: 00 00 C6 08
CC68  24 01     BIT $01 = FF                    A:96 X:69 Y:69 P:A5 SP:FB STACK: 00 00 C6 08
CC6A  A2 FF     LDX #$FF                        A:96 X:69 Y:69 P:E5 SP:FB STACK: 00 00 C6 08
CC6C  E8        INX                             A:96 X:FF Y:69 P:E5 SP:FB STACK: 00 00 C6 08
CC6D  D0 3D     BNE $CCAC                       A:96 X:00 Y:69 P:67 SP:FB STACK: 00 00 C6 08
CC6F  30 3B     BMI $CCAC                       A:96 X:00 Y:69 P:67 SP:FB STACK: 00 00 C6 08
CC71  90 39     BCC $CCAC                       A:96 X:00 Y:69 P:67 SP:FB STACK: 00 00 C6 08
CC73  50 37     BVC $CCAC                       A:96 X:00 Y:69 P:67 SP:FB STACK: 00 00 C6 08
CC75  E0 00     CPX #$00                        A:96 X:00 Y:69 P:67 SP:FB STACK: 00 00 C6 08
CC77  D0 33     BNE $CCAC                       A:96 X:00 Y:69 P:67 SP:FB STACK: 00 00 C6 08
CC79  E8        INX                             A:96 X:00 Y:69 P:67 SP:FB STACK: 00 00 C6 08
CC7A  F0 30     BEQ $CCAC                       A:96 X:01 Y:69 P:65 SP:FB STACK: 00 00 C6 08
CC7C  30 2E     BMI $CCAC                       A:96 X:01 Y:69 P:65 SP:FB STACK: 00 00 C6 08
CC7E  90 2C     BCC $CCAC                       A:96 X:01 Y:69 P:65 SP:FB STACK: 00 00 C6 08
CC80  50 2A     BVC $CCAC                       A:96 X:01 Y:69 P:65 SP:FB STACK: 00 00 C6 08
CC82  18        CLC                             A:96 X:01 Y:69 P:65 SP:FB STACK: 00 00 C6 08
CC83  B8        CLV                             A:96 X:01 Y:69 P:64 SP:FB STACK: 00 00 C6 08
CC84  A2 00     LDX #$00                        A:96 X:01 Y:69 P:24 SP:FB STACK: 00 00 C6 08
CC86  CA        DEX                             A:96 X:00 Y:69 P:26 SP:FB STACK: 00 00 C6 08
CC87  F0 23     BEQ $CCAC                       A:96 X:FF Y:69 P:A4 SP:FB STACK: 00 00 C6 08
CC89  10 21     BPL $CCAC                       A:96 X:FF Y:69 P:A4 SP:FB STACK: 00 00 C6 08
CC8B  B0 1F     BCS $CCAC                       A:96 X:FF Y:69 P:A4 SP:FB STACK: 00 00 C6 08
CC8D  70 1D     BVS $CCAC                       A:96 X:FF Y:69 P:A4 SP:FB STACK: 00 00 C6 08
CC8F  E0 FF     CPX #$FF                        A:96 X:FF Y:69 P:A4 SP:FB STACK: 00 00 C6 08
CC91  D0 19     BNE $CCAC                       A:96 X:FF Y:69 P:27 SP:FB STACK: 00 00 C6 08
CC93  18        CLC                             A:96 X:FF Y:69 P:27 SP:FB STACK: 00 00 C6 08
CC94  CA        DEX                             A:96 X:FF Y:69 P:26 SP:FB STACK: 00 00 C6 08
CC95  F0 15     BEQ $CCAC                       A:96 X:FE Y:69 P:A4 SP:FB STACK: 00 00 C6 08
CC97  10 13     BPL $CCAC                       A:96 X:FE Y:69 P:A4 SP:FB STACK: 00 00 C6 08
CC99  B0 11     BCS $CCAC                       A:96 X:FE Y:69 P:A4 SP:FB STACK: 00 00 C6 08
CC9B  70 0F     BVS $CCAC                       A:96 X:FE Y:69 P:A4 SP:FB STACK: 00 00 C6 08
CC9D  E0 FE     CPX #$FE                        A:96 X:FE Y:69 P:A4 SP:FB STACK: 00 00 C6 08
CC9F  D0 0B     BNE $CCAC                       A:96 X:FE Y:69 P:27 SP:FB STACK: 00 00 C6 08
CCA1  C9 96     CMP #$96                        A:96 X:FE Y:69 P:27 SP:FB STACK: 00 00 C6 08
CCA3  D0 07     BNE $CCAC                       A:96 X:FE Y:69 P:27 SP:FB STACK: 00 00 C6 08
CCA5  C0 69     CPY #$69                        A:96 X:FE Y:69 P:27 SP:FB STACK: 00 00 C6 08
CCA7  D0 03     BNE $CCAC                       A:96 X:FE Y:69 P:27 SP:FB STACK: 00 00 C6 08
CCA9  4C B0 CC  JMP $CCB0                       A:96 X:FE Y:69 P:27 SP:FB STACK: 00 00 C6 08
CCB0  EA        NOP                             A:96 X:FE Y:69 P:27 SP:FB STACK: 00 00 C6 08
CCB1  A9 85     LDA #$85                        A:96 X:FE Y:69 P:27 SP:FB STACK: 00 00 C6 08
CCB3  A2 34     LDX #$34                        A:85 X:FE Y:69 P:A5 SP:FB STACK: 00 00 C6 08
CCB5  A0 99     LDY #$99                        A:85 X:34 Y:69 P:25 SP:FB STACK: 00 00 C6 08
CCB7  18        CLC                             A:85 X:34 Y:99 P:A5 SP:FB STACK: 00 00 C6 08
CCB8  24 01     BIT $01 = FF                    A:85 X:34 Y:99 P:A4 SP:FB STACK: 00 00 C6 08
CCBA  A8        TAY                             A:85 X:34 Y:99 P:E4 SP:FB STACK: 00 00 C6 08
CCBB  F0 2E     BEQ $CCEB                       A:85 X:34 Y:85 P:E4 SP:FB STACK: 00 00 C6 08
CCBD  B0 2C     BCS $CCEB                       A:85 X:34 Y:85 P:E4 SP:FB STACK: 00 00 C6 08
CCBF  50 2A     BVC $CCEB                       A:85 X:34 Y:85 P:E4 SP:FB STACK: 00 00 C6 08
CCC1  10 28     BPL $CCEB                       A:85 X:34 Y:85 P:E4 SP:FB STACK: 00 00 C6 08
CCC3  C9 85     CMP #$85                        A:85 X:34 Y:85 P:E4 SP:FB STACK: 00 00 C6 08
CCC5  D0 24     BNE $CCEB                       A:85 X:34 Y:85 P:67 SP:FB STACK: 00 00 C6 08
CCC7  E0 34     CPX #$34                        A:85 X:34 Y:85 P:67 SP:FB STACK: 00 00 C6 08
CCC9  D0 20     BNE $CCEB                       A:85 X:34 Y:85 P:67 SP:FB STACK: 00 00 C6 08
CCCB  C0 85     CPY #$85                        A:85 X:34 Y:85 P:67 SP:FB STACK: 00 00 C6 08
CCCD  D0 1C     BNE $CCEB                       A:85 X:34 Y:85 P:67 SP:FB STACK: 00 00 C6 08
CCCF  A9 00     LDA #$00                        A:85 X:34 Y:85 P:67 SP:FB STACK: 00 00 C6 08
CCD1  38        SEC                             A:00 X:34 Y:85 P:67 SP:FB STACK: 00 00 C6 08
CCD2  B8        CLV                             A:00 X:34 Y:85 P:67 SP:FB STACK: 00 00 C6 08
CCD3  A8        TAY                             A:00 X:34 Y:85 P:27 SP:FB STACK: 00 00 C6 08
CCD4  D0 15     BNE $CCEB                       A:00 X:34 Y:00 P:27 SP:FB STACK: 00 00 C6 08
CCD6  90 13     BCC $CCEB                       A:00 X:34 Y:00 P:27 SP:FB STACK: 00 00 C6 08
CCD8  70 11     BVS $CCEB                       A:00 X:34 Y:00 P:27 SP:FB STACK: 00 00 C6 08
CCDA  30 0F     BMI $CCEB                       A:00 X:34 Y:00 P:27 SP:FB STACK: 00 00 C6 08
CCDC  C9 00     CMP #$00                        A:00 X:34 Y:00 P:27 SP:FB STACK: 00 00 C6 08
CCDE  D0 0B     BNE $CCEB                       A:00 X:34 Y:00 P:27 SP:FB STACK: 00 00 C6 08
CCE0  E0 34     CPX #$34                        A:00 X:34 Y:00 P:27 SP:FB STACK: 00 00 C6 08
CCE2  D0 07     BNE $CCEB                       A:00 X:34 Y:00 P:27 SP:FB STACK: 00 00 C6 08
CCE4  C0 00     CPY #$00                        A:00 X:34 Y:00 P:27 SP:FB STACK: 00 00 C6 08
CCE6  D0 03     BNE $CCEB                       A:00 X:34 Y:00 P:27 SP:FB STACK: 00 00 C6 08
CCE8  4C EF CC  JMP $CCEF                       A:00 X:34 Y:00 P:27 SP:FB STACK: 00 00 C6 08
CCEF  EA        NOP                             A:00 X:34 Y:00 P:27 SP:FB STACK: 00 00 C6 08
CCF0  A9 85     LDA #$85                        A:00 X:34 Y:00 P:27 SP:FB STACK: 00 00 C6 08
CCF2  A2 34     LDX #$34                        A:85 X:34 Y:00 P:A5 SP:FB STACK: 00 00 C6 08
CCF4  A0 99     LDY #$99                        A:85 X:34 Y:00 P:25 SP:FB STACK: 00 00 C6 08
CCF6  18        CLC                             A:85 X:34 Y:99 P:A5 SP:FB STACK: 00 00 C6 08
CCF7  24 01     BIT $01 = FF                    A:85 X:34 Y:99 P:A4 SP:FB STACK: 00 00 C6 08
CCF9  AA        TAX                             A:85 X:34 Y:99 P:E4 SP:FB STACK: 00 00 C6 08
CCFA  F0 2E     BEQ $CD2A                       A:85 X:85 Y:99 P:E4 SP:FB STACK: 00 00 C6 08
CCFC  B0 2C     BCS $CD2A                       A:85 X:85 Y:99 P:E4 SP:FB STACK: 00 00 C6 08
CCFE  50 2A     BVC $CD2A                       A:85 X:85 Y:99 P:E4 SP:FB STACK: 00 00 C6 08
CD00  10 28     BPL $CD2A                       A:85 X:85 Y:99 P:E4 SP:FB STACK: 00 00 C6 08
CD02  C9 85     CMP #$85                        A:85 X:85 Y:99 P:E4 SP:FB STACK: 00 00 C6 08
CD04  D0 24     BNE $CD2A                       A:85 X:85 Y:99 P:67 SP:FB STACK: 00 00 C6 08
CD06  E0 85     CPX #$85                        A:85 X:85 Y:99 P:67 SP:FB STACK: 00 00 C6 08
CD08  D0 20     BNE $CD2A                       A:85 X:85 Y:99 P:67 SP:FB STACK: 00 00 C6 08
CD0A  C0 99     CPY #$99                        A:85 X:85 Y:99 P:67 SP:FB STACK: 00 00 C6 08
CD0C  D0 1C     BNE $CD2A                       A:85 X:85 Y:99 P:67 SP:FB STACK: 00 00 C6 08
CD0E  A9 00     LDA #$00                        A:85 X:85 Y:99 P:67 SP:FB STACK: 00 00 C6 08
CD10  38        SEC                             A:00 X:85 Y:99 P:67 SP:FB STACK: 00 00 C6 08
CD11  B8        CLV                             A:00 X:85 Y:99 P:67 SP:FB STACK: 00 00 C6 08
CD12  AA        TAX                             A:00 X:85 Y:99 P:27 SP:FB STACK: 00 00 C6 08
CD13  D0 15     BNE $CD2A                       A:00 X:00 Y:99 P:27 SP:FB STACK: 00 00 C6 08
CD15  90 13     BCC $CD2A                       A:00 X:00 Y:99 P:27 SP:FB STACK: 00 00 C6 08
CD17  70 11     BVS $CD2A                       A:00 X:00 Y:99 P:27 SP:FB STACK: 00 00 C6 08
CD19  30 0F     BMI $CD2A                       A:00 X:00 Y:99 P:27 SP:FB STACK: 00 00 C6 08
CD1B  C9 00     CMP #$00                        A:00 X:00 Y:99 P:27 SP:FB STACK: 00 00 C6 08
CD1D  D0 0B     BNE $CD2A                       A:00 X:00 Y:99 P:27 SP:FB STACK: 00 00 C6 08
CD1F  E0 00     CPX #$00                        A:00 X:00 Y:99 P:27 SP:FB STACK: 00 00 C6 08
CD21  D0 07     BNE $CD2A                       A:00 X:00 Y:99 P:27 SP:FB STACK: 00 00 C6 08
CD23  C0 99     CPY #$99                        A:00 X:00 Y:99 P:27 SP:FB STACK: 00 00 C6 08
CD25  D0 03     BNE $CD2A                       A:00 X:00 Y:99 P:27 SP:FB STACK: 00 00 C6 08
CD27  4C 2E CD  JMP $CD2E                       A:00 X:00 Y:99 P:27 SP:FB STACK: 00 00 C6 08
CD2E  EA        NOP                             A:00 X:00 Y:99 P:27 SP:FB STACK: 00 00 C6 08
CD2F  A9 85     LDA #$85                        A:00 X:00 Y:99 P:27 SP:FB STACK: 00 00 C6 08
CD31  A2 34     LDX #$34                        A:85 X:00 Y:99 P:A5 SP:FB STACK: 00 00 C6 08
CD33  A0 99     LDY #$99                        A:85 X:34 Y:99 P:25 SP:FB STACK: 00 00 C6 08
CD35  18        CLC                             A:85 X:34 Y:99 P:A5 SP:FB STACK: 00 00 C6 08
CD36  24 01     BIT $01 = FF                    A:85 X:34 Y:99 P:A4 SP:FB STACK: 00 00 C6 08
CD38  98        TYA                             A:85 X:34 Y:99 P:E4 SP:FB STACK: 00 00 C6 08
CD39  F0 2E     BEQ $CD69                       A:99 X:34 Y:99 P:E4 SP:FB STACK: 00 00 C6 08
CD3B  B0 2C     BCS $CD69                       A:99 X:34 Y:99 P:E4 SP:FB STACK: 00 00 C6 08
CD3D  50 2A     BVC $CD69                       A:99 X:34 Y:99 P:E4 SP:FB STACK: 00 00 C6 08
CD3F  10 28     BPL $CD69                       A:99 X:34 Y:99 P:E4 SP:FB STACK: 00 00 C6 08
CD41  C9 99     CMP #$99                        A:99 X:34 Y:99 P:E4 SP:FB STACK: 00 00 C6 08
CD43  D0 24     BNE $CD69                       A:99 X:34 Y:99 P:67 SP:FB STACK: 00 00 C6 08
CD45  E0 34     CPX #$34                        A:99 X:34 Y:99 P:67 SP:FB STACK: 00 00 C6 08
CD47  D0 20     BNE $CD69                       A:99 X:34 Y:99 P:67 SP:FB STACK: 00 00 C6 08
CD49  C0 99     CPY #$99                        A:99 X:34 Y:99 P:67 SP:FB STACK: 00 00 C6 08
CD4B  D0 1C     BNE $CD69                       A:99 X:34 Y:99 P:67 SP:FB STACK: 00 00 C6 08
CD4D  A0 00     LDY #$00                        A:99 X:34 Y:99 P:67 SP:FB STACK: 00 00 C6 08
CD4F  38        SEC                             A:99 X:34 Y:00 P:67 SP:FB STACK: 00 00 C6 08
CD50  B8        CLV                             A:99 X:34 Y:00 P:67 SP:FB STACK: 00 00 C6 08
CD51  98        TYA                             A:99 X:34 Y:00 P:27 SP:FB STACK: 00 00 C6 08
CD52  D0 15     BNE $CD69                       A:00 X:34 Y:00 P:27 SP:FB STACK: 00 00 C6 08
CD54  90 13     BCC $CD69                       A:00 X:34 Y:00 P:27 SP:FB STACK: 00 00 C6 08
CD56  70 11     BVS $CD69                       A:00 X:34 Y:00 P:27 SP:FB STACK: 00 00 C6 08
CD58  30 0F     BMI $CD69                       A:00 X:34 Y:00 P:27 SP:FB STACK: 00 00 C6 08
CD5A  C9 00     CMP #$00                        A:00 X:34 Y:00 P:27 SP:FB STACK: 00 00 C6 08
CD5C  D0 0B     BNE $CD69                       A:00 X:34 Y:00 P:27 SP:FB STACK: 00 00 C6 08
CD5E  E0 34     CPX #$34                        A:00 X:34 Y:00 P:27 SP:FB STACK: 00 00 C6 08
CD60  D0 07     BNE $CD69                       A:00 X:34 Y:00 P:27 SP:FB STACK: 00 00 C6 08
CD62  C0 00     CPY #$00                        A:00 X:34 Y:00 P:27 SP:FB STACK: 00 00 C6 08
CD64  D0 03     BNE $CD69                       A:00 X:34 Y:00 P:27 SP:FB STACK: 00 00 C6 08
CD66  4C 6D CD  JMP $CD6D                       A:00 X:34 Y:00 P:27 SP:FB STACK: 00 00 C6 08
CD6D  EA        NOP                             A:00 X:34 Y:00 P:27 SP:FB STACK: 00 00 C6 08
CD6E  A9 85     LDA #$85                        A:00 X:34 Y:00 P:27 SP:FB STACK: 00 00 C6 08
CD70  A2 34     LDX #$34                        A:85 X:34 Y:00 P:A5 SP:FB STACK: 00 00 C6 08
CD72  A0 99     LDY #$99                        A:85 X:34 Y:00 P:25 SP:FB STACK: 00 00 C6 08
CD74  18        CLC                             A:85 X:34 Y:99 P:A5 SP:FB STACK: 00 00 C6 08
CD75  24 01     BIT $01 = FF                    A:85 X:34 Y:99 P:A4 SP:FB STACK: 00 00 C6 08
CD77  8A        TXA                             A:85 X:34 Y:99 P:E4 SP:FB STACK: 00 00 C6 08
CD78  F0 2E     BEQ $CDA8                       A:34 X:34 Y:99 P:64 SP:FB STACK: 00 00 C6 08
CD7A  B0 2C     BCS $CDA8                       A:34 X:34 Y:99 P:64 SP:FB STACK: 00 00 C6 08
CD7C  50 2A     BVC $CDA8                       A:34 X:34 Y:99 P:64 SP:FB STACK: 00 00 C6 08
CD7E  30 28     BMI $CDA8                       A:34 X:34 Y:99 P:64 SP:FB STACK: 00 00 C6 08
CD80  C9 34     CMP #$34                        A:34 X:34 Y:99 P:64 SP:FB STACK: 00 00 C6 08
CD82  D0 24     BNE $CDA8                       A:34 X:34 Y:99 P:67 SP:FB STACK: 00 00 C6 08
CD84  E0 34     CPX #$34                        A:34 X:34 Y:99 P:67 SP:FB STACK: 00 00 C6 08
CD86  D0 20     BNE $CDA8                       A:34 X:34 Y:99 P:67 SP:FB STACK: 00 00 C6 08
CD88  C0 99     CPY #$99                        A:34 X:34 Y:99 P:67 SP:FB STACK: 00 00 C6 08
CD8A  D0 1C     BNE $CDA8                       A:34 X:34 Y:99 P:67 SP:FB STACK: 00 00 C6 08
CD8C  A2 00     LDX #$00                        A:34 X:34 Y:99 P:67 SP:FB STACK: 00 00 C6 08
CD8E  38        SEC                             A:34 X:00 Y:99 P:67 SP:FB STACK: 00 00 C6 08
CD8F  B8        CLV                             A:34 X:00 Y:99 P:67 SP:FB STACK: 00 00 C6 08
CD90  8A        TXA                             A:34 X:00 Y:99 P:27 SP:FB STACK: 00 00 C6 08
CD91  D0 15     BNE $CDA8                       A:00 X:00 Y:99 P:27 SP:FB STACK: 00 00 C6 08
CD93  90 13     BCC $CDA8                       A:00 X:00 Y:99 P:27 SP:FB STACK: 00 00 C6 08
CD95  70 11     BVS $CDA8                       A:00 X:00 Y:99 P:27 SP:FB STACK: 00 00 C6 08
CD97  30 0F     BMI $CDA8                       A:00 X:00 Y:99 P:27 SP:FB STACK: 00 00 C6 08
CD99  C9 00     CMP #$00                        A:00 X:00 Y:99 P:27 SP:FB STACK: 00 00 C6 08
CD9B  D0 0B     BNE $CDA8                       A:00 X:00 Y:99 P:27 SP:FB STACK: 00 00 C6 08
CD9D  E0 00     CPX #$00                        A:00 X:00 Y:99 P:27 SP:FB STACK: 00 00 C6 08
CD9F  D0 07     BNE $CDA8                       A:00 X:00 Y:99 P:27 SP:FB STACK: 00 00 C6 08
CDA1  C0 99     CPY #$99                        A:00 X:00 Y:99 P:27 SP:FB STACK: 00 00 C6 08
CDA3  D0 03     BNE $CDA8                       A:00 X:00 Y:99 P:27 SP:FB STACK: 00 00 C6 08
CDA5  4C AC CD  JMP $CDAC                       A:00 X:00 Y:99 P:27 SP:FB STACK: 00 00 C6 08
CDAC  EA        NOP                             A:00 X:00 Y:99 P:27 SP:FB STACK: 00 00 C6 08
CDAD  BA        TSX                             A:00 X:00 Y:99 P:27 SP:FB STACK: 00 00 C6 08
CDAE  8E FF 07  STX $07FF = 00                  A:00 X:FB Y:99 P:A5 SP:FB STACK: 00 00 C6 08
CDB1  A0 33     LDY #$33                        A:00 X:FB Y:99 P:A5 SP:FB STACK: 00 00 C6 08
CDB3  A2 69     LDX #$69                        A:00 X:FB Y:33 P:25 SP:FB STACK: 00 00 C6 08
CDB5  A9 84     LDA #$84                        A:00 X:69 Y:33 P:25 SP:FB STACK: 00 00 C6 08
CDB7  18        CLC                             A:84 X:69 Y:33 P:A5 SP:FB STACK: 00 00 C6 08
CDB8  24 01     BIT $01 = FF                    A:84 X:69 Y:33 P:A4 SP:FB STACK: 00 00 C6 08
CDBA  9A        TXS                             A:84 X:69 Y:33 P:E4 SP:FB STACK: 00 00 C6 08
CDBB  F0 32     BEQ $CDEF                       A:84 X:69 Y:33 P:E4 SP:69 STACK: 00 00 C6 08 CB DC 00 00 00 00 00 00 00 00 00 00 00 00 00 00 00 00 00 00 00 00 00 00 00 00 00 00 00 00 00 00 00 00 00 00 00 00 00 00 00 00 00 00 00 00 00 00 00 00 00 00 00 00 00 00 00 00 00 00 00 00 00 00 00 00 00 00 00 00 00 00 00 00 00 00 00 00 00 00 00 00 00 00 00 00 00 00 00 00 00 00 00 00 00 00 00 00 00 00 00 00 00 00 00 00 00 00 00 00 00 00 00 00 00 00 00 00 00 00 00 00 00 00 00 00 00 00 00 00 00 00 00 00 00 00 00 00 00 00 00 00 00 00 00 00
CDBD  10 30     BPL $CDEF                       A:84 X:69 Y:33 P:E4 SP:69 STACK: 00 00 C6 08 CB DC 00 00 00 00 00 00 00 00 00 00 00 00 00 00 00 00 00 00 00 00 00 00 00 00 00 00 00 00 00 00 00 00 00 00 00 00 00 00 00 00 00 00 00 00 00 00 00 00 00 00 00 00 00 00 00 00 00 00 00 00 00 00 00 00 00 00 00 00 00 00 00 00 00 00 00 00 00 00 00 00 00 00 00 00 00 00 00 00 00 00 00 00 00 00 00 00 00 00 00 00 00 00 00 00 00 00 00 00 00 00 00 00 00 00 00 00 00 00 00 00 00 00 00 00 00 00 00 00 00 00 00 00 00 00 00 00 00 00 00 00 00 00 00 00
CDBF  B0 2E     BCS $CDEF                       A:84 X:69 Y:33 P:E4 SP:69 STACK: 00 00 C6 08 CB DC 00 00 00 00 00 00 00 00 00 00 00 00 00 00 00 00 00 00 00 00 00 00 00 00 00 00 00 00 00 00 00 00 00 00 00 00 00 00 00 00 00 00 00 00 00 00 00 00 00 00 00 00 00 00 00 00 00 00 00 00 00 00 00 00 00 00 00 00 00 00 00 00 00 00 00 00 00 00 00 00 00 00 00 00 00 00 00 00 00 00 00 00 00 00 00 00 00 00 00 00 00 00 00 00 00 00 00 00 00 00 00 00 00 00 00 00 00 00 00 00 00 00 00 00 00 00 00 00 00 00 00 00 00 00 00 00 00 00 00 00 00 00 00 00
CDC1  50 2C     BVC $CDEF                       A:84 X:69 Y:33 P:E4 SP:69 STACK: 00 00 C6 08 CB DC 00 00 00 00 00 00 00 00 00 00 00 00 00 00 00 00 00 00 00 00 00 00 00 00 00 00 00 00 00 00 00 00 00 00 00 00 00 00 00 00 00 00 00 00 00 00 00 00 00 00 00 00 00 00 00 00 00 00 00 00 00 00 00 00 00 00 00 00 00 00 00 00 00 00 00 00 00 00 00 00 00 00 00 00 00 00 00 00 00 00 00 00 00 00 00 00 00 00 00 00 00 00 00 00 00 00 00 00 00 00 00 00 00 00 00 00 00 00 00 00 00 00 00 00 00 00 00 00 00 00 00 00 00 00 00 00 00 00 00 00 00 00 00 00
CDC3  C9 84     CMP #$84                        A:84 X:69 Y:33 P:E4 SP:69 STACK: 00 00 C6 08 CB DC 00 00 00 00 00 00 00 00 00 00 00 00 00 00 00 00 00 00 00 00 00 00 00 00 00 00 00 00 00 00 00 00 00 00 00 00 00 00 00 00 00 00 00 00 00 00 00 00 00 00 00 00 00 00 00 00 00 00 00 00 00 00 00 00 00 00 00 00 00 00 00 00 00 00 00 00 00 00 00 00 00 00 00 00 00 00 00 00 00 00 00 00 00 00 00 00 00 00 00 00 00 00 00 00 00 00 00 00 00 00 00 00 00 00 00 00 00 00 00 00 00 00 00 00 00 00 00 00 00 00 00 00 00 00 00 00 00 00 00 00 00 00 00 00
CDC5  D0 28     BNE $CDEF                       A:84 X:69 Y:33 P:67 SP:69 STACK: 00 00 C6 08 CB DC 00 00 00 00 00 00 00 00 00 00 00 00 00 00 00 00 00 00 00 00 00 00 00 00 00 00 00 00 00 00 00 00 00 00 00 00 00 00 00 00 00 00 00 00 00 00 00 00 00 00 00 00 00 00 00 00 00 00 00 00 00 00 00 00 00 00 00 00 00 00 00 00 00 00 00 00 00 00 00 00 00 00 00 00 00 00 00 00 00 00 00 00 00 00 00 00 00 00 00 00 00 00 00 00 00 00 00 00 00 00 00 00 00 00 00 00 00 00 00 00 00 00 00 00 00 00 00 00 00 00 00 00 00 00 00 00 00 00 00 00 00 00 00 00
CDC7  E0 69     CPX #$69                        A:84 X:69 Y:33 P:67 SP:69 STACK: 00 00 C6 08 CB DC 00 00 00 00 00 00 00 00 00 00 00 00 00 00 00 00 00 00 00 00 00 00 00 00 00 00 00 00 00 00 00 00 00 00 00 00 00 00 00 00 00 00 00 00 00 00 00 00 00 00 00 00 00 00 00 00 00 00 00 00 00 00 00 00 00 00 00 00 00 00 00 00 00 00 00 00 00 00 00 00 00 00 00 00 00 00 00 00 00 00 00 00 00 00 00 00 00 00 00 00 00 00 00 00 00 00 00 00 00 00 00 00 00 00 00 00 00 00 00 00 00 00 00 00 00 00 00 00 00 00 00 00 00 00 00 00 00 00 00 00 00 00 00 00
CDC9  D0 24     BNE $CDEF                       A:84 X:69 Y:33 P:67 SP:69 STACK: 00 00 C6 08 CB DC 00 00 00 00 00 00 00 00 00 00 00 00 00 00 00 00 00 00 00 00 00 00 00 00 00 00 00 00 00 00 00 00 00 00 00 00 00 00 00 00 00 00 00 00 00 00 00 00 00 00 00 00 00 00 00 00 00 00 00 00 00 00 00 00 00 00 00 00 00 00 00 00 00 00 00 00 00 00 00 00 00 00 00 00 00 00 00 00 00 00 00 00 00 00 00 00 00 00 00 00 00 00 00 00 00 00 00 00 00 00 00 00 00 00 00 00 00 00 00 00 00 00 00 00 00 00 00 00 00 00 00 00 00 00 00 00 00 00 00 00 00 00 00 00
CDCB  C0 33     CPY #$33                        A:84 X:69 Y:33 P:67 SP:69 STACK: 00 00 C6 08 CB DC 00 00 00 00 00 00 00 00 00 00 00 00 00 00 00 00 00 00 00 00 00 00 00 00 00 00 00 00 00 00 00 00 00 00 00 00 00 00 00 00 00 00 00 00 00 00 00 00 00 00 00 00 00 00 00 00 00 00 00 00 00 00 00 00 00 00 00 00 00 00 00 00 00 00 00 00 00 00 00 00 00 00 00 00 00 00 00 00 00 00 00 00 00 00 00 00 00 00 00 00 00 00 00 00 00 00 00 00 00 00 00 00 00 00 00 00 00 00 00 00 00 00 00 00 00 00 00 00 00 00 00 00 00 00 00 00 00 00 00 00 00 00 00 00
CDCD  D0 20     BNE $CDEF                       A:84 X:69 Y:33 P:67 SP:69 STACK: 00 00 C6 08 CB DC 00 00 00 00 00 00 00 00 00 00 00 00 00 00 00 00 00 00 00 00 00 00 00 00 00 00 00 00 00 00 00 00 00 00 00 00 00 00 00 00 00 00 00 00 00 00 00 00 00 00 00 00 00 00 00 00 00 00 00 00 00 00 00 00 00 00 00 00 00 00 00 00 00 00 00 00 00 00 00 00 00 00 00 00 00 00 00 00 00 00 00 00 00 00 00 00 00 00 00 00 00 00 00 00 00 00 00 00 00 00 00 00 00 00 00 00 00 00 00 00 00 00 00 00 00 00 00 00 00 00 00 00 00 00 00 00 00 00 00 00 00 00 00 00
CDCF  A0 01     LDY #$01                        A:84 X:69 Y:33 P:67 SP:69 STACK: 00 00 C6 08 CB DC 00 00 00 00 00 00 00 00 00 00 00 00 00 00 00 00 00 00 00 00 00 00 00 00 00 00 00 00 00 00 00 00 00 00 00 00 00 00 00 00 00 00 00 00 00 00 00 00 00 00 00 00 00 00 00 00 00 00 00 00 00 00 00 00 00 00 00 00 00 00 00 00 00 00 00 00 00 00 00 00 00 00 00 00 00 00 00 00 00 00 00 00 00 00 00 00 00 00 00 00 00 00 00 00 00 00 00 00 00 00 00 00 00 00 00 00 00 00 00 00 00 00 00 00 00 00 00 00 00 00 00 00 00 00 00 00 00 00 00 00 00 00 00 00
CDD1  A9 04     LDA #$04                        A:84 X:69 Y:01 P:65 SP:69 STACK: 00 00 C6 08 CB DC 00 00 00 00 00 00 00 00 00 00 00 00 00 00 00 00 00 00 00 00 00 00 00 00 00 00 00 00 00 00 00 00 00 00 00 00 00 00 00 00 00 00 00 00 00 00 00 00 00 00 00 00 00 00 00 00 00 00 00 00 00 00 00 00 00 00 00 00 00 00 00 00 00 00 00 00 00 00 00 00 00 00 00 00 00 00 00 00 00 00 00 00 00 00 00 00 00 00 00 00 00 00 00 00 00 00 00 00 00 00 00 00 00 00 00 00 00 00 00 00 00 00 00 00 00 00 00 00 00 00 00 00 00 00 00 00 00 00 00 00 00 00 00 00
CDD3  38        SEC                             A:04 X:69 Y:01 P:65 SP:69 STACK: 00 00 C6 08 CB DC 00 00 00 00 00 00 00 00 00 00 00 00 00 00 00 00 00 00 00 00 00 00 00 00 00 00 00 00 00 00 00 00 00 00 00 00 00 00 00 00 00 00 00 00 00 00 00 00 00 00 00 00 00 00 00 00 00 00 00 00 00 00 00 00 00 00 00 00 00 00 00 00 00 00 00 00 00 00 00 00 00 00 00 00 00 00 00 00 00 00 00 00 00 00 00 00 00 00 00 00 00 00 00 00 00 00 00 00 00 00 00 00 00 00 00 00 00 00 00 00 00 00 00 00 00 00 00 00 00 00 00 00 00 00 00 00 00 00 00 00 00 00 00 00
CDD4  B8        CLV                             A:04 X:69 Y:01 P:65 SP:69 STACK: 00 00 C6 08 CB DC 00 00 00 00 00 00 00 00 00 00 00 00 00 00 00 00 00 00 00 00 00 00 00 00 00 00 00 00 00 00 00 00 00 00 00 00 00 00 00 00 00 00 00 00 00 00 00 00 00 00 00 00 00 00 00 00 00 00 00 00 00 00 00 00 00 00 00 00 00 00 00 00 00 00 00 00 00 00 00 00 00 00 00 00 00 00 00 00 00 00 00 00 00 00 00 00 00 00 00 00 00 00 00 00 00 00 00 00 00 00 00 00 00 00 00 00 00 00 00 00 00 00 00 00 00 00 00 00 00 00 00 00 00 00 00 00 00 00 00 00 00 00 00 00
CDD5  A2 00     LDX #$00                        A:04 X:69 Y:01 P:25 SP:69 STACK: 00 00 C6 08 CB DC 00 00 00 00 00 00 00 00 00 00 00 00 00 00 00 00 00 00 00 00 00 00 00 00 00 00 00 00 00 00 00 00 00 00 00 00 00 00 00 00 00 00 00 00 00 00 00 00 00 00 00 00 00 00 00 00 00 00 00 00 00 00 00 00 00 00 00 00 00 00 00 00 00 00 00 00 00 00 00 00 00 00 00 00 00 00 00 00 00 00 00 00 00 00 00 00 00 00 00 00 00 00 00 00 00 00 00 00 00 00 00 00 00 00 00 00 00 00 00 00 00 00 00 00 00 00 00 00 00 00 00 00 00 00 00 00 00 00 00 00 00 00 00 00
CDD7  BA        TSX                             A:04 X:00 Y:01 P:27 SP:69 STACK: 00 00 C6 08 CB DC 00 00 00 00 00 00 00 00 00 00 00 00 00 00 00 00 00 00 00 00 00 00 00 00 00 00 00 00 00 00 00 00 00 00 00 00 00 00 00 00 00 00 00 00 00 00 00 00 00 00 00 00 00 00 00 00 00 00 00 00 00 00 00 00 00 00 00 00 00 00 00 00 00 00 00 00 00 00 00 00 00 00 00 00 00 00 00 00 00 00 00 00 00 00 00 00 00 00 00 00 00 00 00 00 00 00 00 00 00 00 00 00 00 00 00 00 00 00 00 00 00 00 00 00 00 00 00 00 00 00 00 00 00 00 00 00 00 00 00 00 00 00 00 00
CDD8  F0 15     BEQ $CDEF                       A:04 X:69 Y:01 P:25 SP:69 STACK: 00 00 C6 08 CB DC 00 00 00 00 00 00 00 00 00 00 00 00 00 00 00 00 00 00 00 00 00 00 00 00 00 00 00 00 00 00 00 00 00 00 00 00 00 00 00 00 00 00 00 00 00 00 00 00 00 00 00 00 00 00 00 00 00 00 00 00 00 00 00 00 00 00 00 00 00 00 00 00 00 00 00 00 00 00 00 00 00 00 00 00 00 00 00 00 00 00 00 00 00 00 00 00 00 00 00 00 00 00 00 00 00 00 00 00 00 00 00 00 00 00 00 00 00 00 00 00 00 00 00 00 00 00 00 00 00 00 00 00 00 00 00 00 00 00 00 00 00 00 00 00
CDDA  30 13     BMI $CDEF                       A:04 X:69 Y:01 P:25 SP:69 STACK: 00 00 C6 08 CB DC 00 00 00 00 00 00 00 00 00 00 00 00 00 00 00 00 00 00 00 00 00 00 00 00 00 00 00 00 00 00 00 00 00 00 00 00 00 00 00 00 00 00 00 00 00 00 00 00 00 00 00 00 00 00 00 00 00 00 00 00 00 00 00 00 00 00 00 00 00 00 00 00 00 00 00 00 00 00 00 00 00 00 00 00 00 00 00 00 00 00 00 00 00 00 00 00 00 00 00 00 00 00 00 00 00 00 00 00 00 00 00 00 00 00 00 00 00 00 00 00 00 00 00 00 00 00 00 00 00 00 00 00 00 00 00 00 00 00 00 00 00 00 00 00
CDDC  90 11     BCC $CDEF                       A:04 X:69 Y:01 P:25 SP:69 STACK: 00 00 C6 08 CB DC 00 00 00 00 00 00 00 00 00 00 00 00 00 00 00 00 00 00 00 00 00 00 00 00 00 00 00 00 00 00 00 00 00 00 00 00 00 00 00 00 00 00 00 00 00 00 00 00 00 00 00 00 00 00 00 00 00 00 00 00 00 00 00 00 00 00 00 00 00 00 00 00 00 00 00 00 00 00 00 00 00 00 00 00 00 00 00 00 00 00 00 00 00 00 00 00 00 00 00 00 00 00 00 00 00 00 00 00 00 00 00 00 00 00 00 00 00 00 00 00 00 00 00 00 00 00 00 00 00 00 00 00 00 00 00 00 00 00 00 00 00 00 00 00
CDDE  70 0F     BVS $CDEF                       A:04 X:69 Y:01 P:25 SP:69 STACK: 00 00 C6 08 CB DC 00 00 00 00 00 00 00 00 00 00 00 00 00 00 00 00 00 00 00 00 00 00 00 00 00 00 00 00 00 00 00 00 00 00 00 00 00 00 00 00 00 00 00 00 00 00 00 00 00 00 00 00 00 00 00 00 00 00 00 00 00 00 00 00 00 00 00 00 00 00 00 00 00 00 00 00 00 00 00 00 00 00 00 00 00 00 00 00 00 00 00 00 00 00 00 00 00 00 00 00 00 00 00 00 00 00 00 00 00 00 00 00 00 00 00 00 00 00 00 00 00 00 00 00 00 00 00 00 00 00 00 00 00 00 00 00 00 00 00 00 00 00 00 00
CDE0  E0 69     CPX #$69                        A:04 X:69 Y:01 P:25 SP:69 STACK: 00 00 C6 08 CB DC 00 00 00 00 00 00 00 00 00 00 00 00 00 00 00 00 00 00 00 00 00 00 00 00 00 00 00 00 00 00 00 00 00 00 00 00 00 00 00 00 00 00 00 00 00 00 00 00 00 00 00 00 00 00 00 00 00 00 00 00 00 00 00 00 00 00 00 00 00 00 00 00 00 00 00 00 00 00 00 00 00 00 00 00 00 00 00 00 00 00 00 00 00 00 00 00 00 00 00 00 00 00 00 00 00 00 00 00 00 00 00 00 00 00 00 00 00 00 00 00 00 00 00 00 00 00 00 00 00 00 00 00 00 00 00 00 00 00 00 00 00 00 00 00
CDE2  D0 0B     BNE $CDEF                       A:04 X:69 Y:01 P:27 SP:69 STACK: 00 00 C6 08 CB DC 00 00 00 00 00 00 00 00 00 00 00 00 00 00 00 00 00 00 00 00 00 00 00 00 00 00 00 00 00 00 00 00 00 00 00 00 00 00 00 00 00 00 00 00 00 00 00 00 00 00 00 00 00 00 00 00 00 00 00 00 00 00 00 00 00 00 00 00 00 00 00 00 00 00 00 00 00 00 00 00 00 00 00 00 00 00 00 00 00 00 00 00 00 00 00 00 00 00 00 00 00 00 00 00 00 00 00 00 00 00 00 00 00 00 00 00 00 00 00 00 00 00 00 00 00 00 00 00 00 00 00 00 00 00 00 00 00 00 00 00 00 00 00 00
CDE4  C9 04     CMP #$04                        A:04 X:69 Y:01 P:27 SP:69 STACK: 00 00 C6 08 CB DC 00 00 00 00 00 00 00 00 00 00 00 00 00 00 00 00 00 00 00 00 00 00 00 00 00 00 00 00 00 00 00 00 00 00 00 00 00 00 00 00 00 00 00 00 00 00 00 00 00 00 00 00 00 00 00 00 00 00 00 00 00 00 00 00 00 00 00 00 00 00 00 00 00 00 00 00 00 00 00 00 00 00 00 00 00 00 00 00 00 00 00 00 00 00 00 00 00 00 00 00 00 00 00 00 00 00 00 00 00 00 00 00 00 00 00 00 00 00 00 00 00 00 00 00 00 00 00 00 00 00 00 00 00 00 00 00 00 00 00 00 00 00 00 00
CDE6  D0 07     BNE $CDEF                       A:04 X:69 Y:01 P:27 SP:69 STACK: 00 00 C6 08 CB DC 00 00 00 00 00 00 00 00 00 00 00 00 00 00 00 00 00 00 00 00 00 00 00 00 00 00 00 00 00 00 00 00 00 00 00 00 00 00 00 00 00 00 00 00 00 00 00 00 00 00 00 00 00 00 00 00 00 00 00 00 00 00 00 00 00 00 00 00 00 00 00 00 00 00 00 00 00 00 00 00 00 00 00 00 00 00 00 00 00 00 00 00 00 00 00 00 00 00 00 00 00 00 00 00 00 00 00 00 00 00 00 00 00 00 00 00 00 00 00 00 00 00 00 00 00 00 00 00 00 00 00 00 00 00 00 00 00 00 00 00 00 00 00 00
CDE8  C0 01     CPY #$01                        A:04 X:69 Y:01 P:27 SP:69 STACK: 00 00 C6 08 CB DC 00 00 00 00 00 00 00 00 00 00 00 00 00 00 00 00 00 00 00 00 00 00 00 00 00 00 00 00 00 00 00 00 00 00 00 00 00 00 00 00 00 00 00 00 00 00 00 00 00 00 00 00 00 00 00 00 00 00 00 00 00 00 00 00 00 00 00 00 00 00 00 00 00 00 00 00 00 00 00 00 00 00 00 00 00 00 00 00 00 00 00 00 00 00 00 00 00 00 00 00 00 00 00 00 00 00 00 00 00 00 00 00 00 00 00 00 00 00 00 00 00 00 00 00 00 00 00 00 00 00 00 00 00 00 00 00 00 00 00 00 00 00 00 00
CDEA  D0 03     BNE $CDEF                       A:04 X:69 Y:01 P:27 SP:69 STACK: 00 00 C6 08 CB DC 00 00 00 00 00 00 00 00 00 00 00 00 00 00 00 00 00 00 00 00 00 00 00 00 00 00 00 00 00 00 00 00 00 00 00 00 00 00 00 00 00 00 00 00 00 00 00 00 00 00 00 00 00 00 00 00 00 00 00 00 00 00 00 00 00 00 00 00 00 00 00 00 00 00 00 00 00 00 00 00 00 00 00 00 00 00 00 00 00 00 00 00 00 00 00 00 00 00 00 00 00 00 00 00 00 00 00 00 00 00 00 00 00 00 00 00 00 00 00 00 00 00 00 00 00 00 00 00 00 00 00 00 00 00 00 00 00 00 00 00 00 00 00 00
CDEC  4C F3 CD  JMP $CDF3                       A:04 X:69 Y:01 P:27 SP:69 STACK: 00 00 C6 08 CB DC 00 00 00 00 00 00 00 00 00 00 00 00 00 00 00 00 00 00 00 00 00 00 00 00 00 00 00 00 00 00 00 00 00 00 00 00 00 00 00 00 00 00 00 00 00 00 00 00 00 00 00 00 00 00 00 00 00 00 00 00 00 00 00 00 00 00 00 00 00 00 00 00 00 00 00 00 00 00 00 00 00 00 00 00 00 00 00 00 00 00 00 00 00 00 00 00 00 00 00 00 00 00 00 00 00 00 00 00 00 00 00 00 00 00 00 00 00 00 00 00 00 00 00 00 00 00 00 00 00 00 00 00 00 00 00 00 00 00 00 00 00 00 00 00
CDF3  AE FF 07  LDX $07FF = FB                  A:04 X:69 Y:01 P:27 SP:69 STACK: 00 00 C6 08 CB DC 00 00 00 00 00 00 00 00 00 00 00 00 00 00 00 00 00 00 00 00 00 00 00 00 00 00 00 00 00 00 00 00 00 00 00 00 00 00 00 00 00 00 00 00 00 00 00 00 00 00 00 00 00 00 00 00 00 00 00 00 00 00 00 00 00 00 00 00 00 00 00 00 00 00 00 00 00 00 00 00 00 00 00 00 00 00 00 00 00 00 00 00 00 00 00 00 00 00 00 00 00 00 00 00 00 00 00 00 00 00 00 00 00 00 00 00 00 00 00 00 00 00 00 00 00 00 00 00 00 00 00 00 00 00 00 00 00 00 00 00 00 00 00 00
CDF6  9A        TXS                             A:04 X:FB Y:01 P:A5 SP:69 STACK: 00 00 C6 08 CB DC 00 00 00 00 00 00 00 00 00 00 00 00 00 00 00 00 00 00 00 00 00 00 00 00 00 00 00 00 00 00 00 00 00 00 00 00 00 00 00 00 00 00 00 00 00 00 00 00 00 00 00 00 00 00 00 00 00 00 00 00 00 00 00 00 00 00 00 00 00 00 00 00 00 00 00 00 00 00 00 00 00 00 00 00 00 00 00 00 00 00 00 00 00 00 00 00 00 00 00 00 00 00 00 00 00 00 00 00 00 00 00 00 00 00 00 00 00 00 00 00 00 00 00 00 00 00 00 00 00 00 00 00 00 00 00 00 00 00 00 00 00 00 00 00
CDF7  60        RTS                             A:04 X:FB Y:01 P:A5 SP:FB STACK: 00 00 C6 08
C609  20 F8 CD  JSR $CDF8                       A:04 X:FB Y:01 P:A5 SP:FD STACK: 00 00
CDF8  A9 FF     LDA #$FF                        A:04 X:FB Y:01 P:A5 SP:FB STACK: 00 00 C6 0B
CDFA  85 01     STA $01 = FF                    A:FF X:FB Y:01 P:A5 SP:FB STACK: 00 00 C6 0B
CDFC  BA        TSX                             A:FF X:FB Y:01 P:A5 SP:FB STACK: 00 00 C6 0B
CDFD  8E FF 07  STX $07FF = FB                  A:FF X:FB Y:01 P:A5 SP:FB STACK: 00 00 C6 0B
CE00  EA        NOP                             A:FF X:FB Y:01 P:A5 SP:FB STACK: 00 00 C6 0B
CE01  A2 80     LDX #$80                        A:FF X:FB Y:01 P:A5 SP:FB STACK: 00 00 C6 0B
CE03  9A        TXS                             A:FF X:80 Y:01 P:A5 SP:FB STACK: 00 00 C6 0B
CE04  A9 33     LDA #$33                        A:FF X:80 Y:01 P:A5 SP:80 STACK: 00 00 C6 0B CB DC 00 00 00 00 00 00 00 00 00 00 00 00 00 00 00 00 00 00 00 00 00 00 00 00 00 00 00 00 00 00 00 00 00 00 00 00 00 00 00 00 00 00 00 00 00 00 00 00 00 00 00 00 00 00 00 00 00 00 00 00 00 00 00 00 00 00 00 00 00 00 00 00 00 00 00 00 00 00 00 00 00 00 00 00 00 00 00 00 00 00 00 00 00 00 00 00 00 00 00 00 00 00 00 00 00 00 00 00 00 00 00 00 00 00 00 00 00 00 00 00 00
CE06  48        PHA                             A:33 X:80 Y:01 P:25 SP:80 STACK: 00 00 C6 0B CB DC 00 00 00 00 00 00 00 00 00 00 00 00 00 00 00 00 00 00 00 00 00 00 00 00 00 00 00 00 00 00 00 00 00 00 00 00 00 00 00 00 00 00 00 00 00 00 00 00 00 00 00 00 00 00 00 00 00 00 00 00 00 00 00 00 00 00 00 00 00 00 00 00 00 00 00 00 00 00 00 00 00 00 00 00 00 00 00 00 00 00 00 00 00 00 00 00 00 00 00 00 00 00 00 00 00 00 00 00 00 00 00 00 00 00 00 00 00 00 00 00 00
CE07  A9 69     LDA #$69                        A:33 X:80 Y:01 P:25 SP:7F STACK: 00 00 C6 0B CB DC 00 00 00 00 00 00 00 00 00 00 00 00 00 00 00 00 00 00 00 00 00 00 00 00 00 00 00 00 00 00 00 00 00 00 00 00 00 00 00 00 00 00 00 00 00 00 00 00 00 00 00 00 00 00 00 00 00 00 00 00 00 00 00 00 00 00 00 00 00 00 00 00 00 00 00 00 00 00 00 00 00 00 00 00 00 00 00 00 00 00 00 00 00 00 00 00 00 00 00 00 00 00 00 00 00 00 00 00 00 00 00 00 00 00 00 00 00 00 00 00 00 33
CE09  48        PHA                             A:69 X:80 Y:01 P:25 SP:7F STACK: 00 00 C6 0B CB DC 00 00 00 00 00 00 00 00 00 00 00 00 00 00 00 00 00 00 00 00 00 00 00 00 00 00 00 00 00 00 00 00 00 00 00 00 00 00 00 00 00 00 00 00 00 00 00 00 00 00 00 00 00 00 00 00 00 00 00 00 00 00 00 00 00 00 00 00 00 00 00 00 00 00 00 00 00 00 00 00 00 00 00 00 00 00 00 00 00 00 00 00 00 00 00 00 00 00 00 00 00 00 00 00 00 00 00 00 00 00 00 00 00 00 00 00 00 00 00 00 00 33
CE0A  BA        TSX                             A:69 X:80 Y:01 P:25 SP:7E STACK: 00 00 C6 0B CB DC 00 00 00 00 00 00 00 00 00 00 00 00 00 00 00 00 00 00 00 00 00 00 00 00 00 00 00 00 00 00 00 00 00 00 00 00 00 00 00 00 00 00 00 00 00 00 00 00 00 00 00 00 00 00 00 00 00 00 00 00 00 00 00 00 00 00 00 00 00 00 00 00 00 00 00 00 00 00 00 00 00 00 00 00 00 00 00 00 00 00 00 00 00 00 00 00 00 00 00 00 00 00 00 00 00 00 00 00 00 00 00 00 00 00 00 00 00 00 00 00 00 33 69
CE0B  E0 7E     CPX #$7E                        A:69 X:7E Y:01 P:25 SP:7E STACK: 00 00 C6 0B CB DC 00 00 00 00 00 00 00 00 00 00 00 00 00 00 00 00 00 00 00 00 00 00 00 00 00 00 00 00 00 00 00 00 00 00 00 00 00 00 00 00 00 00 00 00 00 00 00 00 00 00 00 00 00 00 00 00 00 00 00 00 00 00 00 00 00 00 00 00 00 00 00 00 00 00 00 00 00 00 00 00 00 00 00 00 00 00 00 00 00 00 00 00 00 00 00 00 00 00 00 00 00 00 00 00 00 00 00 00 00 00 00 00 00 00 00 00 00 00 00 00 00 33 69
CE0D  D0 20     BNE $CE2F                       A:69 X:7E Y:01 P:27 SP:7E STACK: 00 00 C6 0B CB DC 00 00 00 00 00 00 00 00 00 00 00 00 00 00 00 00 00 00 00 00 00 00 00 00 00 00 00 00 00 00 00 00 00 00 00 00 00 00 00 00 00 00 00 00 00 00 00 00 00 00 00 00 00 00 00 00 00 00 00 00 00 00 00 00 00 00 00 00 00 00 00 00 00 00 00 00 00 00 00 00 00 00 00 00 00 00 00 00 00 00 00 00 00 00 00 00 00 00 00 00 00 00 00 00 00 00 00 00 00 00 00 00 00 00 00 00 00 00 00 00 00 33 69
CE0F  68        PLA                             A:69 X:7E Y:01 P:27 SP:7E STACK: 00 00 C6 0B CB DC 00 00 00 00 00 00 00 00 00 00 00 00 00 00 00 00 00 00 00 00 00 00 00 00 00 00 00 00 00 00 00 00 00 00 00 00 00 00 00 00 00 00 00 00 00 00 00 00 00 00 00 00 00 00 00 00 00 00 00 00 00 00 00 00 00 00 00 00 00 00 00 00 00 00 00 00 00 00 00 00 00 00 00 00 00 00 00 00 00 00 00 00 00 00 00 00 00 00 00 00 00 00 00 00 00 00 00 00 00 00 00 00 00 00 00 00 00 00 00 00 00 33 69
CE10  C9 69     CMP #$69                        A:69 X:7E Y:01 P:25 SP:7F STACK: 00 00 C6 0B CB DC 00 00 00 00 00 00 00 00 00 00 00 00 00 00 00 00 00 00 00 00 00 00 00 00 00 00 00 00 00 00 00 00 00 00 00 00 00 00 00 00 00 00 00 00 00 00 00 00 00 00 00 00 00 00 00 00 00 00 00 00 00 00 00 00 00 00 00 00 00 00 00 00 00 00 00 00 00 00 00 00 00 00 00 00 00 00 00 00 00 00 00 00 00 00 00 00 00 00 00 00 00 00 00 00 00 00 00 00 00 00 00 00 00 00 00 00 00 00 00 00 00 33
CE12  D0 1B     BNE $CE2F                       A:69 X:7E Y:01 P:27 SP:7F STACK: 00 00 C6 0B CB DC 00 00 00 00 00 00 00 00 00 00 00 00 00 00 00 00 00 00 00 00 00 00 00 00 00 00 00 00 00 00 00 00 00 00 00 00 00 00 00 00 00 00 00 00 00 00 00 00 00 00 00 00 00 00 00 00 00 00 00 00 00 00 00 00 00 00 00 00 00 00 00 00 00 00 00 00 00 00 00 00 00 00 00 00 00 00 00 00 00 00 00 00 00 00 00 00 00 00 00 00 00 00 00 00 00 00 00 00 00 00 00 00 00 00 00 00 00 00 00 00 00 33
CE14  68        PLA                             A:69 X:7E Y:01 P:27 SP:7F STACK: 00 00 C6 0B CB DC 00 00 00 00 00 00 00 00 00 00 00 00 00 00 00 00 00 00 00 00 00 00 00 00 00 00 00 00 00 00 00 00 00 00 00 00 00 00 00 00 00 00 00 00 00 00 00 00 00 00 00 00 00 00 00 00 00 00 00 00 00 00 00 00 00 00 00 00 00 00 00 00 00 00 00 00 00 00 00 00 00 00 00 00 00 00 00 00 00 00 00 00 00 00 00 00 00 00 00 00 00 00 00 00 00 00 00 00 00 00 00 00 00 00 00 00 00 00 00 00 00 33
CE15  C9 33     CMP #$33                        A:33 X:7E Y:01 P:25 SP:80 STACK: 00 00 C6 0B CB DC 00 00 00 00 00 00 00 00 00 00 00 00 00 00 00 00 00 00 00 00 00 00 00 00 00 00 00 00 00 00 00 00 00 00 00 00 00 00 00 00 00 00 00 00 00 00 00 00 00 00 00 00 00 00 00 00 00 00 00 00 00 00 00 00 00 00 00 00 00 00 00 00 00 00 00 00 00 00 00 00 00 00 00 00 00 00 00 00 00 00 00 00 00 00 00 00 00 00 00 00 00 00 00 00 00 00 00 00 00 00 00 00 00 00 00 00 00 00 00 00 00
CE17  D0 16     BNE $CE2F                       A:33 X:7E Y:01 P:27 SP:80 STACK: 00 00 C6 0B CB DC 00 00 00 00 00 00 00 00 00 00 00 00 00 00 00 00 00 00 00 00 00 00 00 00 00 00 00 00 00 00 00 00 00 00 00 00 00 00 00 00 00 00 00 00 00 00 00 00 00 00 00 00 00 00 00 00 00 00 00 00 00 00 00 00 00 00 00 00 00 00 00 00 00 00 00 00 00 00 00 00 00 00 00 00 00 00 00 00 00 00 00 00 00 00 00 00 00 00 00 00 00 00 00 00 00 00 00 00 00 00 00 00 00 00 00 00 00 00 00 00 00
CE19  BA        TSX                             A:33 X:7E Y:01 P:27 SP:80 STACK: 00 00 C6 0B CB DC 00 00 00 00 00 00 00 00 00 00 00 00 00 00 00 00 00 00 00 00 00 00 00 00 00 00 00 00 00 00 00 00 00 00 00 00 00 00 00 00 00 00 00 00 00 00 00 00 00 00 00 00 00 00 00 00 00 00 00 00 00 00 00 00 00 00 00 00 00 00 00 00 00 00 00 00 00 00 00 00 00 00 00 00 00 00 00 00 00 00 00 00 00 00 00 00 00 00 00 00 00 00 00 00 00 00 00 00 00 00 00 00 00 00 00 00 00 00 00 00 00
CE1A  E0 80     CPX #$80                        A:33 X:80 Y:01 P:A5 SP:80 STACK: 00 00 C6 0B CB DC 00 00 00 00 00 00 00 00 00 00 00 00 00 00 00 00 00 00 00 00 00 00 00 00 00 00 00 00 00 00 00 00 00 00 00 00 00 00 00 00 00 00 00 00 00 00 00 00 00 00 00 00 00 00 00 00 00 00 00 00 00 00 00 00 00 00 00 00 00 00 00 00 00 00 00 00 00 00 00 00 00 00 00 00 00 00 00 00 00 00 00 00 00 00 00 00 00 00 00 00 00 00 00 00 00 00 00 00 00 00 00 00 00 00 00 00 00 00 00 00 00
CE1C  D0 11     BNE $CE2F                       A:33 X:80 Y:01 P:27 SP:80 STACK: 00 00 C6 0B CB DC 00 00 00 00 00 00 00 00 00 00 00 00 00 00 00 00 00 00 00 00 00 00 00 00 00 00 00 00 00 00 00 00 00 00 00 00 00 00 00 00 00 00 00 00 00 00 00 00 00 00 00 00 00 00 00 00 00 00 00 00 00 00 00 00 00 00 00 00 00 00 00 00 00 00 00 00 00 00 00 00 00 00 00 00 00 00 00 00 00 00 00 00 00 00 00 00 00 00 00 00 00 00 00 00 00 00 00 00 00 00 00 00 00 00 00 00 00 00 00 00 00
CE1E  AD 80 01  LDA $0180 = 33                  A:33 X:80 Y:01 P:27 SP:80 STACK: 00 00 C6 0B CB DC 00 00 00 00 00 00 00 00 00 00 00 00 00 00 00 00 00 00 00 00 00 00 00 00 00 00 00 00 00 00 00 00 00 00 00 00 00 00 00 00 00 00 00 00 00 00 00 00 00 00 00 00 00 00 00 00 00 00 00 00 00 00 00 00 00 00 00 00 00 00 00 00 00 00 00 00 00 00 00 00 00 00 00 00 00 00 00 00 00 00 00 00 00 00 00 00 00 00 00 00 00 00 00 00 00 00 00 00 00 00 00 00 00 00 00 00 00 00 00 00 00
CE21  C9 33     CMP #$33                        A:33 X:80 Y:01 P:25 SP:80 STACK: 00 00 C6 0B CB DC 00 00 00 00 00 00 00 00 00 00 00 00 00 00 00 00 00 00 00 00 00 00 00 00 00 00 00 00 00 00 00 00 00 00 00 00 00 00 00 00 00 00 00 00 00 00 00 00 00 00 00 00 00 00 00 00 00 00 00 00 00 00 00 00 00 00 00 00 00 00 00 00 00 00 00 00 00 00 00 00 00 00 00 00 00 00 00 00 00 00 00 00 00 00 00 00 00 00 00 00 00 00 00 00 00 00 00 00 00 00 00 00 00 00 00 00 00 00 00 00 00
CE23  D0 0A     BNE $CE2F                       A:33 X:80 Y:01 P:27 SP:80 STACK: 00 00 C6 0B CB DC 00 00 00 00 00 00 00 00 00 00 00 00 00 00 00 00 00 00 00 00 00 00 00 00 00 00 00 00 00 00 00 00 00 00 00 00 00 00 00 00 00 00 00 00 00 00 00 00 00 00 00 00 00 00 00 00 00 00 00 00 00 00 00 00 00 00 00 00 00 00 00 00 00 00 00 00 00 00 00 00 00 00 00 00 00 00 00 00 00 00 00 00 00 00 00 00 00 00 00 00 00 00 00 00 00 00 00 00 00 00 00 00 00 00 00 00 00 00 00 00 00
CE25  AD 7F 01  LDA $017F = 69                  A:33 X:80 Y:01 P:27 SP:80 STACK: 00 00 C6 0B CB DC 00 00 00 00 00 00 00 00 00 00 00 00 00 00 00 00 00 00 00 00 00 00 00 00 00 00 00 00 00 00 00 00 00 00 00 00 00 00 00 00 00 00 00 00 00 00 00 00 00 00 00 00 00 00 00 00 00 00 00 00 00 00 00 00 00 00 00 00 00 00 00 00 00 00 00 00 00 00 00 00 00 00 00 00 00 00 00 00 00 00 00 00 00 00 00 00 00 00 00 00 00 00 00 00 00 00 00 00 00 00 00 00 00 00 00 00 00 00 00 00 00
CE28  C9 69     CMP #$69                        A:69 X:80 Y:01 P:25 SP:80 STACK: 00 00 C6 0B CB DC 00 00 00 00 00 00 00 00 00 00 00 00 00 00 00 00 00 00 00 00 00 00 00 00 00 00 00 00 00 00 00 00 00 00 00 00 00 00 00 00 00 00 00 00 00 00 00 00 00 00 00 00 00 00 00 00 00 00 00 00 00 00 00 00 00 00 00 00 00 00 00 00 00 00 00 00 00 00 00 00 00 00 00 00 00 00 00 00 00 00 00 00 00 00 00 00 00 00 00 00 00 00 00 00 00 00 00 00 00 00 00 00 00 00 00 00 00 00 00 00 00
CE2A  D0 03     BNE $CE2F                       A:69 X:80 Y:01 P:27 SP:80 STACK: 00 00 C6 0B CB DC 00 00 00 00 00 00 00 00 00 00 00 00 00 00 00 00 00 00 00 00 00 00 00 00 00 00 00 00 00 00 00 00 00 00 00 00 00 00 00 00 00 00 00 00 00 00 00 00 00 00 00 00 00 00 00 00 00 00 00 00 00 00 00 00 00 00 00 00 00 00 00 00 00 00 00 00 00 00 00 00 00 00 00 00 00 00 00 00 00 00 00 00 00 00 00 00 00 00 00 00 00 00 00 00 00 00 00 00 00 00 00 00 00 00 00 00 00 00 00 00 00
CE2C  4C 33 CE  JMP $CE33                       A:69 X:80 Y:01 P:27 SP:80 STACK: 00 00 C6 0B CB DC 00 00 00 00 00 00 00 00 00 00 00 00 00 00 00 00 00 00 00 00 00 00 00 00 00 00 00 00 00 00 00 00 00 00 00 00 00 00 00 00 00 00 00 00 00 00 00 00 00 00 00 00 00 00 00 00 00 00 00 00 00 00 00 00 00 00 00 00 00 00 00 00 00 00 00 00 00 00 00 00 00 00 00 00 00 00 00 00 00 00 00 00 00 00 00 00 00 00 00 00 00 00 00 00 00 00 00 00 00 00 00 00 00 00 00 00 00 00 00 00 00
CE33  EA        NOP                             A:69 X:80 Y:01 P:27 SP:80 STACK: 00 00 C6 0B CB DC 00 00 00 00 00 00 00 00 00 00 00 00 00 00 00 00 00 00 00 00 00 00 00 00 00 00 00 00 00 00 00 00 00 00 00 00 00 00 00 00 00 00 00 00 00 00 00 00 00 00 00 00 00 00 00 00 00 00 00 00 00 00 00 00 00 00 00 00 00 00 00 00 00 00 00 00 00 00 00 00 00 00 00 00 00 00 00 00 00 00 00 00 00 00 00 00 00 00 00 00 00 00 00 00 00 00 00 00 00 00 00 00 00 00 00 00 00 00 00 00 00
CE34  A2 80     LDX #$80                        A:69 X:80 Y:01 P:27 SP:80 STACK: 00 00 C6 0B CB DC 00 00 00 00 00 00 00 00 00 00 00 00 00 00 00 00 00 00 00 00 00 00 00 00 00 00 00 00 00 00 00 00 00 00 00 00 00 00 00 00 00 00 00 00 00 00 00 00 00 00 00 00 00 00 00 00 00 00 00 00 00 00 00 00 00 00 00 00 00 00 00 00 00 00 00 00 00 00 00 00 00 00 00 00 00 00 00 00 00 00 00 00 00 00 00 00 00 00 00 00 00 00 00 00 00 00 00 00 00 00 00 00 00 00 00 00 00 00 00 00 00
CE36  9A        TXS                             A:69 X:80 Y:01 P:A5 SP:80 STACK: 00 00 C6 0B CB DC 00 00 00 00 00 00 00 00 00 00 00 00 00 00 00 00 00 00 00 00 00 00 00 00 00 00 00 00 00 00 00 00 00 00 00 00 00 00 00 00 00 00 00 00 00 00 00 00 00 00 00 00 00 00 00 00 00 00 00 00 00 00 00 00 00 00 00 00 00 00 00 00 00 00 00 00 00 00 00 00 00 00 00 00 00 00 00 00 00 00 00 00 00 00 00 00 00 00 00 00 00 00 00 00 00 00 00 00 00 00 00 00 00 00 00 00 00 00 00 00 00
CE37  20 3D CE  JSR $CE3D                       A:69 X:80 Y:01 P:A5 SP:80 STACK: 00 00 C6 0B CB DC 00 00 00 00 00 00 00 00 00 00 00 00 00 00 00 00 00 00 00 00 00 00 00 00 00 00 00 00 00 00 00 00 00 00 00 00 00 00 00 00 00 00 00 00 00 00 00 00 00 00 00 00 00 00 00 00 00 00 00 00 00 00 00 00 00 00 00 00 00 00 00 00 00 00 00 00 00 00 00 00 00 00 00 00 00 00 00 00 00 00 00 00 00 00 00 00 00 00 00 00 00 00 00 00 00 00 00 00 00 00 00 00 00 00 00 00 00 00 00 00 00
CE3D  BA        TSX                             A:69 X:80 Y:01 P:A5 SP:7E STACK: 00 00 C6 0B CB DC 00 00 00 00 00 00 00 00 00 00 00 00 00 00 00 00 00 00 00 00 00 00 00 00 00 00 00 00 00 00 00 00 00 00 00 00 00 00 00 00 00 00 00 00 00 00 00 00 00 00 00 00 00 00 00 00 00 00 00 00 00 00 00 00 00 00 00 00 00 00 00 00 00 00 00 00 00 00 00 00 00 00 00 00 00 00 00 00 00 00 00 00 00 00 00 00 00 00 00 00 00 00 00 00 00 00 00 00 00 00 00 00 00 00 00 00 00 00 00 00 00 CE 39
CE3E  E0 7E     CPX #$7E                        A:69 X:7E Y:01 P:25 SP:7E STACK: 00 00 C6 0B CB DC 00 00 00 00 00 00 00 00 00 00 00 00 00 00 00 00 00 00 00 00 00 00 00 00 00 00 00 00 00 00 00 00 00 00 00 00 00 00 00 00 00 00 00 00 00 00 00 00 00 00 00 00 00 00 00 00 00 00 00 00 00 00 00 00 00 00 00 00 00 00 00 00 00 00 00 00 00 00 00 00 00 00 00 00 00 00 00 00 00 00 00 00 00 00 00 00 00 00 00 00 00 00 00 00 00 00 00 00 00 00 00 00 00 00 00 00 00 00 00 00 00 CE 39
CE40  D0 19     BNE $CE5B                       A:69 X:7E Y:01 P:27 SP:7E STACK: 00 00 C6 0B CB DC 00 00 00 00 00 00 00 00 00 00 00 00 00 00 00 00 00 00 00 00 00 00 00 00 00 00 00 00 00 00 00 00 00 00 00 00 00 00 00 00 00 00 00 00 00 00 00 00 00 00 00 00 00 00 00 00 00 00 00 00 00 00 00 00 00 00 00 00 00 00 00 00 00 00 00 00 00 00 00 00 00 00 00 00 00 00 00 00 00 00 00 00 00 00 00 00 00 00 00 00 00 00 00 00 00 00 00 00 00 00 00 00 00 00 00 00 00 00 00 00 00 CE 39
CE42  68        PLA                             A:69 X:7E Y:01 P:27 SP:7E STACK: 00 00 C6 0B CB DC 00 00 00 00 00 00 00 00 00 00 00 00 00 00 00 00 00 00 00 00 00 00 00 00 00 00 00 00 00 00 00 00 00 00 00 00 00 00 00 00 00 00 00 00 00 00 00 00 00 00 00 00 00 00 00 00 00 00 00 00 00 00 00 00 00 00 00 00 00 00 00 00 00 00 00 00 00 00 00 00 00 00 00 00 00 00 00 00 00 00 00 00 00 00 00 00 00 00 00 00 00 00 00 00 00 00 00 00 00 00 00 00 00 00 00 00 00 00 00 00 00 CE 39
CE43  68        PLA                             A:39 X:7E Y:01 P:25 SP:7F STACK: 00 00 C6 0B CB DC 00 00 00 00 00 00 00 00 00 00 00 00 00 00 00 00 00 00 00 00 00 00 00 00 00 00 00 00 00 00 00 00 00 00 00 00 00 00 00 00 00 00 00 00 00 00 00 00 00 00 00 00 00 00 00 00 00 00 00 00 00 00 00 00 00 00 00 00 00 00 00 00 00 00 00 00 00 00 00 00 00 00 00 00 00 00 00 00 00 00 00 00 00 00 00 00 00 00 00 00 00 00 00 00 00 00 00 00 00 00 00 00 00 00 00 00 00 00 00 00 00 CE
CE44  BA        TSX                             A:CE X:7E Y:01 P:A5 SP:80 STACK: 00 00 C6 0B CB DC 00 00 00 00 00 00 00 00 00 00 00 00 00 00 00 00 00 00 00 00 00 00 00 00 00 00 00 00 00 00 00 00 00 00 00 00 00 00 00 00 00 00 00 00 00 00 00 00 00 00 00 00 00 00 00 00 00 00 00 00 00 00 00 00 00 00 00 00 00 00 00 00 00 00 00 00 00 00 00 00 00 00 00 00 00 00 00 00 00 00 00 00 00 00 00 00 00 00 00 00 00 00 00 00 00 00 00 00 00 00 00 00 00 00 00 00 00 00 00 00 00
CE45  E0 80     CPX #$80                        A:CE X:80 Y:01 P:A5 SP:80 STACK: 00 00 C6 0B CB DC 00 00 00 00 00 00 00 00 00 00 00 00 00 00 00 00 00 00 00 00 00 00 00 00 00 00 00 00 00 00 00 00 00 00 00 00 00 00 00 00 00 00 00 00 00 00 00 00 00 00 00 00 00 00 00 00 00 00 00 00 00 00 00 00 00 00 00 00 00 00 00 00 00 00 00 00 00 00 00 00 00 00 00 00 00 00 00 00 00 00 00 00 00 00 00 00 00 00 00 00 00 00 00 00 00 00 00 00 00 00 00 00 00 00 00 00 00 00 00 00 00
CE47  D0 12     BNE $CE5B                       A:CE X:80 Y:01 P:27 SP:80 STACK: 00 00 C6 0B CB DC 00 00 00 00 00 00 00 00 00 00 00 00 00 00 00 00 00 00 00 00 00 00 00 00 00 00 00 00 00 00 00 00 00 00 00 00 00 00 00 00 00 00 00 00 00 00 00 00 00 00 00 00 00 00 00 00 00 00 00 00 00 00 00 00 00 00 00 00 00 00 00 00 00 00 00 00 00 00 00 00 00 00 00 00 00 00 00 00 00 00 00 00 00 00 00 00 00 00 00 00 00 00 00 00 00 00 00 00 00 00 00 00 00 00 00 00 00 00 00 00 00
CE49  A9 00     LDA #$00                        A:CE X:80 Y:01 P:27 SP:80 STACK: 00 00 C6 0B CB DC 00 00 00 00 00 00 00 00 00 00 00 00 00 00 00 00 00 00 00 00 00 00 00 00 00 00 00 00 00 00 00 00 00 00 00 00 00 00 00 00 00 00 00 00 00 00 00 00 00 00 00 00 00 00 00 00 00 00 00 00 00 00 00 00 00 00 00 00 00 00 00 00 00 00 00 00 00 00 00 00 00 00 00 00 00 00 00 00 00 00 00 00 00 00 00 00 00 00 00 00 00 00 00 00 00 00 00 00 00 00 00 00 00 00 00 00 00 00 00 00 00
CE4B  20 4E CE  JSR $CE4E                       A:00 X:80 Y:01 P:27 SP:80 STACK: 00 00 C6 0B CB DC 00 00 00 00 00 00 00 00 00 00 00 00 00 00 00 00 00 00 00 00 00 00 00 00 00 00 00 00 00 00 00 00 00 00 00 00 00 00 00 00 00 00 00 00 00 00 00 00 00 00 00 00 00 00 00 00 00 00 00 00 00 00 00 00 00 00 00 00 00 00 00 00 00 00 00 00 00 00 00 00 00 00 00 00 00 00 00 00 00 00 00 00 00 00 00 00 00 00 00 00 00 00 00 00 00 00 00 00 00 00 00 00 00 00 00 00 00 00 00 00 00
CE4E  68        PLA                             A:00 X:80 Y:01 P:27 SP:7E STACK: 00 00 C6 0B CB DC 00 00 00 00 00 00 00 00 00 00 00 00 00 00 00 00 00 00 00 00 00 00 00 00 00 00 00 00 00 00 00 00 00 00 00 00 00 00 00 00 00 00 00 00 00 00 00 00 00 00 00 00 00 00 00 00 00 00 00 00 00 00 00 00 00 00 00 00 00 00 00 00 00 00 00 00 00 00 00 00 00 00 00 00 00 00 00 00 00 00 00 00 00 00 00 00 00 00 00 00 00 00 00 00 00 00 00 00 00 00 00 00 00 00 00 00 00 00 00 00 00 CE 4D
CE4F  C9 4D     CMP #$4D                        A:4D X:80 Y:01 P:25 SP:7F STACK: 00 00 C6 0B CB DC 00 00 00 00 00 00 00 00 00 00 00 00 00 00 00 00 00 00 00 00 00 00 00 00 00 00 00 00 00 00 00 00 00 00 00 00 00 00 00 00 00 00 00 00 00 00 00 00 00 00 00 00 00 00 00 00 00 00 00 00 00 00 00 00 00 00 00 00 00 00 00 00 00 00 00 00 00 00 00 00 00 00 00 00 00 00 00 00 00 00 00 00 00 00 00 00 00 00 00 00 00 00 00 00 00 00 00 00 00 00 00 00 00 00 00 00 00 00 00 00 00 CE
CE51  D0 08     BNE $CE5B                       A:4D X:80 Y:01 P:27 SP:7F STACK: 00 00 C6 0B CB DC 00 00 00 00 00 00 00 00 00 00 00 00 00 00 00 00 00 00 00 00 00 00 00 00 00 00 00 00 00 00 00 00 00 00 00 00 00 00 00 00 00 00 00 00 00 00 00 00 00 00 00 00 00 00 00 00 00 00 00 00 00 00 00 00 00 00 00 00 00 00 00 00 00 00 00 00 00 00 00 00 00 00 00 00 00 00 00 00 00 00 00 00 00 00 00 00 00 00 00 00 00 00 00 00 00 00 00 00 00 00 00 00 00 00 00 00 00 00 00 00 00 CE
CE53  68        PLA                             A:4D X:80 Y:01 P:27 SP:7F STACK: 00 00 C6 0B CB DC 00 00 00 00 00 00 00 00 00 00 00 00 00 00 00 00 00 00 00 00 00 00 00 00 00 00 00 00 00 00 00 00 00 00 00 00 00 00 00 00 00 00 00 00 00 00 00 00 00 00 00 00 00 00 00 00 00 00 00 00 00 00 00 00 00 00 00 00 00 00 00 00 00 00 00 00 00 00 00 00 00 00 00 00 00 00 00 00 00 00 00 00 00 00 00 00 00 00 00 00 00 00 00 00 00 00 00 00 00 00 00 00 00 00 00 00 00 00 00 00 00 CE
CE54  C9 CE     CMP #$CE                        A:CE X:80 Y:01 P:A5 SP:80 STACK: 00 00 C6 0B CB DC 00 00 00 00 00 00 00 00 00 00 00 00 00 00 00 00 00 00 00 00 00 00 00 00 00 00 00 00 00 00 00 00 00 00 00 00 00 00 00 00 00 00 00 00 00 00 00 00 00 00 00 00 00 00 00 00 00 00 00 00 00 00 00 00 00 00 00 00 00 00 00 00 00 00 00 00 00 00 00 00 00 00 00 00 00 00 00 00 00 00 00 00 00 00 00 00 00 00 00 00 00 00 00 00 00 00 00 00 00 00 00 00 00 00 00 00 00 00 00 00 00
CE56  D0 03     BNE $CE5B                       A:CE X:80 Y:01 P:27 SP:80 STACK: 00 00 C6 0B CB DC 00 00 00 00 00 00 00 00 00 00 00 00 00 00 00 00 00 00 00 00 00 00 00 00 00 00 00 00 00 00 00 00 00 00 00 00 00 00 00 00 00 00 00 00 00 00 00 00 00 00 00 00 00 00 00 00 00 00 00 00 00 00 00 00 00 00 00 00 00 00 00 00 00 00 00 00 00 00 00 00 00 00 00 00 00 00 00 00 00 00 00 00 00 00 00 00 00 00 00 00 00 00 00 00 00 00 00 00 00 00 00 00 00 00 00 00 00 00 00 00 00
CE58  4C 5F CE  JMP $CE5F                       A:CE X:80 Y:01 P:27 SP:80 STACK: 00 00 C6 0B CB DC 00 00 00 00 00 00 00 00 00 00 00 00 00 00 00 00 00 00 00 00 00 00 00 00 00 00 00 00 00 00 00 00 00 00 00 00 00 00 00 00 00 00 00 00 00 00 00 00 00 00 00 00 00 00 00 00 00 00 00 00 00 00 00 00 00 00 00 00 00 00 00 00 00 00 00 00 00 00 00 00 00 00 00 00 00 00 00 00 00 00 00 00 00 00 00 00 00 00 00 00 00 00 00 00 00 00 00 00 00 00 00 00 00 00 00 00 00 00 00 00 00
CE5F  EA        NOP                             A:CE X:80 Y:01 P:27 SP:80 STACK: 00 00 C6 0B CB DC 00 00 00 00 00 00 00 00 00 00 00 00 00 00 00 00 00 00 00 00 00 00 00 00 00 00 00 00 00 00 00 00 00 00 00 00 00 00 00 00 00 00 00 00 00 00 00 00 00 00 00 00 00 00 00 00 00 00 00 00 00 00 00 00 00 00 00 00 00 00 00 00 00 00 00 00 00 00 00 00 00 00 00 00 00 00 00 00 00 00 00 00 00 00 00 00 00 00 00 00 00 00 00 00 00 00 00 00 00 00 00 00 00 00 00 00 00 00 00 00 00
CE60  A9 CE     LDA #$CE                        A:CE X:80 Y:01 P:27 SP:80 STACK: 00 00 C6 0B CB DC 00 00 00 00 00 00 00 00 00 00 00 00 00 00 00 00 00 00 00 00 00 00 00 00 00 00 00 00 00 00 00 00 00 00 00 00 00 00 00 00 00 00 00 00 00 00 00 00 00 00 00 00 00 00 00 00 00 00 00 00 00 00 00 00 00 00 00 00 00 00 00 00 00 00 00 00 00 00 00 00 00 00 00 00 00 00 00 00 00 00 00 00 00 00 00 00 00 00 00 00 00 00 00 00 00 00 00 00 00 00 00 00 00 00 00 00 00 00 00 00 00
CE62  48        PHA                             A:CE X:80 Y:01 P:A5 SP:80 STACK: 00 00 C6 0B CB DC 00 00 00 00 00 00 00 00 00 00 00 00 00 00 00 00 00 00 00 00 00 00 00 00 00 00 00 00 00 00 00 00 00 00 00 00 00 00 00 00 00 00 00 00 00 00 00 00 00 00 00 00 00 00 00 00 00 00 00 00 00 00 00 00 00 00 00 00 00 00 00 00 00 00 00 00 00 00 00 00 00 00 00 00 00 00 00 00 00 00 00 00 00 00 00 00 00 00 00 00 00 00 00 00 00 00 00 00 00 00 00 00 00 00 00 00 00 00 00 00 00
CE63  A9 66     LDA #$66                        A:CE X:80 Y:01 P:A5 SP:7F STACK: 00 00 C6 0B CB DC 00 00 00 00 00 00 00 00 00 00 00 00 00 00 00 00 00 00 00 00 00 00 00 00 00 00 00 00 00 00 00 00 00 00 00 00 00 00 00 00 00 00 00 00 00 00 00 00 00 00 00 00 00 00 00 00 00 00 00 00 00 00 00 00 00 00 00 00 00 00 00 00 00 00 00 00 00 00 00 00 00 00 00 00 00 00 00 00 00 00 00 00 00 00 00 00 00 00 00 00 00 00 00 00 00 00 00 00 00 00 00 00 00 00 00 00 00 00 00 00 00 CE
CE65  48        PHA                             A:66 X:80 Y:01 P:25 SP:7F STACK: 00 00 C6 0B CB DC 00 00 00 00 00 00 00 00 00 00 00 00 00 00 00 00 00 00 00 00 00 00 00 00 00 00 00 00 00 00 00 00 00 00 00 00 00 00 00 00 00 00 00 00 00 00 00 00 00 00 00 00 00 00 00 00 00 00 00 00 00 00 00 00 00 00 00 00 00 00 00 00 00 00 00 00 00 00 00 00 00 00 00 00 00 00 00 00 00 00 00 00 00 00 00 00 00 00 00 00 00 00 00 00 00 00 00 00 00 00 00 00 00 00 00 00 00 00 00 00 00 CE
CE66  60        RTS                             A:66 X:80 Y:01 P:25 SP:7E STACK: 00 00 C6 0B CB DC 00 00 00 00 00 00 00 00 00 00 00 00 00 00 00 00 00 00 00 00 00 00 00 00 00 00 00 00 00 00 00 00 00 00 00 00 00 00 00 00 00 00 00 00 00 00 00 00 00 00 00 00 00 00 00 00 00 00 00 00 00 00 00 00 00 00 00 00 00 00 00 00 00 00 00 00 00 00 00 00 00 00 00 00 00 00 00 00 00 00 00 00 00 00 00 00 00 00 00 00 00 00 00 00 00 00 00 00 00 00 00 00 00 00 00 00 00 00 00 00 00 CE 66
CE67  A2 77     LDX #$77                        A:66 X:80 Y:01 P:25 SP:80 STACK: 00 00 C6 0B CB DC 00 00 00 00 00 00 00 00 00 00 00 00 00 00 00 00 00 00 00 00 00 00 00 00 00 00 00 00 00 00 00 00 00 00 00 00 00 00 00 00 00 00 00 00 00 00 00 00 00 00 00 00 00 00 00 00 00 00 00 00 00 00 00 00 00 00 00 00 00 00 00 00 00 00 00 00 00 00 00 00 00 00 00 00 00 00 00 00 00 00 00 00 00 00 00 00 00 00 00 00 00 00 00 00 00 00 00 00 00 00 00 00 00 00 00 00 00 00 00 00 00
CE69  A0 69     LDY #$69                        A:66 X:77 Y:01 P:25 SP:80 STACK: 00 00 C6 0B CB DC 00 00 00 00 00 00 00 00 00 00 00 00 00 00 00 00 00 00 00 00 00 00 00 00 00 00 00 00 00 00 00 00 00 00 00 00 00 00 00 00 00 00 00 00 00 00 00 00 00 00 00 00 00 00 00 00 00 00 00 00 00 00 00 00 00 00 00 00 00 00 00 00 00 00 00 00 00 00 00 00 00 00 00 00 00 00 00 00 00 00 00 00 00 00 00 00 00 00 00 00 00 00 00 00 00 00 00 00 00 00 00 00 00 00 00 00 00 00 00 00 00
CE6B  18        CLC                             A:66 X:77 Y:69 P:25 SP:80 STACK: 00 00 C6 0B CB DC 00 00 00 00 00 00 00 00 00 00 00 00 00 00 00 00 00 00 00 00 00 00 00 00 00 00 00 00 00 00 00 00 00 00 00 00 00 00 00 00 00 00 00 00 00 00 00 00 00 00 00 00 00 00 00 00 00 00 00 00 00 00 00 00 00 00 00 00 00 00 00 00 00 00 00 00 00 00 00 00 00 00 00 00 00 00 00 00 00 00 00 00 00 00 00 00 00 00 00 00 00 00 00 00 00 00 00 00 00 00 00 00 00 00 00 00 00 00 00 00 00
CE6C  24 01     BIT $01 = FF                    A:66 X:77 Y:69 P:24 SP:80 STACK: 00 00 C6 0B CB DC 00 00 00 00 00 00 00 00 00 00 00 00 00 00 00 00 00 00 00 00 00 00 00 00 00 00 00 00 00 00 00 00 00 00 00 00 00 00 00 00 00 00 00 00 00 00 00 00 00 00 00 00 00 00 00 00 00 00 00 00 00 00 00 00 00 00 00 00 00 00 00 00 00 00 00 00 00 00 00 00 00 00 00 00 00 00 00 00 00 00 00 00 00 00 00 00 00 00 00 00 00 00 00 00 00 00 00 00 00 00 00 00 00 00 00 00 00 00 00 00 00
CE6E  A9 83     LDA #$83                        A:66 X:77 Y:69 P:E4 SP:80 STACK: 00 00 C6 0B CB DC 00 00 00 00 00 00 00 00 00 00 00 00 00 00 00 00 00 00 00 00 00 00 00 00 00 00 00 00 00 00 00 00 00 00 00 00 00 00 00 00 00 00 00 00 00 00 00 00 00 00 00 00 00 00 00 00 00 00 00 00 00 00 00 00 00 00 00 00 00 00 00 00 00 00 00 00 00 00 00 00 00 00 00 00 00 00 00 00 00 00 00 00 00 00 00 00 00 00 00 00 00 00 00 00 00 00 00 00 00 00 00 00 00 00 00 00 00 00 00 00 00
CE70  20 66 CE  JSR $CE66                       A:83 X:77 Y:69 P:E4 SP:80 STACK: 00 00 C6 0B CB DC 00 00 00 00 00 00 00 00 00 00 00 00 00 00 00 00 00 00 00 00 00 00 00 00 00 00 00 00 00 00 00 00 00 00 00 00 00 00 00 00 00 00 00 00 00 00 00 00 00 00 00 00 00 00 00 00 00 00 00 00 00 00 00 00 00 00 00 00 00 00 00 00 00 00 00 00 00 00 00 00 00 00 00 00 00 00 00 00 00 00 00 00 00 00 00 00 00 00 00 00 00 00 00 00 00 00 00 00 00 00 00 00 00 00 00 00 00 00 00 00 00
CE66  60        RTS                             A:83 X:77 Y:69 P:E4 SP:7E STACK: 00 00 C6 0B CB DC 00 00 00 00 00 00 00 00 00 00 00 00 00 00 00 00 00 00 00 00 00 00 00 00 00 00 00 00 00 00 00 00 00 00 00 00 00 00 00 00 00 00 00 00 00 00 00 00 00 00 00 00 00 00 00 00 00 00 00 00 00 00 00 00 00 00 00 00 00 00 00 00 00 00 00 00 00 00 00 00 00 00 00 00 00 00 00 00 00 00 00 00 00 00 00 00 00 00 00 00 00 00 00 00 00 00 00 00 00 00 00 00 00 00 00 00 00 00 00 00 00 CE 72
CE73  F0 24     BEQ $CE99                       A:83 X:77 Y:69 P:E4 SP:80 STACK: 00 00 C6 0B CB DC 00 00 00 00 00 00 00 00 00 00 00 00 00 00 00 00 00 00 00 00 00 00 00 00 00 00 00 00 00 00 00 00 00 00 00 00 00 00 00 00 00 00 00 00 00 00 00 00 00 00 00 00 00 00 00 00 00 00 00 00 00 00 00 00 00 00 00 00 00 00 00 00 00 00 00 00 00 00 00 00 00 00 00 00 00 00 00 00 00 00 00 00 00 00 00 00 00 00 00 00 00 00 00 00 00 00 00 00 00 00 00 00 00 00 00 00 00 00 00 00 00
CE75  10 22     BPL $CE99                       A:83 X:77 Y:69 P:E4 SP:80 STACK: 00 00 C6 0B CB DC 00 00 00 00 00 00 00 00 00 00 00 00 00 00 00 00 00 00 00 00 00 00 00 00 00 00 00 00 00 00 00 00 00 00 00 00 00 00 00 00 00 00 00 00 00 00 00 00 00 00 00 00 00 00 00 00 00 00 00 00 00 00 00 00 00 00 00 00 00 00 00 00 00 00 00 00 00 00 00 00 00 00 00 00 00 00 00 00 00 00 00 00 00 00 00 00 00 00 00 00 00 00 00 00 00 00 00 00 00 00 00 00 00 00 00 00 00 00 00 00 00
CE77  B0 20     BCS $CE99                       A:83 X:77 Y:69 P:E4 SP:80 STACK: 00 00 C6 0B CB DC 00 00 00 00 00 00 00 00 00 00 00 00 00 00 00 00 00 00 00 00 00 00 00 00 00 00 00 00 00 00 00 00 00 00 00 00 00 00 00 00 00 00 00 00 00 00 00 00 00 00 00 00 00 00 00 00 00 00 00 00 00 00 00 00 00 00 00 00 00 00 00 00 00 00 00 00 00 00 00 00 00 00 00 00 00 00 00 00 00 00 00 00 00 00 00 00 00 00 00 00 00 00 00 00 00 00 00 00 00 00 00 00 00 00 00 00 00 00 00 00 00
CE79  50 1E     BVC $CE99                       A:83 X:77 Y:69 P:E4 SP:80 STACK: 00 00 C6 0B CB DC 00 00 00 00 00 00 00 00 00 00 00 00 00 00 00 00 00 00 00 00 00 00 00 00 00 00 00 00 00 00 00 00 00 00 00 00 00 00 00 00 00 00 00 00 00 00 00 00 00 00 00 00 00 00 00 00 00 00 00 00 00 00 00 00 00 00 00 00 00 00 00 00 00 00 00 00 00 00 00 00 00 00 00 00 00 00 00 00 00 00 00 00 00 00 00 00 00 00 00 00 00 00 00 00 00 00 00 00 00 00 00 00 00 00 00 00 00 00 00 00 00
CE7B  C9 83     CMP #$83                        A:83 X:77 Y:69 P:E4 SP:80 STACK: 00 00 C6 0B CB DC 00 00 00 00 00 00 00 00 00 00 00 00 00 00 00 00 00 00 00 00 00 00 00 00 00 00 00 00 00 00 00 00 00 00 00 00 00 00 00 00 00 00 00 00 00 00 00 00 00 00 00 00 00 00 00 00 00 00 00 00 00 00 00 00 00 00 00 00 00 00 00 00 00 00 00 00 00 00 00 00 00 00 00 00 00 00 00 00 00 00 00 00 00 00 00 00 00 00 00 00 00 00 00 00 00 00 00 00 00 00 00 00 00 00 00 00 00 00 00 00 00
CE7D  D0 1A     BNE $CE99                       A:83 X:77 Y:69 P:67 SP:80 STACK: 00 00 C6 0B CB DC 00 00 00 00 00 00 00 00 00 00 00 00 00 00 00 00 00 00 00 00 00 00 00 00 00 00 00 00 00 00 00 00 00 00 00 00 00 00 00 00 00 00 00 00 00 00 00 00 00 00 00 00 00 00 00 00 00 00 00 00 00 00 00 00 00 00 00 00 00 00 00 00 00 00 00 00 00 00 00 00 00 00 00 00 00 00 00 00 00 00 00 00 00 00 00 00 00 00 00 00 00 00 00 00 00 00 00 00 00 00 00 00 00 00 00 00 00 00 00 00 00
CE7F  C0 69     CPY #$69                        A:83 X:77 Y:69 P:67 SP:80 STACK: 00 00 C6 0B CB DC 00 00 00 00 00 00 00 00 00 00 00 00 00 00 00 00 00 00 00 00 00 00 00 00 00 00 00 00 00 00 00 00 00 00 00 00 00 00 00 00 00 00 00 00 00 00 00 00 00 00 00 00 00 00 00 00 00 00 00 00 00 00 00 00 00 00 00 00 00 00 00 00 00 00 00 00 00 00 00 00 00 00 00 00 00 00 00 00 00 00 00 00 00 00 00 00 00 00 00 00 00 00 00 00 00 00 00 00 00 00 00 00 00 00 00 00 00 00 00 00 00
CE81  D0 16     BNE $CE99                       A:83 X:77 Y:69 P:67 SP:80 STACK: 00 00 C6 0B CB DC 00 00 00 00 00 00 00 00 00 00 00 00 00 00 00 00 00 00 00 00 00 00 00 00 00 00 00 00 00 00 00 00 00 00 00 00 00 00 00 00 00 00 00 00 00 00 00 00 00 00 00 00 00 00 00 00 00 00 00 00 00 00 00 00 00 00 00 00 00 00 00 00 00 00 00 00 00 00 00 00 00 00 00 00 00 00 00 00 00 00 00 00 00 00 00 00 00 00 00 00 00 00 00 00 00 00 00 00 00 00 00 00 00 00 00 00 00 00 00 00 00
CE83  E0 77     CPX #$77                        A:83 X:77 Y:69 P:67 SP:80 STACK: 00 00 C6 0B CB DC 00 00 00 00 00 00 00 00 00 00 00 00 00 00 00 00 00 00 00 00 00 00 00 00 00 00 00 00 00 00 00 00 00 00 00 00 00 00 00 00 00 00 00 00 00 00 00 00 00 00 00 00 00 00 00 00 00 00 00 00 00 00 00 00 00 00 00 00 00 00 00 00 00 00 00 00 00 00 00 00 00 00 00 00 00 00 00 00 00 00 00 00 00 00 00 00 00 00 00 00 00 00 00 00 00 00 00 00 00 00 00 00 00 00 00 00 00 00 00 00 00
CE85  D0 12     BNE $CE99                       A:83 X:77 Y:69 P:67 SP:80 STACK: 00 00 C6 0B CB DC 00 00 00 00 00 00 00 00 00 00 00 00 00 00 00 00 00 00 00 00 00 00 00 00 00 00 00 00 00 00 00 00 00 00 00 00 00 00 00 00 00 00 00 00 00 00 00 00 00 00 00 00 00 00 00 00 00 00 00 00 00 00 00 00 00 00 00 00 00 00 00 00 00 00 00 00 00 00 00 00 00 00 00 00 00 00 00 00 00 00 00 00 00 00 00 00 00 00 00 00 00 00 00 00 00 00 00 00 00 00 00 00 00 00 00 00 00 00 00 00 00
CE87  38        SEC                             A:83 X:77 Y:69 P:67 SP:80 STACK: 00 00 C6 0B CB DC 00 00 00 00 00 00 00 00 00 00 00 00 00 00 00 00 00 00 00 00 00 00 00 00 00 00 00 00 00 00 00 00 00 00 00 00 00 00 00 00 00 00 00 00 00 00 00 00 00 00 00 00 00 00 00 00 00 00 00 00 00 00 00 00 00 00 00 00 00 00 00 00 00 00 00 00 00 00 00 00 00 00 00 00 00 00 00 00 00 00 00 00 00 00 00 00 00 00 00 00 00 00 00 00 00 00 00 00 00 00 00 00 00 00 00 00 00 00 00 00 00
CE88  B8        CLV                             A:83 X:77 Y:69 P:67 SP:80 STACK: 00 00 C6 0B CB DC 00 00 00 00 00 00 00 00 00 00 00 00 00 00 00 00 00 00 00 00 00 00 00 00 00 00 00 00 00 00 00 00 00 00 00 00 00 00 00 00 00 00 00 00 00 00 00 00 00 00 00 00 00 00 00 00 00 00 00 00 00 00 00 00 00 00 00 00 00 00 00 00 00 00 00 00 00 00 00 00 00 00 00 00 00 00 00 00 00 00 00 00 00 00 00 00 00 00 00 00 00 00 00 00 00 00 00 00 00 00 00 00 00 00 00 00 00 00 00 00 00
CE89  A9 00     LDA #$00                        A:83 X:77 Y:69 P:27 SP:80 STACK: 00 00 C6 0B CB DC 00 00 00 00 00 00 00 00 00 00 00 00 00 00 00 00 00 00 00 00 00 00 00 00 00 00 00 00 00 00 00 00 00 00 00 00 00 00 00 00 00 00 00 00 00 00 00 00 00 00 00 00 00 00 00 00 00 00 00 00 00 00 00 00 00 00 00 00 00 00 00 00 00 00 00 00 00 00 00 00 00 00 00 00 00 00 00 00 00 00 00 00 00 00 00 00 00 00 00 00 00 00 00 00 00 00 00 00 00 00 00 00 00 00 00 00 00 00 00 00 00
CE8B  20 66 CE  JSR $CE66                       A:00 X:77 Y:69 P:27 SP:80 STACK: 00 00 C6 0B CB DC 00 00 00 00 00 00 00 00 00 00 00 00 00 00 00 00 00 00 00 00 00 00 00 00 00 00 00 00 00 00 00 00 00 00 00 00 00 00 00 00 00 00 00 00 00 00 00 00 00 00 00 00 00 00 00 00 00 00 00 00 00 00 00 00 00 00 00 00 00 00 00 00 00 00 00 00 00 00 00 00 00 00 00 00 00 00 00 00 00 00 00 00 00 00 00 00 00 00 00 00 00 00 00 00 00 00 00 00 00 00 00 00 00 00 00 00 00 00 00 00 00
CE66  60        RTS                             A:00 X:77 Y:69 P:27 SP:7E STACK: 00 00 C6 0B CB DC 00 00 00 00 00 00 00 00 00 00 00 00 00 00 00 00 00 00 00 00 00 00 00 00 00 00 00 00 00 00 00 00 00 00 00 00 00 00 00 00 00 00 00 00 00 00 00 00 00 00 00 00 00 00 00 00 00 00 00 00 00 00 00 00 00 00 00 00 00 00 00 00 00 00 00 00 00 00 00 00 00 00 00 00 00 00 00 00 00 00 00 00 00 00 00 00 00 00 00 00 00 00 00 00 00 00 00 00 00 00 00 00 00 00 00 00 00 00 00 00 00 CE 8D
CE8E  D0 09     BNE $CE99                       A:00 X:77 Y:69 P:27 SP:80 STACK: 00 00 C6 0B CB DC 00 00 00 00 00 00 00 00 00 00 00 00 00 00 00 00 00 00 00 00 00 00 00 00 00 00 00 00 00 00 00 00 00 00 00 00 00 00 00 00 00 00 00 00 00 00 00 00 00 00 00 00 00 00 00 00 00 00 00 00 00 00 00 00 00 00 00 00 00 00 00 00 00 00 00 00 00 00 00 00 00 00 00 00 00 00 00 00 00 00 00 00 00 00 00 00 00 00 00 00 00 00 00 00 00 00 00 00 00 00 00 00 00 00 00 00 00 00 00 00 00
CE90  30 07     BMI $CE99                       A:00 X:77 Y:69 P:27 SP:80 STACK: 00 00 C6 0B CB DC 00 00 00 00 00 00 00 00 00 00 00 00 00 00 00 00 00 00 00 00 00 00 00 00 00 00 00 00 00 00 00 00 00 00 00 00 00 00 00 00 00 00 00 00 00 00 00 00 00 00 00 00 00 00 00 00 00 00 00 00 00 00 00 00 00 00 00 00 00 00 00 00 00 00 00 00 00 00 00 00 00 00 00 00 00 00 00 00 00 00 00 00 00 00 00 00 00 00 00 00 00 00 00 00 00 00 00 00 00 00 00 00 00 00 00 00 00 00 00 00 00
CE92  90 05     BCC $CE99                       A:00 X:77 Y:69 P:27 SP:80 STACK: 00 00 C6 0B CB DC 00 00 00 00 00 00 00 00 00 00 00 00 00 00 00 00 00 00 00 00 00 00 00 00 00 00 00 00 00 00 00 00 00 00 00 00 00 00 00 00 00 00 00 00 00 00 00 00 00 00 00 00 00 00 00 00 00 00 00 00 00 00 00 00 00 00 00 00 00 00 00 00 00 00 00 00 00 00 00 00 00 00 00 00 00 00 00 00 00 00 00 00 00 00 00 00 00 00 00 00 00 00 00 00 00 00 00 00 00 00 00 00 00 00 00 00 00 00 00 00 00
CE94  70 03     BVS $CE99                       A:00 X:77 Y:69 P:27 SP:80 STACK: 00 00 C6 0B CB DC 00 00 00 00 00 00 00 00 00 00 00 00 00 00 00 00 00 00 00 00 00 00 00 00 00 00 00 00 00 00 00 00 00 00 00 00 00 00 00 00 00 00 00 00 00 00 00 00 00 00 00 00 00 00 00 00 00 00 00 00 00 00 00 00 00 00 00 00 00 00 00 00 00 00 00 00 00 00 00 00 00 00 00 00 00 00 00 00 00 00 00 00 00 00 00 00 00 00 00 00 00 00 00 00 00 00 00 00 00 00 00 00 00 00 00 00 00 00 00 00 00
CE96  4C 9D CE  JMP $CE9D                       A:00 X:77 Y:69 P:27 SP:80 STACK: 00 00 C6 0B CB DC 00 00 00 00 00 00 00 00 00 00 00 00 00 00 00 00 00 00 00 00 00 00 00 00 00 00 00 00 00 00 00 00 00 00 00 00 00 00 00 00 00 00 00 00 00 00 00 00 00 00 00 00 00 00 00 00 00 00 00 00 00 00 00 00 00 00 00 00 00 00 00 00 00 00 00 00 00 00 00 00 00 00 00 00 00 00 00 00 00 00 00 00 00 00 00 00 00 00 00 00 00 00 00 00 00 00 00 00 00 00 00 00 00 00 00 00 00 00 00 00 00
CE9D  EA        NOP                             A:00 X:77 Y:69 P:27 SP:80 STACK: 00 00 C6 0B CB DC 00 00 00 00 00 00 00 00 00 00 00 00 00 00 00 00 00 00 00 00 00 00 00 00 00 00 00 00 00 00 00 00 00 00 00 00 00 00 00 00 00 00 00 00 00 00 00 00 00 00 00 00 00 00 00 00 00 00 00 00 00 00 00 00 00 00 00 00 00 00 00 00 00 00 00 00 00 00 00 00 00 00 00 00 00 00 00 00 00 00 00 00 00 00 00 00 00 00 00 00 00 00 00 00 00 00 00 00 00 00 00 00 00 00 00 00 00 00 00 00 00
CE9E  A9 CE     LDA #$CE                        A:00 X:77 Y:69 P:27 SP:80 STACK: 00 00 C6 0B CB DC 00 00 00 00 00 00 00 00 00 00 00 00 00 00 00 00 00 00 00 00 00 00 00 00 00 00 00 00 00 00 00 00 00 00 00 00 00 00 00 00 00 00 00 00 00 00 00 00 00 00 00 00 00 00 00 00 00 00 00 00 00 00 00 00 00 00 00 00 00 00 00 00 00 00 00 00 00 00 00 00 00 00 00 00 00 00 00 00 00 00 00 00 00 00 00 00 00 00 00 00 00 00 00 00 00 00 00 00 00 00 00 00 00 00 00 00 00 00 00 00 00
CEA0  48        PHA                             A:CE X:77 Y:69 P:A5 SP:80 STACK: 00 00 C6 0B CB DC 00 00 00 00 00 00 00 00 00 00 00 00 00 00 00 00 00 00 00 00 00 00 00 00 00 00 00 00 00 00 00 00 00 00 00 00 00 00 00 00 00 00 00 00 00 00 00 00 00 00 00 00 00 00 00 00 00 00 00 00 00 00 00 00 00 00 00 00 00 00 00 00 00 00 00 00 00 00 00 00 00 00 00 00 00 00 00 00 00 00 00 00 00 00 00 00 00 00 00 00 00 00 00 00 00 00 00 00 00 00 00 00 00 00 00 00 00 00 00 00 00
CEA1  A9 AE     LDA #$AE                        A:CE X:77 Y:69 P:A5 SP:7F STACK: 00 00 C6 0B CB DC 00 00 00 00 00 00 00 00 00 00 00 00 00 00 00 00 00 00 00 00 00 00 00 00 00 00 00 00 00 00 00 00 00 00 00 00 00 00 00 00 00 00 00 00 00 00 00 00 00 00 00 00 00 00 00 00 00 00 00 00 00 00 00 00 00 00 00 00 00 00 00 00 00 00 00 00 00 00 00 00 00 00 00 00 00 00 00 00 00 00 00 00 00 00 00 00 00 00 00 00 00 00 00 00 00 00 00 00 00 00 00 00 00 00 00 00 00 00 00 00 00 CE
CEA3  48        PHA                             A:AE X:77 Y:69 P:A5 SP:7F STACK: 00 00 C6 0B CB DC 00 00 00 00 00 00 00 00 00 00 00 00 00 00 00 00 00 00 00 00 00 00 00 00 00 00 00 00 00 00 00 00 00 00 00 00 00 00 00 00 00 00 00 00 00 00 00 00 00 00 00 00 00 00 00 00 00 00 00 00 00 00 00 00 00 00 00 00 00 00 00 00 00 00 00 00 00 00 00 00 00 00 00 00 00 00 00 00 00 00 00 00 00 00 00 00 00 00 00 00 00 00 00 00 00 00 00 00 00 00 00 00 00 00 00 00 00 00 00 00 00 CE
CEA4  A9 65     LDA #$65                        A:AE X:77 Y:69 P:A5 SP:7E STACK: 00 00 C6 0B CB DC 00 00 00 00 00 00 00 00 00 00 00 00 00 00 00 00 00 00 00 00 00 00 00 00 00 00 00 00 00 00 00 00 00 00 00 00 00 00 00 00 00 00 00 00 00 00 00 00 00 00 00 00 00 00 00 00 00 00 00 00 00 00 00 00 00 00 00 00 00 00 00 00 00 00 00 00 00 00 00 00 00 00 00 00 00 00 00 00 00 00 00 00 00 00 00 00 00 00 00 00 00 00 00 00 00 00 00 00 00 00 00 00 00 00 00 00 00 00 00 00 00 CE AE
CEA6  48        PHA                             A:65 X:77 Y:69 P:25 SP:7E STACK: 00 00 C6 0B CB DC 00 00 00 00 00 00 00 00 00 00 00 00 00 00 00 00 00 00 00 00 00 00 00 00 00 00 00 00 00 00 00 00 00 00 00 00 00 00 00 00 00 00 00 00 00 00 00 00 00 00 00 00 00 00 00 00 00 00 00 00 00 00 00 00 00 00 00 00 00 00 00 00 00 00 00 00 00 00 00 00 00 00 00 00 00 00 00 00 00 00 00 00 00 00 00 00 00 00 00 00 00 00 00 00 00 00 00 00 00 00 00 00 00 00 00 00 00 00 00 00 00 CE AE
CEA7  A9 55     LDA #$55                        A:65 X:77 Y:69 P:25 SP:7D STACK: 00 00 C6 0B CB DC 00 00 00 00 00 00 00 00 00 00 00 00 00 00 00 00 00 00 00 00 00 00 00 00 00 00 00 00 00 00 00 00 00 00 00 00 00 00 00 00 00 00 00 00 00 00 00 00 00 00 00 00 00 00 00 00 00 00 00 00 00 00 00 00 00 00 00 00 00 00 00 00 00 00 00 00 00 00 00 00 00 00 00 00 00 00 00 00 00 00 00 00 00 00 00 00 00 00 00 00 00 00 00 00 00 00 00 00 00 00 00 00 00 00 00 00 00 00 00 00 00 CE AE 65
CEA9  A0 88     LDY #$88                        A:55 X:77 Y:69 P:25 SP:7D STACK: 00 00 C6 0B CB DC 00 00 00 00 00 00 00 00 00 00 00 00 00 00 00 00 00 00 00 00 00 00 00 00 00 00 00 00 00 00 00 00 00 00 00 00 00 00 00 00 00 00 00 00 00 00 00 00 00 00 00 00 00 00 00 00 00 00 00 00 00 00 00 00 00 00 00 00 00 00 00 00 00 00 00 00 00 00 00 00 00 00 00 00 00 00 00 00 00 00 00 00 00 00 00 00 00 00 00 00 00 00 00 00 00 00 00 00 00 00 00 00 00 00 00 00 00 00 00 00 00 CE AE 65
CEAB  A2 99     LDX #$99                        A:55 X:77 Y:88 P:A5 SP:7D STACK: 00 00 C6 0B CB DC 00 00 00 00 00 00 00 00 00 00 00 00 00 00 00 00 00 00 00 00 00 00 00 00 00 00 00 00 00 00 00 00 00 00 00 00 00 00 00 00 00 00 00 00 00 00 00 00 00 00 00 00 00 00 00 00 00 00 00 00 00 00 00 00 00 00 00 00 00 00 00 00 00 00 00 00 00 00 00 00 00 00 00 00 00 00 00 00 00 00 00 00 00 00 00 00 00 00 00 00 00 00 00 00 00 00 00 00 00 00 00 00 00 00 00 00 00 00 00 00 00 CE AE 65
CEAD  40        RTI                             A:55 X:99 Y:88 P:A5 SP:7D STACK: 00 00 C6 0B CB DC 00 00 00 00 00 00 00 00 00 00 00 00 00 00 00 00 00 00 00 00 00 00 00 00 00 00 00 00 00 00 00 00 00 00 00 00 00 00 00 00 00 00 00 00 00 00 00 00 00 00 00 00 00 00 00 00 00 00 00 00 00 00 00 00 00 00 00 00 00 00 00 00 00 00 00 00 00 00 00 00 00 00 00 00 00 00 00 00 00 00 00 00 00 00 00 00 00 00 00 00 00 00 00 00 00 00 00 00 00 00 00 00 00 00 00 00 00 00 00 00 00 CE AE 65
CEAE  30 35     BMI $CEE5                       A:55 X:99 Y:88 P:65 SP:80 STACK: 00 00 C6 0B CB DC 00 00 00 00 00 00 00 00 00 00 00 00 00 00 00 00 00 00 00 00 00 00 00 00 00 00 00 00 00 00 00 00 00 00 00 00 00 00 00 00 00 00 00 00 00 00 00 00 00 00 00 00 00 00 00 00 00 00 00 00 00 00 00 00 00 00 00 00 00 00 00 00 00 00 00 00 00 00 00 00 00 00 00 00 00 00 00 00 00 00 00 00 00 00 00 00 00 00 00 00 00 00 00 00 00 00 00 00 00 00 00 00 00 00 00 00 00 00 00 00 00
CEB0  50 33     BVC $CEE5                       A:55 X:99 Y:88 P:65 SP:80 STACK: 00 00 C6 0B CB DC 00 00 00 00 00 00 00 00 00 00 00 00 00 00 00 00 00 00 00 00 00 00 00 00 00 00 00 00 00 00 00 00 00 00 00 00 00 00 00 00 00 00 00 00 00 00 00 00 00 00 00 00 00 00 00 00 00 00 00 00 00 00 00 00 00 00 00 00 00 00 00 00 00 00 00 00 00 00 00 00 00 00 00 00 00 00 00 00 00 00 00 00 00 00 00 00 00 00 00 00 00 00 00 00 00 00 00 00 00 00 00 00 00 00 00 00 00 00 00 00 00
CEB2  F0 31     BEQ $CEE5                       A:55 X:99 Y:88 P:65 SP:80 STACK: 00 00 C6 0B CB DC 00 00 00 00 00 00 00 00 00 00 00 00 00 00 00 00 00 00 00 00 00 00 00 00 00 00 00 00 00 00 00 00 00 00 00 00 00 00 00 00 00 00 00 00 00 00 00 00 00 00 00 00 00 00 00 00 00 00 00 00 00 00 00 00 00 00 00 00 00 00 00 00 00 00 00 00 00 00 00 00 00 00 00 00 00 00 00 00 00 00 00 00 00 00 00 00 00 00 00 00 00 00 00 00 00 00 00 00 00 00 00 00 00 00 00 00 00 00 00 00 00
CEB4  90 2F     BCC $CEE5                       A:55 X:99 Y:88 P:65 SP:80 STACK: 00 00 C6 0B CB DC 00 00 00 00 00 00 00 00 00 00 00 00 00 00 00 00 00 00 00 00 00 00 00 00 00 00 00 00 00 00 00 00 00 00 00 00 00 00 00 00 00 00 00 00 00 00 00 00 00 00 00 00 00 00 00 00 00 00 00 00 00 00 00 00 00 00 00 00 00 00 00 00 00 00 00 00 00 00 00 00 00 00 00 00 00 00 00 00 00 00 00 00 00 00 00 00 00 00 00 00 00 00 00 00 00 00 00 00 00 00 00 00 00 00 00 00 00 00 00 00 00
CEB6  C9 55     CMP #$55                        A:55 X:99 Y:88 P:65 SP:80 STACK: 00 00 C6 0B CB DC 00 00 00 00 00 00 00 00 00 00 00 00 00 00 00 00 00 00 00 00 00 00 00 00 00 00 00 00 00 00 00 00 00 00 00 00 00 00 00 00 00 00 00 00 00 00 00 00 00 00 00 00 00 00 00 00 00 00 00 00 00 00 00 00 00 00 00 00 00 00 00 00 00 00 00 00 00 00 00 00 00 00 00 00 00 00 00 00 00 00 00 00 00 00 00 00 00 00 00 00 00 00 00 00 00 00 00 00 00 00 00 00 00 00 00 00 00 00 00 00 00
CEB8  D0 2B     BNE $CEE5                       A:55 X:99 Y:88 P:67 SP:80 STACK: 00 00 C6 0B CB DC 00 00 00 00 00 00 00 00 00 00 00 00 00 00 00 00 00 00 00 00 00 00 00 00 00 00 00 00 00 00 00 00 00 00 00 00 00 00 00 00 00 00 00 00 00 00 00 00 00 00 00 00 00 00 00 00 00 00 00 00 00 00 00 00 00 00 00 00 00 00 00 00 00 00 00 00 00 00 00 00 00 00 00 00 00 00 00 00 00 00 00 00 00 00 00 00 00 00 00 00 00 00 00 00 00 00 00 00 00 00 00 00 00 00 00 00 00 00 00 00 00
CEBA  C0 88     CPY #$88                        A:55 X:99 Y:88 P:67 SP:80 STACK: 00 00 C6 0B CB DC 00 00 00 00 00 00 00 00 00 00 00 00 00 00 00 00 00 00 00 00 00 00 00 00 00 00 00 00 00 00 00 00 00 00 00 00 00 00 00 00 00 00 00 00 00 00 00 00 00 00 00 00 00 00 00 00 00 00 00 00 00 00 00 00 00 00 00 00 00 00 00 00 00 00 00 00 00 00 00 00 00 00 00 00 00 00 00 00 00 00 00 00 00 00 00 00 00 00 00 00 00 00 00 00 00 00 00 00 00 00 00 00 00 00 00 00 00 00 00 00 00
CEBC  D0 27     BNE $CEE5                       A:55 X:99 Y:88 P:67 SP:80 STACK: 00 00 C6 0B CB DC 00 00 00 00 00 00 00 00 00 00 00 00 00 00 00 00 00 00 00 00 00 00 00 00 00 00 00 00 00 00 00 00 00 00 00 00 00 00 00 00 00 00 00 00 00 00 00 00 00 00 00 00 00 00 00 00 00 00 00 00 00 00 00 00 00 00 00 00 00 00 00 00 00 00 00 00 00 00 00 00 00 00 00 00 00 00 00 00 00 00 00 00 00 00 00 00 00 00 00 00 00 00 00 00 00 00 00 00 00 00 00 00 00 00 00 00 00 00 00 00 00
CEBE  E0 99     CPX #$99                        A:55 X:99 Y:88 P:67 SP:80 STACK: 00 00 C6 0B CB DC 00 00 00 00 00 00 00 00 00 00 00 00 00 00 00 00 00 00 00 00 00 00 00 00 00 00 00 00 00 00 00 00 00 00 00 00 00 00 00 00 00 00 00 00 00 00 00 00 00 00 00 00 00 00 00 00 00 00 00 00 00 00 00 00 00 00 00 00 00 00 00 00 00 00 00 00 00 00 00 00 00 00 00 00 00 00 00 00 00 00 00 00 00 00 00 00 00 00 00 00 00 00 00 00 00 00 00 00 00 00 00 00 00 00 00 00 00 00 00 00 00
CEC0  D0 23     BNE $CEE5                       A:55 X:99 Y:88 P:67 SP:80 STACK: 00 00 C6 0B CB DC 00 00 00 00 00 00 00 00 00 00 00 00 00 00 00 00 00 00 00 00 00 00 00 00 00 00 00 00 00 00 00 00 00 00 00 00 00 00 00 00 00 00 00 00 00 00 00 00 00 00 00 00 00 00 00 00 00 00 00 00 00 00 00 00 00 00 00 00 00 00 00 00 00 00 00 00 00 00 00 00 00 00 00 00 00 00 00 00 00 00 00 00 00 00 00 00 00 00 00 00 00 00 00 00 00 00 00 00 00 00 00 00 00 00 00 00 00 00 00 00 00
CEC2  A9 CE     LDA #$CE                        A:55 X:99 Y:88 P:67 SP:80 STACK: 00 00 C6 0B CB DC 00 00 00 00 00 00 00 00 00 00 00 00 00 00 00 00 00 00 00 00 00 00 00 00 00 00 00 00 00 00 00 00 00 00 00 00 00 00 00 00 00 00 00 00 00 00 00 00 00 00 00 00 00 00 00 00 00 00 00 00 00 00 00 00 00 00 00 00 00 00 00 00 00 00 00 00 00 00 00 00 00 00 00 00 00 00 00 00 00 00 00 00 00 00 00 00 00 00 00 00 00 00 00 00 00 00 00 00 00 00 00 00 00 00 00 00 00 00 00 00 00
CEC4  48        PHA                             A:CE X:99 Y:88 P:E5 SP:80 STACK: 00 00 C6 0B CB DC 00 00 00 00 00 00 00 00 00 00 00 00 00 00 00 00 00 00 00 00 00 00 00 00 00 00 00 00 00 00 00 00 00 00 00 00 00 00 00 00 00 00 00 00 00 00 00 00 00 00 00 00 00 00 00 00 00 00 00 00 00 00 00 00 00 00 00 00 00 00 00 00 00 00 00 00 00 00 00 00 00 00 00 00 00 00 00 00 00 00 00 00 00 00 00 00 00 00 00 00 00 00 00 00 00 00 00 00 00 00 00 00 00 00 00 00 00 00 00 00 00
CEC5  A9 CE     LDA #$CE                        A:CE X:99 Y:88 P:E5 SP:7F STACK: 00 00 C6 0B CB DC 00 00 00 00 00 00 00 00 00 00 00 00 00 00 00 00 00 00 00 00 00 00 00 00 00 00 00 00 00 00 00 00 00 00 00 00 00 00 00 00 00 00 00 00 00 00 00 00 00 00 00 00 00 00 00 00 00 00 00 00 00 00 00 00 00 00 00 00 00 00 00 00 00 00 00 00 00 00 00 00 00 00 00 00 00 00 00 00 00 00 00 00 00 00 00 00 00 00 00 00 00 00 00 00 00 00 00 00 00 00 00 00 00 00 00 00 00 00 00 00 00 CE
CEC7  48        PHA                             A:CE X:99 Y:88 P:E5 SP:7F STACK: 00 00 C6 0B CB DC 00 00 00 00 00 00 00 00 00 00 00 00 00 00 00 00 00 00 00 00 00 00 00 00 00 00 00 00 00 00 00 00 00 00 00 00 00 00 00 00 00 00 00 00 00 00 00 00 00 00 00 00 00 00 00 00 00 00 00 00 00 00 00 00 00 00 00 00 00 00 00 00 00 00 00 00 00 00 00 00 00 00 00 00 00 00 00 00 00 00 00 00 00 00 00 00 00 00 00 00 00 00 00 00 00 00 00 00 00 00 00 00 00 00 00 00 00 00 00 00 00 CE
CEC8  A9 87     LDA #$87                        A:CE X:99 Y:88 P:E5 SP:7E STACK: 00 00 C6 0B CB DC 00 00 00 00 00 00 00 00 00 00 00 00 00 00 00 00 00 00 00 00 00 00 00 00 00 00 00 00 00 00 00 00 00 00 00 00 00 00 00 00 00 00 00 00 00 00 00 00 00 00 00 00 00 00 00 00 00 00 00 00 00 00 00 00 00 00 00 00 00 00 00 00 00 00 00 00 00 00 00 00 00 00 00 00 00 00 00 00 00 00 00 00 00 00 00 00 00 00 00 00 00 00 00 00 00 00 00 00 00 00 00 00 00 00 00 00 00 00 00 00 00 CE CE
CECA  48        PHA                             A:87 X:99 Y:88 P:E5 SP:7E STACK: 00 00 C6 0B CB DC 00 00 00 00 00 00 00 00 00 00 00 00 00 00 00 00 00 00 00 00 00 00 00 00 00 00 00 00 00 00 00 00 00 00 00 00 00 00 00 00 00 00 00 00 00 00 00 00 00 00 00 00 00 00 00 00 00 00 00 00 00 00 00 00 00 00 00 00 00 00 00 00 00 00 00 00 00 00 00 00 00 00 00 00 00 00 00 00 00 00 00 00 00 00 00 00 00 00 00 00 00 00 00 00 00 00 00 00 00 00 00 00 00 00 00 00 00 00 00 00 00 CE CE
CECB  A9 55     LDA #$55                        A:87 X:99 Y:88 P:E5 SP:7D STACK: 00 00 C6 0B CB DC 00 00 00 00 00 00 00 00 00 00 00 00 00 00 00 00 00 00 00 00 00 00 00 00 00 00 00 00 00 00 00 00 00 00 00 00 00 00 00 00 00 00 00 00 00 00 00 00 00 00 00 00 00 00 00 00 00 00 00 00 00 00 00 00 00 00 00 00 00 00 00 00 00 00 00 00 00 00 00 00 00 00 00 00 00 00 00 00 00 00 00 00 00 00 00 00 00 00 00 00 00 00 00 00 00 00 00 00 00 00 00 00 00 00 00 00 00 00 00 00 00 CE CE 87
CECD  40        RTI                             A:55 X:99 Y:88 P:65 SP:7D STACK: 00 00 C6 0B CB DC 00 00 00 00 00 00 00 00 00 00 00 00 00 00 00 00 00 00 00 00 00 00 00 00 00 00 00 00 00 00 00 00 00 00 00 00 00 00 00 00 00 00 00 00 00 00 00 00 00 00 00 00 00 00 00 00 00 00 00 00 00 00 00 00 00 00 00 00 00 00 00 00 00 00 00 00 00 00 00 00 00 00 00 00 00 00 00 00 00 00 00 00 00 00 00 00 00 00 00 00 00 00 00 00 00 00 00 00 00 00 00 00 00 00 00 00 00 00 00 00 00 CE CE 87
CECE  10 15     BPL $CEE5                       A:55 X:99 Y:88 P:A7 SP:80 STACK: 00 00 C6 0B CB DC 00 00 00 00 00 00 00 00 00 00 00 00 00 00 00 00 00 00 00 00 00 00 00 00 00 00 00 00 00 00 00 00 00 00 00 00 00 00 00 00 00 00 00 00 00 00 00 00 00 00 00 00 00 00 00 00 00 00 00 00 00 00 00 00 00 00 00 00 00 00 00 00 00 00 00 00 00 00 00 00 00 00 00 00 00 00 00 00 00 00 00 00 00 00 00 00 00 00 00 00 00 00 00 00 00 00 00 00 00 00 00 00 00 00 00 00 00 00 00 00 00
CED0  70 13     BVS $CEE5                       A:55 X:99 Y:88 P:A7 SP:80 STACK: 00 00 C6 0B CB DC 00 00 00 00 00 00 00 00 00 00 00 00 00 00 00 00 00 00 00 00 00 00 00 00 00 00 00 00 00 00 00 00 00 00 00 00 00 00 00 00 00 00 00 00 00 00 00 00 00 00 00 00 00 00 00 00 00 00 00 00 00 00 00 00 00 00 00 00 00 00 00 00 00 00 00 00 00 00 00 00 00 00 00 00 00 00 00 00 00 00 00 00 00 00 00 00 00 00 00 00 00 00 00 00 00 00 00 00 00 00 00 00 00 00 00 00 00 00 00 00 00
CED2  D0 11     BNE $CEE5                       A:55 X:99 Y:88 P:A7 SP:80 STACK: 00 00 C6 0B CB DC 00 00 00 00 00 00 00 00 00 00 00 00 00 00 00 00 00 00 00 00 00 00 00 00 00 00 00 00 00 00 00 00 00 00 00 00 00 00 00 00 00 00 00 00 00 00 00 00 00 00 00 00 00 00 00 00 00 00 00 00 00 00 00 00 00 00 00 00 00 00 00 00 00 00 00 00 00 00 00 00 00 00 00 00 00 00 00 00 00 00 00 00 00 00 00 00 00 00 00 00 00 00 00 00 00 00 00 00 00 00 00 00 00 00 00 00 00 00 00 00 00
CED4  90 0F     BCC $CEE5                       A:55 X:99 Y:88 P:A7 SP:80 STACK: 00 00 C6 0B CB DC 00 00 00 00 00 00 00 00 00 00 00 00 00 00 00 00 00 00 00 00 00 00 00 00 00 00 00 00 00 00 00 00 00 00 00 00 00 00 00 00 00 00 00 00 00 00 00 00 00 00 00 00 00 00 00 00 00 00 00 00 00 00 00 00 00 00 00 00 00 00 00 00 00 00 00 00 00 00 00 00 00 00 00 00 00 00 00 00 00 00 00 00 00 00 00 00 00 00 00 00 00 00 00 00 00 00 00 00 00 00 00 00 00 00 00 00 00 00 00 00 00
CED6  C9 55     CMP #$55                        A:55 X:99 Y:88 P:A7 SP:80 STACK: 00 00 C6 0B CB DC 00 00 00 00 00 00 00 00 00 00 00 00 00 00 00 00 00 00 00 00 00 00 00 00 00 00 00 00 00 00 00 00 00 00 00 00 00 00 00 00 00 00 00 00 00 00 00 00 00 00 00 00 00 00 00 00 00 00 00 00 00 00 00 00 00 00 00 00 00 00 00 00 00 00 00 00 00 00 00 00 00 00 00 00 00 00 00 00 00 00 00 00 00 00 00 00 00 00 00 00 00 00 00 00 00 00 00 00 00 00 00 00 00 00 00 00 00 00 00 00 00
CED8  D0 0B     BNE $CEE5                       A:55 X:99 Y:88 P:27 SP:80 STACK: 00 00 C6 0B CB DC 00 00 00 00 00 00 00 00 00 00 00 00 00 00 00 00 00 00 00 00 00 00 00 00 00 00 00 00 00 00 00 00 00 00 00 00 00 00 00 00 00 00 00 00 00 00 00 00 00 00 00 00 00 00 00 00 00 00 00 00 00 00 00 00 00 00 00 00 00 00 00 00 00 00 00 00 00 00 00 00 00 00 00 00 00 00 00 00 00 00 00 00 00 00 00 00 00 00 00 00 00 00 00 00 00 00 00 00 00 00 00 00 00 00 00 00 00 00 00 00 00
CEDA  C0 88     CPY #$88                        A:55 X:99 Y:88 P:27 SP:80 STACK: 00 00 C6 0B CB DC 00 00 00 00 00 00 00 00 00 00 00 00 00 00 00 00 00 00 00 00 00 00 00 00 00 00 00 00 00 00 00 00 00 00 00 00 00 00 00 00 00 00 00 00 00 00 00 00 00 00 00 00 00 00 00 00 00 00 00 00 00 00 00 00 00 00 00 00 00 00 00 00 00 00 00 00 00 00 00 00 00 00 00 00 00 00 00 00 00 00 00 00 00 00 00 00 00 00 00 00 00 00 00 00 00 00 00 00 00 00 00 00 00 00 00 00 00 00 00 00 00
CEDC  D0 07     BNE $CEE5                       A:55 X:99 Y:88 P:27 SP:80 STACK: 00 00 C6 0B CB DC 00 00 00 00 00 00 00 00 00 00 00 00 00 00 00 00 00 00 00 00 00 00 00 00 00 00 00 00 00 00 00 00 00 00 00 00 00 00 00 00 00 00 00 00 00 00 00 00 00 00 00 00 00 00 00 00 00 00 00 00 00 00 00 00 00 00 00 00 00 00 00 00 00 00 00 00 00 00 00 00 00 00 00 00 00 00 00 00 00 00 00 00 00 00 00 00 00 00 00 00 00 00 00 00 00 00 00 00 00 00 00 00 00 00 00 00 00 00 00 00 00
CEDE  E0 99     CPX #$99                        A:55 X:99 Y:88 P:27 SP:80 STACK: 00 00 C6 0B CB DC 00 00 00 00 00 00 00 00 00 00 00 00 00 00 00 00 00 00 00 00 00 00 00 00 00 00 00 00 00 00 00 00 00 00 00 00 00 00 00 00 00 00 00 00 00 00 00 00 00 00 00 00 00 00 00 00 00 00 00 00 00 00 00 00 00 00 00 00 00 00 00 00 00 00 00 00 00 00 00 00 00 00 00 00 00 00 00 00 00 00 00 00 00 00 00 00 00 00 00 00 00 00 00 00 00 00 00 00 00 00 00 00 00 00 00 00 00 00 00 00 00
CEE0  D0 03     BNE $CEE5                       A:55 X:99 Y:88 P:27 SP:80 STACK: 00 00 C6 0B CB DC 00 00 00 00 00 00 00 00 00 00 00 00 00 00 00 00 00 00 00 00 00 00 00 00 00 00 00 00 00 00 00 00 00 00 00 00 00 00 00 00 00 00 00 00 00 00 00 00 00 00 00 00 00 00 00 00 00 00 00 00 00 00 00 00 00 00 00 00 00 00 00 00 00 00 00 00 00 00 00 00 00 00 00 00 00 00 00 00 00 00 00 00 00 00 00 00 00 00 00 00 00 00 00 00 00 00 00 00 00 00 00 00 00 00 00 00 00 00 00 00 00
CEE2  4C E9 CE  JMP $CEE9                       A:55 X:99 Y:88 P:27 SP:80 STACK: 00 00 C6 0B CB DC 00 00 00 00 00 00 00 00 00 00 00 00 00 00 00 00 00 00 00 00 00 00 00 00 00 00 00 00 00 00 00 00 00 00 00 00 00 00 00 00 00 00 00 00 00 00 00 00 00 00 00 00 00 00 00 00 00 00 00 00 00 00 00 00 00 00 00 00 00 00 00 00 00 00 00 00 00 00 00 00 00 00 00 00 00 00 00 00 00 00 00 00 00 00 00 00 00 00 00 00 00 00 00 00 00 00 00 00 00 00 00 00 00 00 00 00 00 00 00 00 00
CEE9  AE FF 07  LDX $07FF = FB                  A:55 X:99 Y:88 P:27 SP:80 STACK: 00 00 C6 0B CB DC 00 00 00 00 00 00 00 00 00 00 00 00 00 00 00 00 00 00 00 00 00 00 00 00 00 00 00 00 00 00 00 00 00 00 00 00 00 00 00 00 00 00 00 00 00 00 00 00 00 00 00 00 00 00 00 00 00 00 00 00 00 00 00 00 00 00 00 00 00 00 00 00 00 00 00 00 00 00 00 00 00 00 00 00 00 00 00 00 00 00 00 00 00 00 00 00 00 00 00 00 00 00 00 00 00 00 00 00 00 00 00 00 00 00 00 00 00 00 00 00 00
CEEC  9A        TXS                             A:55 X:FB Y:88 P:A5 SP:80 STACK: 00 00 C6 0B CB DC 00 00 00 00 00 00 00 00 00 00 00 00 00 00 00 00 00 00 00 00 00 00 00 00 00 00 00 00 00 00 00 00 00 00 00 00 00 00 00 00 00 00 00 00 00 00 00 00 00 00 00 00 00 00 00 00 00 00 00 00 00 00 00 00 00 00 00 00 00 00 00 00 00 00 00 00 00 00 00 00 00 00 00 00 00 00 00 00 00 00 00 00 00 00 00 00 00 00 00 00 00 00 00 00 00 00 00 00 00 00 00 00 00 00 00 00 00 00 00 00 00
CEED  60        RTS                             A:55 X:FB Y:88 P:A5 SP:FB STACK: 00 00 C6 0B
C60C  20 EE CE  JSR $CEEE                       A:55 X:FB Y:88 P:A5 SP:FD STACK: 00 00
CEEE  A2 55     LDX #$55                        A:55 X:FB Y:88 P:A5 SP:FB STACK: 00 00 C6 0E
CEF0  A0 69     LDY #$69                        A:55 X:55 Y:88 P:25 SP:FB STACK: 00 00 C6 0E
CEF2  A9 FF     LDA #$FF                        A:55 X:55 Y:69 P:25 SP:FB STACK: 00 00 C6 0E
CEF4  85 01     STA $01 = FF                    A:FF X:55 Y:69 P:A5 SP:FB STACK: 00 00 C6 0E
CEF6  EA        NOP                             A:FF X:55 Y:69 P:A5 SP:FB STACK: 00 00 C6 0E
CEF7  24 01     BIT $01 = FF                    A:FF X:55 Y:69 P:A5 SP:FB STACK: 00 00 C6 0E
CEF9  38        SEC                             A:FF X:55 Y:69 P:E5 SP:FB STACK: 00 00 C6 0E
CEFA  A9 01     LDA #$01                        A:FF X:55 Y:69 P:E5 SP:FB STACK: 00 00 C6 0E
CEFC  4A        LSR A                           A:01 X:55 Y:69 P:65 SP:FB STACK: 00 00 C6 0E
CEFD  90 1D     BCC $CF1C                       A:00 X:55 Y:69 P:67 SP:FB STACK: 00 00 C6 0E
CEFF  D0 1B     BNE $CF1C                       A:00 X:55 Y:69 P:67 SP:FB STACK: 00 00 C6 0E
CF01  30 19     BMI $CF1C                       A:00 X:55 Y:69 P:67 SP:FB STACK: 00 00 C6 0E
CF03  50 17     BVC $CF1C                       A:00 X:55 Y:69 P:67 SP:FB STACK: 00 00 C6 0E
CF05  C9 00     CMP #$00                        A:00 X:55 Y:69 P:67 SP:FB STACK: 00 00 C6 0E
CF07  D0 13     BNE $CF1C                       A:00 X:55 Y:69 P:67 SP:FB STACK: 00 00 C6 0E
CF09  B8        CLV                             A:00 X:55 Y:69 P:67 SP:FB STACK: 00 00 C6 0E
CF0A  A9 AA     LDA #$AA                        A:00 X:55 Y:69 P:27 SP:FB STACK: 00 00 C6 0E
CF0C  4A        LSR A                           A:AA X:55 Y:69 P:A5 SP:FB STACK: 00 00 C6 0E
CF0D  B0 0D     BCS $CF1C                       A:55 X:55 Y:69 P:24 SP:FB STACK: 00 00 C6 0E
CF0F  F0 0B     BEQ $CF1C                       A:55 X:55 Y:69 P:24 SP:FB STACK: 00 00 C6 0E
CF11  30 09     BMI $CF1C                       A:55 X:55 Y:69 P:24 SP:FB STACK: 00 00 C6 0E
CF13  70 07     BVS $CF1C                       A:55 X:55 Y:69 P:24 SP:FB STACK: 00 00 C6 0E
CF15  C9 55     CMP #$55                        A:55 X:55 Y:69 P:24 SP:FB STACK: 00 00 C6 0E
CF17  D0 03     BNE $CF1C                       A:55 X:55 Y:69 P:27 SP:FB STACK: 00 00 C6 0E
CF19  4C 20 CF  JMP $CF20                       A:55 X:55 Y:69 P:27 SP:FB STACK: 00 00 C6 0E
CF20  EA        NOP                             A:55 X:55 Y:69 P:27 SP:FB STACK: 00 00 C6 0E
CF21  24 01     BIT $01 = FF                    A:55 X:55 Y:69 P:27 SP:FB STACK: 00 00 C6 0E
CF23  38        SEC                             A:55 X:55 Y:69 P:E5 SP:FB STACK: 00 00 C6 0E
CF24  A9 80     LDA #$80                        A:55 X:55 Y:69 P:E5 SP:FB STACK: 00 00 C6 0E
CF26  0A        ASL A                           A:80 X:55 Y:69 P:E5 SP:FB STACK: 00 00 C6 0E
CF27  90 1E     BCC $CF47                       A:00 X:55 Y:69 P:67 SP:FB STACK: 00 00 C6 0E
CF29  D0 1C     BNE $CF47                       A:00 X:55 Y:69 P:67 SP:FB STACK: 00 00 C6 0E
CF2B  30 1A     BMI $CF47                       A:00 X:55 Y:69 P:67 SP:FB STACK: 00 00 C6 0E
CF2D  50 18     BVC $CF47                       A:00 X:55 Y:69 P:67 SP:FB STACK: 00 00 C6 0E
CF2F  C9 00     CMP #$00                        A:00 X:55 Y:69 P:67 SP:FB STACK: 00 00 C6 0E
CF31  D0 14     BNE $CF47                       A:00 X:55 Y:69 P:67 SP:FB STACK: 00 00 C6 0E
CF33  B8        CLV                             A:00 X:55 Y:69 P:67 SP:FB STACK: 00 00 C6 0E
CF34  38        SEC                             A:00 X:55 Y:69 P:27 SP:FB STACK: 00 00 C6 0E
CF35  A9 55     LDA #$55                        A:00 X:55 Y:69 P:27 SP:FB STACK: 00 00 C6 0E
CF37  0A        ASL A                           A:55 X:55 Y:69 P:25 SP:FB STACK: 00 00 C6 0E
CF38  B0 0D     BCS $CF47                       A:AA X:55 Y:69 P:A4 SP:FB STACK: 00 00 C6 0E
CF3A  F0 0B     BEQ $CF47                       A:AA X:55 Y:69 P:A4 SP:FB STACK: 00 00 C6 0E
CF3C  10 09     BPL $CF47                       A:AA X:55 Y:69 P:A4 SP:FB STACK: 00 00 C6 0E
CF3E  70 07     BVS $CF47                       A:AA X:55 Y:69 P:A4 SP:FB STACK: 00 00 C6 0E
CF40  C9 AA     CMP #$AA                        A:AA X:55 Y:69 P:A4 SP:FB STACK: 00 00 C6 0E
CF42  D0 03     BNE $CF47                       A:AA X:55 Y:69 P:27 SP:FB STACK: 00 00 C6 0E
CF44  4C 4B CF  JMP $CF4B                       A:AA X:55 Y:69 P:27 SP:FB STACK: 00 00 C6 0E
CF4B  EA        NOP                             A:AA X:55 Y:69 P:27 SP:FB STACK: 00 00 C6 0E
CF4C  24 01     BIT $01 = FF                    A:AA X:55 Y:69 P:27 SP:FB STACK: 00 00 C6 0E
CF4E  38        SEC                             A:AA X:55 Y:69 P:E5 SP:FB STACK: 00 00 C6 0E
CF4F  A9 01     LDA #$01                        A:AA X:55 Y:69 P:E5 SP:FB STACK: 00 00 C6 0E
CF51  6A        ROR A                           A:01 X:55 Y:69 P:65 SP:FB STACK: 00 00 C6 0E
CF52  90 1E     BCC $CF72                       A:80 X:55 Y:69 P:E5 SP:FB STACK: 00 00 C6 0E
CF54  F0 1C     BEQ $CF72                       A:80 X:55 Y:69 P:E5 SP:FB STACK: 00 00 C6 0E
CF56  10 1A     BPL $CF72                       A:80 X:55 Y:69 P:E5 SP:FB STACK: 00 00 C6 0E
CF58  50 18     BVC $CF72                       A:80 X:55 Y:69 P:E5 SP:FB STACK: 00 00 C6 0E
CF5A  C9 80     CMP #$80                        A:80 X:55 Y:69 P:E5 SP:FB STACK: 00 00 C6 0E
CF5C  D0 14     BNE $CF72                       A:80 X:55 Y:69 P:67 SP:FB STACK: 00 00 C6 0E
CF5E  B8        CLV                             A:80 X:55 Y:69 P:67 SP:FB STACK: 00 00 C6 0E
CF5F  18        CLC                             A:80 X:55 Y:69 P:27 SP:FB STACK: 00 00 C6 0E
CF60  A9 55     LDA #$55                        A:80 X:55 Y:69 P:26 SP:FB STACK: 00 00 C6 0E
CF62  6A        ROR A                           A:55 X:55 Y:69 P:24 SP:FB STACK: 00 00 C6 0E
CF63  90 0D     BCC $CF72                       A:2A X:55 Y:69 P:25 SP:FB STACK: 00 00 C6 0E
CF65  F0 0B     BEQ $CF72                       A:2A X:55 Y:69 P:25 SP:FB STACK: 00 00 C6 0E
CF67  30 09     BMI $CF72                       A:2A X:55 Y:69 P:25 SP:FB STACK: 00 00 C6 0E
CF69  70 07     BVS $CF72                       A:2A X:55 Y:69 P:25 SP:FB STACK: 00 00 C6 0E
CF6B  C9 2A     CMP #$2A                        A:2A X:55 Y:69 P:25 SP:FB STACK: 00 00 C6 0E
CF6D  D0 03     BNE $CF72                       A:2A X:55 Y:69 P:27 SP:FB STACK: 00 00 C6 0E
CF6F  4C 76 CF  JMP $CF76                       A:2A X:55 Y:69 P:27 SP:FB STACK: 00 00 C6 0E
CF76  EA        NOP                             A:2A X:55 Y:69 P:27 SP:FB STACK: 00 00 C6 0E
CF77  24 01     BIT $01 = FF                    A:2A X:55 Y:69 P:27 SP:FB STACK: 00 00 C6 0E
CF79  38        SEC                             A:2A X:55 Y:69 P:E5 SP:FB STACK: 00 00 C6 0E
CF7A  A9 80     LDA #$80                        A:2A X:55 Y:69 P:E5 SP:FB STACK: 00 00 C6 0E
CF7C  2A        ROL A                           A:80 X:55 Y:69 P:E5 SP:FB STACK: 00 00 C6 0E
CF7D  90 1E     BCC $CF9D                       A:01 X:55 Y:69 P:65 SP:FB STACK: 00 00 C6 0E
CF7F  F0 1C     BEQ $CF9D                       A:01 X:55 Y:69 P:65 SP:FB STACK: 00 00 C6 0E
CF81  30 1A     BMI $CF9D                       A:01 X:55 Y:69 P:65 SP:FB STACK: 00 00 C6 0E
CF83  50 18     BVC $CF9D                       A:01 X:55 Y:69 P:65 SP:FB STACK: 00 00 C6 0E
CF85  C9 01     CMP #$01                        A:01 X:55 Y:69 P:65 SP:FB STACK: 00 00 C6 0E
CF87  D0 14     BNE $CF9D                       A:01 X:55 Y:69 P:67 SP:FB STACK: 00 00 C6 0E
CF89  B8        CLV                             A:01 X:55 Y:69 P:67 SP:FB STACK: 00 00 C6 0E
CF8A  18        CLC                             A:01 X:55 Y:69 P:27 SP:FB STACK: 00 00 C6 0E
CF8B  A9 55     LDA #$55                        A:01 X:55 Y:69 P:26 SP:FB STACK: 00 00 C6 0E
CF8D  2A        ROL A                           A:55 X:55 Y:69 P:24 SP:FB STACK: 00 00 C6 0E
CF8E  B0 0D     BCS $CF9D                       A:AA X:55 Y:69 P:A4 SP:FB STACK: 00 00 C6 0E
CF90  F0 0B     BEQ $CF9D                       A:AA X:55 Y:69 P:A4 SP:FB STACK: 00 00 C6 0E
CF92  10 09     BPL $CF9D                       A:AA X:55 Y:69 P:A4 SP:FB STACK: 00 00 C6 0E
CF94  70 07     BVS $CF9D                       A:AA X:55 Y:69 P:A4 SP:FB STACK: 00 00 C6 0E
CF96  C9 AA     CMP #$AA                        A:AA X:55 Y:69 P:A4 SP:FB STACK: 00 00 C6 0E
CF98  D0 03     BNE $CF9D                       A:AA X:55 Y:69 P:27 SP:FB STACK: 00 00 C6 0E
CF9A  4C A1 CF  JMP $CFA1                       A:AA X:55 Y:69 P:27 SP:FB STACK: 00 00 C6 0E
CFA1  60        RTS                             A:AA X:55 Y:69 P:27 SP:FB STACK: 00 00 C6 0E
C60F  20 A2 CF  JSR $CFA2                       A:AA X:55 Y:69 P:27 SP:FD STACK: 00 00
CFA2  A5 00     LDA $00 = 00                    A:AA X:55 Y:69 P:27 SP:FB STACK: 00 00 C6 11
CFA4  8D FF 07  STA $07FF = FB                  A:00 X:55 Y:69 P:27 SP:FB STACK: 00 00 C6 11
CFA7  A9 00     LDA #$00                        A:00 X:55 Y:69 P:27 SP:FB STACK: 00 00 C6 11
CFA9  85 80     STA $80 = 00                    A:00 X:55 Y:69 P:27 SP:FB STACK: 00 00 C6 11
CFAB  A9 02     LDA #$02                        A:00 X:55 Y:69 P:27 SP:FB STACK: 00 00 C6 11
CFAD  85 81     STA $81 = 00                    A:02 X:55 Y:69 P:25 SP:FB STACK: 00 00 C6 11
CFAF  A9 FF     LDA #$FF                        A:02 X:55 Y:69 P:25 SP:FB STACK: 00 00 C6 11
CFB1  85 01     STA $01 = FF                    A:FF X:55 Y:69 P:A5 SP:FB STACK: 00 00 C6 11
CFB3  A9 00     LDA #$00                        A:FF X:55 Y:69 P:A5 SP:FB STACK: 00 00 C6 11
CFB5  85 82     STA $82 = 00                    A:00 X:55 Y:69 P:27 SP:FB STACK: 00 00 C6 11
CFB7  A9 03     LDA #$03                        A:00 X:55 Y:69 P:27 SP:FB STACK: 00 00 C6 11
CFB9  85 83     STA $83 = 00                    A:03 X:55 Y:69 P:25 SP:FB STACK: 00 00 C6 11
CFBB  85 84     STA $84 = 00                    A:03 X:55 Y:69 P:25 SP:FB STACK: 00 00 C6 11
CFBD  A9 00     LDA #$00                        A:03 X:55 Y:69 P:25 SP:FB STACK: 00 00 C6 11
CFBF  85 FF     STA $FF = 00                    A:00 X:55 Y:69 P:27 SP:FB STACK: 00 00 C6 11
CFC1  A9 04     LDA #$04                        A:00 X:55 Y:69 P:27 SP:FB STACK: 00 00 C6 11
CFC3  85 00     STA $00 = 00                    A:04 X:55 Y:69 P:25 SP:FB STACK: 00 00 C6 11
CFC5  A9 5A     LDA #$5A                        A:04 X:55 Y:69 P:25 SP:FB STACK: 00 00 C6 11
CFC7  8D 00 02  STA $0200 = 00                  A:5A X:55 Y:69 P:25 SP:FB STACK: 00 00 C6 11
CFCA  A9 5B     LDA #$5B                        A:5A X:55 Y:69 P:25 SP:FB STACK: 00 00 C6 11
CFCC  8D 00 03  STA $0300 = 00                  A:5B X:55 Y:69 P:25 SP:FB STACK: 00 00 C6 11
CFCF  A9 5C     LDA #$5C                        A:5B X:55 Y:69 P:25 SP:FB STACK: 00 00 C6 11
CFD1  8D 03 03  STA $0303 = 00                  A:5C X:55 Y:69 P:25 SP:FB STACK: 00 00 C6 11
CFD4  A9 5D     LDA #$5D                        A:5C X:55 Y:69 P:25 SP:FB STACK: 00 00 C6 11
CFD6  8D 00 04  STA $0400 = 00                  A:5D X:55 Y:69 P:25 SP:FB STACK: 00 00 C6 11
CFD9  A2 00     LDX #$00                        A:5D X:55 Y:69 P:25 SP:FB STACK: 00 00 C6 11
CFDB  A1 80     LDA ($80,X) @ 80 = 0200 = 5A    A:5D X:00 Y:69 P:27 SP:FB STACK: 00 00 C6 11
CFDD  C9 5A     CMP #$5A                        A:5A X:00 Y:69 P:25 SP:FB STACK: 00 00 C6 11
CFDF  D0 1F     BNE $D000                       A:5A X:00 Y:69 P:27 SP:FB STACK: 00 00 C6 11
CFE1  E8        INX                             A:5A X:00 Y:69 P:27 SP:FB STACK: 00 00 C6 11
CFE2  E8        INX                             A:5A X:01 Y:69 P:25 SP:FB STACK: 00 00 C6 11
CFE3  A1 80     LDA ($80,X) @ 82 = 0300 = 5B    A:5A X:02 Y:69 P:25 SP:FB STACK: 00 00 C6 11
CFE5  C9 5B     CMP #$5B                        A:5B X:02 Y:69 P:25 SP:FB STACK: 00 00 C6 11
CFE7  D0 17     BNE $D000                       A:5B X:02 Y:69 P:27 SP:FB STACK: 00 00 C6 11
CFE9  E8        INX                             A:5B X:02 Y:69 P:27 SP:FB STACK: 00 00 C6 11
CFEA  A1 80     LDA ($80,X) @ 83 = 0303 = 5C    A:5B X:03 Y:69 P:25 SP:FB STACK: 00 00 C6 11
CFEC  C9 5C     CMP #$5C                        A:5C X:03 Y:69 P:25 SP:FB STACK: 00 00 C6 11
CFEE  D0 10     BNE $D000                       A:5C X:03 Y:69 P:27 SP:FB STACK: 00 00 C6 11
CFF0  A2 00     LDX #$00                        A:5C X:03 Y:69 P:27 SP:FB STACK: 00 00 C6 11
CFF2  A1 FF     LDA ($FF,X) @ FF = 0400 = 5D    A:5C X:00 Y:69 P:27 SP:FB STACK: 00 00 C6 11
CFF4  C9 5D     CMP #$5D                        A:5D X:00 Y:69 P:25 SP:FB STACK: 00 00 C6 11
CFF6  D0 08     BNE $D000                       A:5D X:00 Y:69 P:27 SP:FB STACK: 00 00 C6 11
CFF8  A2 81     LDX #$81                        A:5D X:00 Y:69 P:27 SP:FB STACK: 00 00 C6 11
CFFA  A1 FF     LDA ($FF,X) @ 80 = 0200 = 5A    A:5D X:81 Y:69 P:A5 SP:FB STACK: 00 00 C6 11
CFFC  C9 5A     CMP #$5A                        A:5A X:81 Y:69 P:25 SP:FB STACK: 00 00 C6 11
CFFE  F0 05     BEQ $D005                       A:5A X:81 Y:69 P:27 SP:FB STACK: 00 00 C6 11
D005  A9 AA     LDA #$AA                        A:5A X:81 Y:69 P:27 SP:FB STACK: 00 00 C6 11
D007  A2 00     LDX #$00                        A:AA X:81 Y:69 P:A5 SP:FB STACK: 00 00 C6 11
D009  81 80     STA ($80,X) @ 80 = 0200 = 5A    A:AA X:00 Y:69 P:27 SP:FB STACK: 00 00 C6 11
D00B  E8        INX                             A:AA X:00 Y:69 P:27 SP:FB STACK: 00 00 C6 11
D00C  E8        INX                             A:AA X:01 Y:69 P:25 SP:FB STACK: 00 00 C6 11
D00D  A9 AB     LDA #$AB                        A:AA X:02 Y:69 P:25 SP:FB STACK: 00 00 C6 11
D00F  81 80     STA ($80,X) @ 82 = 0300 = 5B    A:AB X:02 Y:69 P:A5 SP:FB STACK: 00 00 C6 11
D011  E8        INX                             A:AB X:02 Y:69 P:A5 SP:FB STACK: 00 00 C6 11
D012  A9 AC     LDA #$AC                        A:AB X:03 Y:69 P:25 SP:FB STACK: 00 00 C6 11
D014  81 80     STA ($80,X) @ 83 = 0303 = 5C    A:AC X:03 Y:69 P:A5 SP:FB STACK: 00 00 C6 11
D016  A2 00     LDX #$00                        A:AC X:03 Y:69 P:A5 SP:FB STACK: 00 00 C6 11
D018  A9 AD     LDA #$AD                        A:AC X:00 Y:69 P:27 SP:FB STACK: 00 00 C6 11
D01A  81 FF     STA ($FF,X) @ FF = 0400 = 5D    A:AD X:00 Y:69 P:A5 SP:FB STACK: 00 00 C6 11
D01C  AD 00 02  LDA $0200 = AA                  A:AD X:00 Y:69 P:A5 SP:FB STACK: 00 00 C6 11
D01F  C9 AA     CMP #$AA                        A:AA X:00 Y:69 P:A5 SP:FB STACK: 00 00 C6 11
D021  D0 15     BNE $D038                       A:AA X:00 Y:69 P:27 SP:FB STACK: 00 00 C6 11
D023  AD 00 03  LDA $0300 = AB                  A:AA X:00 Y:69 P:27 SP:FB STACK: 00 00 C6 11
D026  C9 AB     CMP #$AB                        A:AB X:00 Y:69 P:A5 SP:FB STACK: 00 00 C6 11
D028  D0 0E     BNE $D038                       A:AB X:00 Y:69 P:27 SP:FB STACK: 00 00 C6 11
D02A  AD 03 03  LDA $0303 = AC                  A:AB X:00 Y:69 P:27 SP:FB STACK: 00 00 C6 11
D02D  C9 AC     CMP #$AC                        A:AC X:00 Y:69 P:A5 SP:FB STACK: 00 00 C6 11
D02F  D0 07     BNE $D038                       A:AC X:00 Y:69 P:27 SP:FB STACK: 00 00 C6 11
D031  AD 00 04  LDA $0400 = AD                  A:AC X:00 Y:69 P:27 SP:FB STACK: 00 00 C6 11
D034  C9 AD     CMP #$AD                        A:AD X:00 Y:69 P:A5 SP:FB STACK: 00 00 C6 11
D036  F0 05     BEQ $D03D                       A:AD X:00 Y:69 P:27 SP:FB STACK: 00 00 C6 11
D03D  AD FF 07  LDA $07FF = 00                  A:AD X:00 Y:69 P:27 SP:FB STACK: 00 00 C6 11
D040  85 00     STA $00 = 04                    A:00 X:00 Y:69 P:27 SP:FB STACK: 00 00 C6 11
D042  A9 00     LDA #$00                        A:00 X:00 Y:69 P:27 SP:FB STACK: 00 00 C6 11
D044  8D 00 03  STA $0300 = AB                  A:00 X:00 Y:69 P:27 SP:FB STACK: 00 00 C6 11
D047  A9 AA     LDA #$AA                        A:00 X:00 Y:69 P:27 SP:FB STACK: 00 00 C6 11
D049  8D 00 02  STA $0200 = AA                  A:AA X:00 Y:69 P:A5 SP:FB STACK: 00 00 C6 11
D04C  A2 00     LDX #$00                        A:AA X:00 Y:69 P:A5 SP:FB STACK: 00 00 C6 11
D04E  A0 5A     LDY #$5A                        A:AA X:00 Y:69 P:27 SP:FB STACK: 00 00 C6 11
D050  20 B6 F7  JSR $F7B6                       A:AA X:00 Y:5A P:25 SP:FB STACK: 00 00 C6 11
F7B6  18        CLC                             A:AA X:00 Y:5A P:25 SP:F9 STACK: 00 00 C6 11 D0 52
F7B7  A9 FF     LDA #$FF                        A:AA X:00 Y:5A P:24 SP:F9 STACK: 00 00 C6 11 D0 52
F7B9  85 01     STA $01 = FF                    A:FF X:00 Y:5A P:A4 SP:F9 STACK: 00 00 C6 11 D0 52
F7BB  24 01     BIT $01 = FF                    A:FF X:00 Y:5A P:A4 SP:F9 STACK: 00 00 C6 11 D0 52
F7BD  A9 55     LDA #$55                        A:FF X:00 Y:5A P:E4 SP:F9 STACK: 00 00 C6 11 D0 52
F7BF  60        RTS                             A:55 X:00 Y:5A P:64 SP:F9 STACK: 00 00 C6 11 D0 52
D053  01 80     ORA ($80,X) @ 80 = 0200 = AA    A:55 X:00 Y:5A P:64 SP:FB STACK: 00 00 C6 11
D055  20 C0 F7  JSR $F7C0                       A:FF X:00 Y:5A P:E4 SP:FB STACK: 00 00 C6 11
F7C0  B0 09     BCS $F7CB                       A:FF X:00 Y:5A P:E4 SP:F9 STACK: 00 00 C6 11 D0 57
F7C2  10 07     BPL $F7CB                       A:FF X:00 Y:5A P:E4 SP:F9 STACK: 00 00 C6 11 D0 57
F7C4  C9 FF     CMP #$FF                        A:FF X:00 Y:5A P:E4 SP:F9 STACK: 00 00 C6 11 D0 57
F7C6  D0 03     BNE $F7CB                       A:FF X:00 Y:5A P:67 SP:F9 STACK: 00 00 C6 11 D0 57
F7C8  50 01     BVC $F7CB                       A:FF X:00 Y:5A P:67 SP:F9 STACK: 00 00 C6 11 D0 57
F7CA  60        RTS                             A:FF X:00 Y:5A P:67 SP:F9 STACK: 00 00 C6 11 D0 57
D058  C8        INY                             A:FF X:00 Y:5A P:67 SP:FB STACK: 00 00 C6 11
D059  20 CE F7  JSR $F7CE                       A:FF X:00 Y:5B P:65 SP:FB STACK: 00 00 C6 11
F7CE  38        SEC                             A:FF X:00 Y:5B P:65 SP:F9 STACK: 00 00 C6 11 D0 5B
F7CF  B8        CLV                             A:FF X:00 Y:5B P:65 SP:F9 STACK: 00 00 C6 11 D0 5B
F7D0  A9 00     LDA #$00                        A:FF X:00 Y:5B P:25 SP:F9 STACK: 00 00 C6 11 D0 5B
F7D2  60        RTS                             A:00 X:00 Y:5B P:27 SP:F9 STACK: 00 00 C6 11 D0 5B
D05C  01 82     ORA ($82,X) @ 82 = 0300 = 00    A:00 X:00 Y:5B P:27 SP:FB STACK: 00 00 C6 11
D05E  20 D3 F7  JSR $F7D3                       A:00 X:00 Y:5B P:27 SP:FB STACK: 00 00 C6 11
F7D3  D0 07     BNE $F7DC                       A:00 X:00 Y:5B P:27 SP:F9 STACK: 00 00 C6 11 D0 60
F7D5  70 05     BVS $F7DC                       A:00 X:00 Y:5B P:27 SP:F9 STACK: 00 00 C6 11 D0 60
F7D7  90 03     BCC $F7DC                       A:00 X:00 Y:5B P:27 SP:F9 STACK: 00 00 C6 11 D0 60
F7D9  30 01     BMI $F7DC                       A:00 X:00 Y:5B P:27 SP:F9 STACK: 00 00 C6 11 D0 60
F7DB  60        RTS                             A:00 X:00 Y:5B P:27 SP:F9 STACK: 00 00 C6 11 D0 60
D061  C8        INY                             A:00 X:00 Y:5B P:27 SP:FB STACK: 00 00 C6 11
D062  20 DF F7  JSR $F7DF                       A:00 X:00 Y:5C P:25 SP:FB STACK: 00 00 C6 11
F7DF  18        CLC                             A:00 X:00 Y:5C P:25 SP:F9 STACK: 00 00 C6 11 D0 64
F7E0  24 01     BIT $01 = FF                    A:00 X:00 Y:5C P:24 SP:F9 STACK: 00 00 C6 11 D0 64
F7E2  A9 55     LDA #$55                        A:00 X:00 Y:5C P:E6 SP:F9 STACK: 00 00 C6 11 D0 64
F7E4  60        RTS                             A:55 X:00 Y:5C P:64 SP:F9 STACK: 00 00 C6 11 D0 64
D065  21 80     AND ($80,X) @ 80 = 0200 = AA    A:55 X:00 Y:5C P:64 SP:FB STACK: 00 00 C6 11
D067  20 E5 F7  JSR $F7E5                       A:00 X:00 Y:5C P:66 SP:FB STACK: 00 00 C6 11
F7E5  D0 07     BNE $F7EE                       A:00 X:00 Y:5C P:66 SP:F9 STACK: 00 00 C6 11 D0 69
F7E7  50 05     BVC $F7EE                       A:00 X:00 Y:5C P:66 SP:F9 STACK: 00 00 C6 11 D0 69
F7E9  B0 03     BCS $F7EE                       A:00 X:00 Y:5C P:66 SP:F9 STACK: 00 00 C6 11 D0 69
F7EB  30 01     BMI $F7EE                       A:00 X:00 Y:5C P:66 SP:F9 STACK: 00 00 C6 11 D0 69
F7ED  60        RTS                             A:00 X:00 Y:5C P:66 SP:F9 STACK: 00 00 C6 11 D0 69
D06A  C8        INY                             A:00 X:00 Y:5C P:66 SP:FB STACK: 00 00 C6 11
D06B  A9 EF     LDA #$EF                        A:00 X:00 Y:5D P:64 SP:FB STACK: 00 00 C6 11
D06D  8D 00 03  STA $0300 = 00                  A:EF X:00 Y:5D P:E4 SP:FB STACK: 00 00 C6 11
D070  20 F1 F7  JSR $F7F1                       A:EF X:00 Y:5D P:E4 SP:FB STACK: 00 00 C6 11
F7F1  38        SEC                             A:EF X:00 Y:5D P:E4 SP:F9 STACK: 00 00 C6 11 D0 72
F7F2  B8        CLV                             A:EF X:00 Y:5D P:E5 SP:F9 STACK: 00 00 C6 11 D0 72
F7F3  A9 F8     LDA #$F8                        A:EF X:00 Y:5D P:A5 SP:F9 STACK: 00 00 C6 11 D0 72
F7F5  60        RTS                             A:F8 X:00 Y:5D P:A5 SP:F9 STACK: 00 00 C6 11 D0 72
D073  21 82     AND ($82,X) @ 82 = 0300 = EF    A:F8 X:00 Y:5D P:A5 SP:FB STACK: 00 00 C6 11
D075  20 F6 F7  JSR $F7F6                       A:E8 X:00 Y:5D P:A5 SP:FB STACK: 00 00 C6 11
F7F6  90 09     BCC $F801                       A:E8 X:00 Y:5D P:A5 SP:F9 STACK: 00 00 C6 11 D0 77
F7F8  10 07     BPL $F801                       A:E8 X:00 Y:5D P:A5 SP:F9 STACK: 00 00 C6 11 D0 77
F7FA  C9 E8     CMP #$E8                        A:E8 X:00 Y:5D P:A5 SP:F9 STACK: 00 00 C6 11 D0 77
F7FC  D0 03     BNE $F801                       A:E8 X:00 Y:5D P:27 SP:F9 STACK: 00 00 C6 11 D0 77
F7FE  70 01     BVS $F801                       A:E8 X:00 Y:5D P:27 SP:F9 STACK: 00 00 C6 11 D0 77
F800  60        RTS                             A:E8 X:00 Y:5D P:27 SP:F9 STACK: 00 00 C6 11 D0 77
D078  C8        INY                             A:E8 X:00 Y:5D P:27 SP:FB STACK: 00 00 C6 11
D079  20 04 F8  JSR $F804                       A:E8 X:00 Y:5E P:25 SP:FB STACK: 00 00 C6 11
F804  18        CLC                             A:E8 X:00 Y:5E P:25 SP:F9 STACK: 00 00 C6 11 D0 7B
F805  24 01     BIT $01 = FF                    A:E8 X:00 Y:5E P:24 SP:F9 STACK: 00 00 C6 11 D0 7B
F807  A9 5F     LDA #$5F                        A:E8 X:00 Y:5E P:E4 SP:F9 STACK: 00 00 C6 11 D0 7B
F809  60        RTS                             A:5F X:00 Y:5E P:64 SP:F9 STACK: 00 00 C6 11 D0 7B
D07C  41 80     EOR ($80,X) @ 80 = 0200 = AA    A:5F X:00 Y:5E P:64 SP:FB STACK: 00 00 C6 11
D07E  20 0A F8  JSR $F80A                       A:F5 X:00 Y:5E P:E4 SP:FB STACK: 00 00 C6 11
F80A  B0 09     BCS $F815                       A:F5 X:00 Y:5E P:E4 SP:F9 STACK: 00 00 C6 11 D0 80
F80C  10 07     BPL $F815                       A:F5 X:00 Y:5E P:E4 SP:F9 STACK: 00 00 C6 11 D0 80
F80E  C9 F5     CMP #$F5                        A:F5 X:00 Y:5E P:E4 SP:F9 STACK: 00 00 C6 11 D0 80
F810  D0 03     BNE $F815                       A:F5 X:00 Y:5E P:67 SP:F9 STACK: 00 00 C6 11 D0 80
F812  50 01     BVC $F815                       A:F5 X:00 Y:5E P:67 SP:F9 STACK: 00 00 C6 11 D0 80
F814  60        RTS                             A:F5 X:00 Y:5E P:67 SP:F9 STACK: 00 00 C6 11 D0 80
D081  C8        INY                             A:F5 X:00 Y:5E P:67 SP:FB STACK: 00 00 C6 11
D082  A9 70     LDA #$70                        A:F5 X:00 Y:5F P:65 SP:FB STACK: 00 00 C6 11
D084  8D 00 03  STA $0300 = EF                  A:70 X:00 Y:5F P:65 SP:FB STACK: 00 00 C6 11
D087  20 18 F8  JSR $F818                       A:70 X:00 Y:5F P:65 SP:FB STACK: 00 00 C6 11
F818  38        SEC                             A:70 X:00 Y:5F P:65 SP:F9 STACK: 00 00 C6 11 D0 89
F819  B8        CLV                             A:70 X:00 Y:5F P:65 SP:F9 STACK: 00 00 C6 11 D0 89
F81A  A9 70     LDA #$70                        A:70 X:00 Y:5F P:25 SP:F9 STACK: 00 00 C6 11 D0 89
F81C  60        RTS                             A:70 X:00 Y:5F P:25 SP:F9 STACK: 00 00 C6 11 D0 89
D08A  41 82     EOR ($82,X) @ 82 = 0300 = 70    A:70 X:00 Y:5F P:25 SP:FB STACK: 00 00 C6 11
D08C  20 1D F8  JSR $F81D                       A:00 X:00 Y:5F P:27 SP:FB STACK: 00 00 C6 11
F81D  D0 07     BNE $F826                       A:00 X:00 Y:5F P:27 SP:F9 STACK: 00 00 C6 11 D0 8E
F81F  70 05     BVS $F826                       A:00 X:00 Y:5F P:27 SP:F9 STACK: 00 00 C6 11 D0 8E
F821  90 03     BCC $F826                       A:00 X:00 Y:5F P:27 SP:F9 STACK: 00 00 C6 11 D0 8E
F823  30 01     BMI $F826                       A:00 X:00 Y:5F P:27 SP:F9 STACK: 00 00 C6 11 D0 8E
F825  60        RTS                             A:00 X:00 Y:5F P:27 SP:F9 STACK: 00 00 C6 11 D0 8E
D08F  C8        INY                             A:00 X:00 Y:5F P:27 SP:FB STACK: 00 00 C6 11
D090  A9 69     LDA #$69                        A:00 X:00 Y:60 P:25 SP:FB STACK: 00 00 C6 11
D092  8D 00 02  STA $0200 = AA                  A:69 X:00 Y:60 P:25 SP:FB STACK: 00 00 C6 11
D095  20 29 F8  JSR $F829                       A:69 X:00 Y:60 P:25 SP:FB STACK: 00 00 C6 11
F829  18        CLC                             A:69 X:00 Y:60 P:25 SP:F9 STACK: 00 00 C6 11 D0 97
F82A  24 01     BIT $01 = FF                    A:69 X:00 Y:60 P:24 SP:F9 STACK: 00 00 C6 11 D0 97
F82C  A9 00     LDA #$00                        A:69 X:00 Y:60 P:E4 SP:F9 STACK: 00 00 C6 11 D0 97
F82E  60        RTS                             A:00 X:00 Y:60 P:66 SP:F9 STACK: 00 00 C6 11 D0 97
D098  61 80     ADC ($80,X) @ 80 = 0200 = 69    A:00 X:00 Y:60 P:66 SP:FB STACK: 00 00 C6 11
D09A  20 2F F8  JSR $F82F                       A:69 X:00 Y:60 P:24 SP:FB STACK: 00 00 C6 11
F82F  30 09     BMI $F83A                       A:69 X:00 Y:60 P:24 SP:F9 STACK: 00 00 C6 11 D0 9C
F831  B0 07     BCS $F83A                       A:69 X:00 Y:60 P:24 SP:F9 STACK: 00 00 C6 11 D0 9C
F833  C9 69     CMP #$69                        A:69 X:00 Y:60 P:24 SP:F9 STACK: 00 00 C6 11 D0 9C
F835  D0 03     BNE $F83A                       A:69 X:00 Y:60 P:27 SP:F9 STACK: 00 00 C6 11 D0 9C
F837  70 01     BVS $F83A                       A:69 X:00 Y:60 P:27 SP:F9 STACK: 00 00 C6 11 D0 9C
F839  60        RTS                             A:69 X:00 Y:60 P:27 SP:F9 STACK: 00 00 C6 11 D0 9C
D09D  C8        INY                             A:69 X:00 Y:60 P:27 SP:FB STACK: 00 00 C6 11
D09E  20 3D F8  JSR $F83D                       A:69 X:00 Y:61 P:25 SP:FB STACK: 00 00 C6 11
F83D  38        SEC                             A:69 X:00 Y:61 P:25 SP:F9 STACK: 00 00 C6 11 D0 A0
F83E  24 01     BIT $01 = FF                    A:69 X:00 Y:61 P:25 SP:F9 STACK: 00 00 C6 11 D0 A0
F840  A9 00     LDA #$00                        A:69 X:00 Y:61 P:E5 SP:F9 STACK: 00 00 C6 11 D0 A0
F842  60        RTS                             A:00 X:00 Y:61 P:67 SP:F9 STACK: 00 00 C6 11 D0 A0
D0A1  61 80     ADC ($80,X) @ 80 = 0200 = 69    A:00 X:00 Y:61 P:67 SP:FB STACK: 00 00 C6 11
D0A3  20 43 F8  JSR $F843                       A:6A X:00 Y:61 P:24 SP:FB STACK: 00 00 C6 11
F843  30 09     BMI $F84E                       A:6A X:00 Y:61 P:24 SP:F9 STACK: 00 00 C6 11 D0 A5
F845  B0 07     BCS $F84E                       A:6A X:00 Y:61 P:24 SP:F9 STACK: 00 00 C6 11 D0 A5
F847  C9 6A     CMP #$6A                        A:6A X:00 Y:61 P:24 SP:F9 STACK: 00 00 C6 11 D0 A5
F849  D0 03     BNE $F84E                       A:6A X:00 Y:61 P:27 SP:F9 STACK: 00 00 C6 11 D0 A5
F84B  70 01     BVS $F84E                       A:6A X:00 Y:61 P:27 SP:F9 STACK: 00 00 C6 11 D0 A5
F84D  60        RTS                             A:6A X:00 Y:61 P:27 SP:F9 STACK: 00 00 C6 11 D0 A5
D0A6  C8        INY                             A:6A X:00 Y:61 P:27 SP:FB STACK: 00 00 C6 11
D0A7  A9 7F     LDA #$7F                        A:6A X:00 Y:62 P:25 SP:FB STACK: 00 00 C6 11
D0A9  8D 00 02  STA $0200 = 69                  A:7F X:00 Y:62 P:25 SP:FB STACK: 00 00 C6 11
D0AC  20 51 F8  JSR $F851                       A:7F X:00 Y:62 P:25 SP:FB STACK: 00 00 C6 11
F851  38        SEC                             A:7F X:00 Y:62 P:25 SP:F9 STACK: 00 00 C6 11 D0 AE
F852  B8        CLV                             A:7F X:00 Y:62 P:25 SP:F9 STACK: 00 00 C6 11 D0 AE
F853  A9 7F     LDA #$7F                        A:7F X:00 Y:62 P:25 SP:F9 STACK: 00 00 C6 11 D0 AE
F855  60        RTS                             A:7F X:00 Y:62 P:25 SP:F9 STACK: 00 00 C6 11 D0 AE
D0AF  61 80     ADC ($80,X) @ 80 = 0200 = 7F    A:7F X:00 Y:62 P:25 SP:FB STACK: 00 00 C6 11
D0B1  20 56 F8  JSR $F856                       A:FF X:00 Y:62 P:E4 SP:FB STACK: 00 00 C6 11
F856  10 09     BPL $F861                       A:FF X:00 Y:62 P:E4 SP:F9 STACK: 00 00 C6 11 D0 B3
F858  B0 07     BCS $F861                       A:FF X:00 Y:62 P:E4 SP:F9 STACK: 00 00 C6 11 D0 B3
F85A  C9 FF     CMP #$FF                        A:FF X:00 Y:62 P:E4 SP:F9 STACK: 00 00 C6 11 D0 B3
F85C  D0 03     BNE $F861                       A:FF X:00 Y:62 P:67 SP:F9 STACK: 00 00 C6 11 D0 B3
F85E  50 01     BVC $F861                       A:FF X:00 Y:62 P:67 SP:F9 STACK: 00 00 C6 11 D0 B3
F860  60        RTS                             A:FF X:00 Y:62 P:67 SP:F9 STACK: 00 00 C6 11 D0 B3
D0B4  C8        INY                             A:FF X:00 Y:62 P:67 SP:FB STACK: 00 00 C6 11
D0B5  A9 80     LDA #$80                        A:FF X:00 Y:63 P:65 SP:FB STACK: 00 00 C6 11
D0B7  8D 00 02  STA $0200 = 7F                  A:80 X:00 Y:63 P:E5 SP:FB STACK: 00 00 C6 11
D0BA  20 64 F8  JSR $F864                       A:80 X:00 Y:63 P:E5 SP:FB STACK: 00 00 C6 11
F864  18        CLC                             A:80 X:00 Y:63 P:E5 SP:F9 STACK: 00 00 C6 11 D0 BC
F865  24 01     BIT $01 = FF                    A:80 X:00 Y:63 P:E4 SP:F9 STACK: 00 00 C6 11 D0 BC
F867  A9 7F     LDA #$7F                        A:80 X:00 Y:63 P:E4 SP:F9 STACK: 00 00 C6 11 D0 BC
F869  60        RTS                             A:7F X:00 Y:63 P:64 SP:F9 STACK: 00 00 C6 11 D0 BC
D0BD  61 80     ADC ($80,X) @ 80 = 0200 = 80    A:7F X:00 Y:63 P:64 SP:FB STACK: 00 00 C6 11
D0BF  20 6A F8  JSR $F86A                       A:FF X:00 Y:63 P:A4 SP:FB STACK: 00 00 C6 11
F86A  10 09     BPL $F875                       A:FF X:00 Y:63 P:A4 SP:F9 STACK: 00 00 C6 11 D0 C1
F86C  B0 07     BCS $F875                       A:FF X:00 Y:63 P:A4 SP:F9 STACK: 00 00 C6 11 D0 C1
F86E  C9 FF     CMP #$FF                        A:FF X:00 Y:63 P:A4 SP:F9 STACK: 00 00 C6 11 D0 C1
F870  D0 03     BNE $F875                       A:FF X:00 Y:63 P:27 SP:F9 STACK: 00 00 C6 11 D0 C1
F872  70 01     BVS $F875                       A:FF X:00 Y:63 P:27 SP:F9 STACK: 00 00 C6 11 D0 C1
F874  60        RTS                             A:FF X:00 Y:63 P:27 SP:F9 STACK: 00 00 C6 11 D0 C1
D0C2  C8        INY                             A:FF X:00 Y:63 P:27 SP:FB STACK: 00 00 C6 11
D0C3  20 78 F8  JSR $F878                       A:FF X:00 Y:64 P:25 SP:FB STACK: 00 00 C6 11
F878  38        SEC                             A:FF X:00 Y:64 P:25 SP:F9 STACK: 00 00 C6 11 D0 C5
F879  B8        CLV                             A:FF X:00 Y:64 P:25 SP:F9 STACK: 00 00 C6 11 D0 C5
F87A  A9 7F     LDA #$7F                        A:FF X:00 Y:64 P:25 SP:F9 STACK: 00 00 C6 11 D0 C5
F87C  60        RTS                             A:7F X:00 Y:64 P:25 SP:F9 STACK: 00 00 C6 11 D0 C5
D0C6  61 80     ADC ($80,X) @ 80 = 0200 = 80    A:7F X:00 Y:64 P:25 SP:FB STACK: 00 00 C6 11
D0C8  20 7D F8  JSR $F87D                       A:00 X:00 Y:64 P:27 SP:FB STACK: 00 00 C6 11
F87D  D0 07     BNE $F886                       A:00 X:00 Y:64 P:27 SP:F9 STACK: 00 00 C6 11 D0 CA
F87F  30 05     BMI $F886                       A:00 X:00 Y:64 P:27 SP:F9 STACK: 00 00 C6 11 D0 CA
F881  70 03     BVS $F886                       A:00 X:00 Y:64 P:27 SP:F9 STACK: 00 00 C6 11 D0 CA
F883  90 01     BCC $F886                       A:00 X:00 Y:64 P:27 SP:F9 STACK: 00 00 C6 11 D0 CA
F885  60        RTS                             A:00 X:00 Y:64 P:27 SP:F9 STACK: 00 00 C6 11 D0 CA
D0CB  C8        INY                             A:00 X:00 Y:64 P:27 SP:FB STACK: 00 00 C6 11
D0CC  A9 40     LDA #$40                        A:00 X:00 Y:65 P:25 SP:FB STACK: 00 00 C6 11
D0CE  8D 00 02  STA $0200 = 80                  A:40 X:00 Y:65 P:25 SP:FB STACK: 00 00 C6 11
D0D1  20 89 F8  JSR $F889                       A:40 X:00 Y:65 P:25 SP:FB STACK: 00 00 C6 11
F889  24 01     BIT $01 = FF                    A:40 X:00 Y:65 P:25 SP:F9 STACK: 00 00 C6 11 D0 D3
F88B  A9 40     LDA #$40                        A:40 X:00 Y:65 P:E5 SP:F9 STACK: 00 00 C6 11 D0 D3
F88D  60        RTS                             A:40 X:00 Y:65 P:65 SP:F9 STACK: 00 00 C6 11 D0 D3
D0D4  C1 80     CMP ($80,X) @ 80 = 0200 = 40    A:40 X:00 Y:65 P:65 SP:FB STACK: 00 00 C6 11
D0D6  20 8E F8  JSR $F88E                       A:40 X:00 Y:65 P:67 SP:FB STACK: 00 00 C6 11
F88E  30 07     BMI $F897                       A:40 X:00 Y:65 P:67 SP:F9 STACK: 00 00 C6 11 D0 D8
F890  90 05     BCC $F897                       A:40 X:00 Y:65 P:67 SP:F9 STACK: 00 00 C6 11 D0 D8
F892  D0 03     BNE $F897                       A:40 X:00 Y:65 P:67 SP:F9 STACK: 00 00 C6 11 D0 D8
F894  50 01     BVC $F897                       A:40 X:00 Y:65 P:67 SP:F9 STACK: 00 00 C6 11 D0 D8
F896  60        RTS                             A:40 X:00 Y:65 P:67 SP:F9 STACK: 00 00 C6 11 D0 D8
D0D9  C8        INY                             A:40 X:00 Y:65 P:67 SP:FB STACK: 00 00 C6 11
D0DA  48        PHA                             A:40 X:00 Y:66 P:65 SP:FB STACK: 00 00 C6 11
D0DB  A9 3F     LDA #$3F                        A:40 X:00 Y:66 P:65 SP:FA STACK: 00 00 C6 11 40
D0DD  8D 00 02  STA $0200 = 40                  A:3F X:00 Y:66 P:65 SP:FA STACK: 00 00 C6 11 40
D0E0  68        PLA                             A:3F X:00 Y:66 P:65 SP:FA STACK: 00 00 C6 11 40
D0E1  20 9A F8  JSR $F89A                       A:40 X:00 Y:66 P:65 SP:FB STACK: 00 00 C6 11
F89A  B8        CLV                             A:40 X:00 Y:66 P:65 SP:F9 STACK: 00 00 C6 11 D0 E3
F89B  60        RTS                             A:40 X:00 Y:66 P:25 SP:F9 STACK: 00 00 C6 11 D0 E3
D0E4  C1 80     CMP ($80,X) @ 80 = 0200 = 3F    A:40 X:00 Y:66 P:25 SP:FB STACK: 00 00 C6 11
D0E6  20 9C F8  JSR $F89C                       A:40 X:00 Y:66 P:25 SP:FB STACK: 00 00 C6 11
F89C  F0 07     BEQ $F8A5                       A:40 X:00 Y:66 P:25 SP:F9 STACK: 00 00 C6 11 D0 E8
F89E  30 05     BMI $F8A5                       A:40 X:00 Y:66 P:25 SP:F9 STACK: 00 00 C6 11 D0 E8
F8A0  90 03     BCC $F8A5                       A:40 X:00 Y:66 P:25 SP:F9 STACK: 00 00 C6 11 D0 E8
F8A2  70 01     BVS $F8A5                       A:40 X:00 Y:66 P:25 SP:F9 STACK: 00 00 C6 11 D0 E8
F8A4  60        RTS                             A:40 X:00 Y:66 P:25 SP:F9 STACK: 00 00 C6 11 D0 E8
D0E9  C8        INY                             A:40 X:00 Y:66 P:25 SP:FB STACK: 00 00 C6 11
D0EA  48        PHA                             A:40 X:00 Y:67 P:25 SP:FB STACK: 00 00 C6 11
D0EB  A9 41     LDA #$41                        A:40 X:00 Y:67 P:25 SP:FA STACK: 00 00 C6 11 40
D0ED  8D 00 02  STA $0200 = 3F                  A:41 X:00 Y:67 P:25 SP:FA STACK: 00 00 C6 11 40
D0F0  68        PLA                             A:41 X:00 Y:67 P:25 SP:FA STACK: 00 00 C6 11 40
D0F1  C1 80     CMP ($80,X) @ 80 = 0200 = 41    A:40 X:00 Y:67 P:25 SP:FB STACK: 00 00 C6 11
D0F3  20 A8 F8  JSR $F8A8                       A:40 X:00 Y:67 P:A4 SP:FB STACK: 00 00 C6 11
F8A8  F0 05     BEQ $F8AF                       A:40 X:00 Y:67 P:A4 SP:F9 STACK: 00 00 C6 11 D0 F5
F8AA  10 03     BPL $F8AF                       A:40 X:00 Y:67 P:A4 SP:F9 STACK: 00 00 C6 11 D0 F5
F8AC  10 01     BPL $F8AF                       A:40 X:00 Y:67 P:A4 SP:F9 STACK: 00 00 C6 11 D0 F5
F8AE  60        RTS                             A:40 X:00 Y:67 P:A4 SP:F9 STACK: 00 00 C6 11 D0 F5
D0F6  C8        INY                             A:40 X:00 Y:67 P:A4 SP:FB STACK: 00 00 C6 11
D0F7  48        PHA                             A:40 X:00 Y:68 P:24 SP:FB STACK: 00 00 C6 11
D0F8  A9 00     LDA #$00                        A:40 X:00 Y:68 P:24 SP:FA STACK: 00 00 C6 11 40
D0FA  8D 00 02  STA $0200 = 41                  A:00 X:00 Y:68 P:26 SP:FA STACK: 00 00 C6 11 40
D0FD  68        PLA                             A:00 X:00 Y:68 P:26 SP:FA STACK: 00 00 C6 11 40
D0FE  20 B2 F8  JSR $F8B2                       A:40 X:00 Y:68 P:24 SP:FB STACK: 00 00 C6 11
F8B2  A9 80     LDA #$80                        A:40 X:00 Y:68 P:24 SP:F9 STACK: 00 00 C6 11 D1 00
F8B4  60        RTS                             A:80 X:00 Y:68 P:A4 SP:F9 STACK: 00 00 C6 11 D1 00
D101  C1 80     CMP ($80,X) @ 80 = 0200 = 00    A:80 X:00 Y:68 P:A4 SP:FB STACK: 00 00 C6 11
D103  20 B5 F8  JSR $F8B5                       A:80 X:00 Y:68 P:A5 SP:FB STACK: 00 00 C6 11
F8B5  F0 05     BEQ $F8BC                       A:80 X:00 Y:68 P:A5 SP:F9 STACK: 00 00 C6 11 D1 05
F8B7  10 03     BPL $F8BC                       A:80 X:00 Y:68 P:A5 SP:F9 STACK: 00 00 C6 11 D1 05
F8B9  90 01     BCC $F8BC                       A:80 X:00 Y:68 P:A5 SP:F9 STACK: 00 00 C6 11 D1 05
F8BB  60        RTS                             A:80 X:00 Y:68 P:A5 SP:F9 STACK: 00 00 C6 11 D1 05
D106  C8        INY                             A:80 X:00 Y:68 P:A5 SP:FB STACK: 00 00 C6 11
D107  48        PHA                             A:80 X:00 Y:69 P:25 SP:FB STACK: 00 00 C6 11
D108  A9 80     LDA #$80                        A:80 X:00 Y:69 P:25 SP:FA STACK: 00 00 C6 11 80
D10A  8D 00 02  STA $0200 = 00                  A:80 X:00 Y:69 P:A5 SP:FA STACK: 00 00 C6 11 80
D10D  68        PLA                             A:80 X:00 Y:69 P:A5 SP:FA STACK: 00 00 C6 11 80
D10E  C1 80     CMP ($80,X) @ 80 = 0200 = 80    A:80 X:00 Y:69 P:A5 SP:FB STACK: 00 00 C6 11
D110  20 BF F8  JSR $F8BF                       A:80 X:00 Y:69 P:27 SP:FB STACK: 00 00 C6 11
F8BF  D0 05     BNE $F8C6                       A:80 X:00 Y:69 P:27 SP:F9 STACK: 00 00 C6 11 D1 12
F8C1  30 03     BMI $F8C6                       A:80 X:00 Y:69 P:27 SP:F9 STACK: 00 00 C6 11 D1 12
F8C3  90 01     BCC $F8C6                       A:80 X:00 Y:69 P:27 SP:F9 STACK: 00 00 C6 11 D1 12
F8C5  60        RTS                             A:80 X:00 Y:69 P:27 SP:F9 STACK: 00 00 C6 11 D1 12
D113  C8        INY                             A:80 X:00 Y:69 P:27 SP:FB STACK: 00 00 C6 11
D114  48        PHA                             A:80 X:00 Y:6A P:25 SP:FB STACK: 00 00 C6 11
D115  A9 81     LDA #$81                        A:80 X:00 Y:6A P:25 SP:FA STACK: 00 00 C6 11 80
D117  8D 00 02  STA $0200 = 80                  A:81 X:00 Y:6A P:A5 SP:FA STACK: 00 00 C6 11 80
D11A  68        PLA                             A:81 X:00 Y:6A P:A5 SP:FA STACK: 00 00 C6 11 80
D11B  C1 80     CMP ($80,X) @ 80 = 0200 = 81    A:80 X:00 Y:6A P:A5 SP:FB STACK: 00 00 C6 11
D11D  20 C9 F8  JSR $F8C9                       A:80 X:00 Y:6A P:A4 SP:FB STACK: 00 00 C6 11
F8C9  B0 05     BCS $F8D0                       A:80 X:00 Y:6A P:A4 SP:F9 STACK: 00 00 C6 11 D1 1F
F8CB  F0 03     BEQ $F8D0                       A:80 X:00 Y:6A P:A4 SP:F9 STACK: 00 00 C6 11 D1 1F
F8CD  10 01     BPL $F8D0                       A:80 X:00 Y:6A P:A4 SP:F9 STACK: 00 00 C6 11 D1 1F
F8CF  60        RTS                             A:80 X:00 Y:6A P:A4 SP:F9 STACK: 00 00 C6 11 D1 1F
D120  C8        INY                             A:80 X:00 Y:6A P:A4 SP:FB STACK: 00 00 C6 11
D121  48        PHA                             A:80 X:00 Y:6B P:24 SP:FB STACK: 00 00 C6 11
D122  A9 7F     LDA #$7F                        A:80 X:00 Y:6B P:24 SP:FA STACK: 00 00 C6 11 80
D124  8D 00 02  STA $0200 = 81                  A:7F X:00 Y:6B P:24 SP:FA STACK: 00 00 C6 11 80
D127  68        PLA                             A:7F X:00 Y:6B P:24 SP:FA STACK: 00 00 C6 11 80
D128  C1 80     CMP ($80,X) @ 80 = 0200 = 7F    A:80 X:00 Y:6B P:A4 SP:FB STACK: 00 00 C6 11
D12A  20 D3 F8  JSR $F8D3                       A:80 X:00 Y:6B P:25 SP:FB STACK: 00 00 C6 11
F8D3  90 05     BCC $F8DA                       A:80 X:00 Y:6B P:25 SP:F9 STACK: 00 00 C6 11 D1 2C
F8D5  F0 03     BEQ $F8DA                       A:80 X:00 Y:6B P:25 SP:F9 STACK: 00 00 C6 11 D1 2C
F8D7  30 01     BMI $F8DA                       A:80 X:00 Y:6B P:25 SP:F9 STACK: 00 00 C6 11 D1 2C
F8D9  60        RTS                             A:80 X:00 Y:6B P:25 SP:F9 STACK: 00 00 C6 11 D1 2C
D12D  C8        INY                             A:80 X:00 Y:6B P:25 SP:FB STACK: 00 00 C6 11
D12E  A9 40     LDA #$40                        A:80 X:00 Y:6C P:25 SP:FB STACK: 00 00 C6 11
D130  8D 00 02  STA $0200 = 7F                  A:40 X:00 Y:6C P:25 SP:FB STACK: 00 00 C6 11
D133  20 31 F9  JSR $F931                       A:40 X:00 Y:6C P:25 SP:FB STACK: 00 00 C6 11
F931  24 01     BIT $01 = FF                    A:40 X:00 Y:6C P:25 SP:F9 STACK: 00 00 C6 11 D1 35
F933  A9 40     LDA #$40                        A:40 X:00 Y:6C P:E5 SP:F9 STACK: 00 00 C6 11 D1 35
F935  38        SEC                             A:40 X:00 Y:6C P:65 SP:F9 STACK: 00 00 C6 11 D1 35
F936  60        RTS                             A:40 X:00 Y:6C P:65 SP:F9 STACK: 00 00 C6 11 D1 35
D136  E1 80     SBC ($80,X) @ 80 = 0200 = 40    A:40 X:00 Y:6C P:65 SP:FB STACK: 00 00 C6 11
D138  20 37 F9  JSR $F937                       A:00 X:00 Y:6C P:27 SP:FB STACK: 00 00 C6 11
F937  30 0B     BMI $F944                       A:00 X:00 Y:6C P:27 SP:F9 STACK: 00 00 C6 11 D1 3A
F939  90 09     BCC $F944                       A:00 X:00 Y:6C P:27 SP:F9 STACK: 00 00 C6 11 D1 3A
F93B  D0 07     BNE $F944                       A:00 X:00 Y:6C P:27 SP:F9 STACK: 00 00 C6 11 D1 3A
F93D  70 05     BVS $F944                       A:00 X:00 Y:6C P:27 SP:F9 STACK: 00 00 C6 11 D1 3A
F93F  C9 00     CMP #$00                        A:00 X:00 Y:6C P:27 SP:F9 STACK: 00 00 C6 11 D1 3A
F941  D0 01     BNE $F944                       A:00 X:00 Y:6C P:27 SP:F9 STACK: 00 00 C6 11 D1 3A
F943  60        RTS                             A:00 X:00 Y:6C P:27 SP:F9 STACK: 00 00 C6 11 D1 3A
D13B  C8        INY                             A:00 X:00 Y:6C P:27 SP:FB STACK: 00 00 C6 11
D13C  A9 3F     LDA #$3F                        A:00 X:00 Y:6D P:25 SP:FB STACK: 00 00 C6 11
D13E  8D 00 02  STA $0200 = 40                  A:3F X:00 Y:6D P:25 SP:FB STACK: 00 00 C6 11
D141  20 47 F9  JSR $F947                       A:3F X:00 Y:6D P:25 SP:FB STACK: 00 00 C6 11
F947  B8        CLV                             A:3F X:00 Y:6D P:25 SP:F9 STACK: 00 00 C6 11 D1 43
F948  38        SEC                             A:3F X:00 Y:6D P:25 SP:F9 STACK: 00 00 C6 11 D1 43
F949  A9 40     LDA #$40                        A:3F X:00 Y:6D P:25 SP:F9 STACK: 00 00 C6 11 D1 43
F94B  60        RTS                             A:40 X:00 Y:6D P:25 SP:F9 STACK: 00 00 C6 11 D1 43
D144  E1 80     SBC ($80,X) @ 80 = 0200 = 3F    A:40 X:00 Y:6D P:25 SP:FB STACK: 00 00 C6 11
D146  20 4C F9  JSR $F94C                       A:01 X:00 Y:6D P:25 SP:FB STACK: 00 00 C6 11
F94C  F0 0B     BEQ $F959                       A:01 X:00 Y:6D P:25 SP:F9 STACK: 00 00 C6 11 D1 48
F94E  30 09     BMI $F959                       A:01 X:00 Y:6D P:25 SP:F9 STACK: 00 00 C6 11 D1 48
F950  90 07     BCC $F959                       A:01 X:00 Y:6D P:25 SP:F9 STACK: 00 00 C6 11 D1 48
F952  70 05     BVS $F959                       A:01 X:00 Y:6D P:25 SP:F9 STACK: 00 00 C6 11 D1 48
F954  C9 01     CMP #$01                        A:01 X:00 Y:6D P:25 SP:F9 STACK: 00 00 C6 11 D1 48
F956  D0 01     BNE $F959                       A:01 X:00 Y:6D P:27 SP:F9 STACK: 00 00 C6 11 D1 48
F958  60        RTS                             A:01 X:00 Y:6D P:27 SP:F9 STACK: 00 00 C6 11 D1 48
D149  C8        INY                             A:01 X:00 Y:6D P:27 SP:FB STACK: 00 00 C6 11
D14A  A9 41     LDA #$41                        A:01 X:00 Y:6E P:25 SP:FB STACK: 00 00 C6 11
D14C  8D 00 02  STA $0200 = 3F                  A:41 X:00 Y:6E P:25 SP:FB STACK: 00 00 C6 11
D14F  20 5C F9  JSR $F95C                       A:41 X:00 Y:6E P:25 SP:FB STACK: 00 00 C6 11
F95C  A9 40     LDA #$40                        A:41 X:00 Y:6E P:25 SP:F9 STACK: 00 00 C6 11 D1 51
F95E  38        SEC                             A:40 X:00 Y:6E P:25 SP:F9 STACK: 00 00 C6 11 D1 51
F95F  24 01     BIT $01 = FF                    A:40 X:00 Y:6E P:25 SP:F9 STACK: 00 00 C6 11 D1 51
F961  60        RTS                             A:40 X:00 Y:6E P:E5 SP:F9 STACK: 00 00 C6 11 D1 51
D152  E1 80     SBC ($80,X) @ 80 = 0200 = 41    A:40 X:00 Y:6E P:E5 SP:FB STACK: 00 00 C6 11
D154  20 62 F9  JSR $F962                       A:FF X:00 Y:6E P:A4 SP:FB STACK: 00 00 C6 11
F962  B0 0B     BCS $F96F                       A:FF X:00 Y:6E P:A4 SP:F9 STACK: 00 00 C6 11 D1 56
F964  F0 09     BEQ $F96F                       A:FF X:00 Y:6E P:A4 SP:F9 STACK: 00 00 C6 11 D1 56
F966  10 07     BPL $F96F                       A:FF X:00 Y:6E P:A4 SP:F9 STACK: 00 00 C6 11 D1 56
F968  70 05     BVS $F96F                       A:FF X:00 Y:6E P:A4 SP:F9 STACK: 00 00 C6 11 D1 56
F96A  C9 FF     CMP #$FF                        A:FF X:00 Y:6E P:A4 SP:F9 STACK: 00 00 C6 11 D1 56
F96C  D0 01     BNE $F96F                       A:FF X:00 Y:6E P:27 SP:F9 STACK: 00 00 C6 11 D1 56
F96E  60        RTS                             A:FF X:00 Y:6E P:27 SP:F9 STACK: 00 00 C6 11 D1 56
D157  C8        INY                             A:FF X:00 Y:6E P:27 SP:FB STACK: 00 00 C6 11
D158  A9 00     LDA #$00                        A:FF X:00 Y:6F P:25 SP:FB STACK: 00 00 C6 11
D15A  8D 00 02  STA $0200 = 41                  A:00 X:00 Y:6F P:27 SP:FB STACK: 00 00 C6 11
D15D  20 72 F9  JSR $F972                       A:00 X:00 Y:6F P:27 SP:FB STACK: 00 00 C6 11
F972  18        CLC                             A:00 X:00 Y:6F P:27 SP:F9 STACK: 00 00 C6 11 D1 5F
F973  A9 80     LDA #$80                        A:00 X:00 Y:6F P:26 SP:F9 STACK: 00 00 C6 11 D1 5F
F975  60        RTS                             A:80 X:00 Y:6F P:A4 SP:F9 STACK: 00 00 C6 11 D1 5F
D160  E1 80     SBC ($80,X) @ 80 = 0200 = 00    A:80 X:00 Y:6F P:A4 SP:FB STACK: 00 00 C6 11
D162  20 76 F9  JSR $F976                       A:7F X:00 Y:6F P:65 SP:FB STACK: 00 00 C6 11
F976  90 05     BCC $F97D                       A:7F X:00 Y:6F P:65 SP:F9 STACK: 00 00 C6 11 D1 64
F978  C9 7F     CMP #$7F                        A:7F X:00 Y:6F P:65 SP:F9 STACK: 00 00 C6 11 D1 64
F97A  D0 01     BNE $F97D                       A:7F X:00 Y:6F P:67 SP:F9 STACK: 00 00 C6 11 D1 64
F97C  60        RTS                             A:7F X:00 Y:6F P:67 SP:F9 STACK: 00 00 C6 11 D1 64
D165  C8        INY                             A:7F X:00 Y:6F P:67 SP:FB STACK: 00 00 C6 11
D166  A9 7F     LDA #$7F                        A:7F X:00 Y:70 P:65 SP:FB STACK: 00 00 C6 11
D168  8D 00 02  STA $0200 = 00                  A:7F X:00 Y:70 P:65 SP:FB STACK: 00 00 C6 11
D16B  20 80 F9  JSR $F980                       A:7F X:00 Y:70 P:65 SP:FB STACK: 00 00 C6 11
F980  38        SEC                             A:7F X:00 Y:70 P:65 SP:F9 STACK: 00 00 C6 11 D1 6D
F981  A9 81     LDA #$81                        A:7F X:00 Y:70 P:65 SP:F9 STACK: 00 00 C6 11 D1 6D
F983  60        RTS                             A:81 X:00 Y:70 P:E5 SP:F9 STACK: 00 00 C6 11 D1 6D
D16E  E1 80     SBC ($80,X) @ 80 = 0200 = 7F    A:81 X:00 Y:70 P:E5 SP:FB STACK: 00 00 C6 11
D170  20 84 F9  JSR $F984                       A:02 X:00 Y:70 P:65 SP:FB STACK: 00 00 C6 11
F984  50 07     BVC $F98D                       A:02 X:00 Y:70 P:65 SP:F9 STACK: 00 00 C6 11 D1 72
F986  90 05     BCC $F98D                       A:02 X:00 Y:70 P:65 SP:F9 STACK: 00 00 C6 11 D1 72
F988  C9 02     CMP #$02                        A:02 X:00 Y:70 P:65 SP:F9 STACK: 00 00 C6 11 D1 72
F98A  D0 01     BNE $F98D                       A:02 X:00 Y:70 P:67 SP:F9 STACK: 00 00 C6 11 D1 72
F98C  60        RTS                             A:02 X:00 Y:70 P:67 SP:F9 STACK: 00 00 C6 11 D1 72
D173  60        RTS                             A:02 X:00 Y:70 P:67 SP:FB STACK: 00 00 C6 11
C612  20 74 D1  JSR $D174                       A:02 X:00 Y:70 P:67 SP:FD STACK: 00 00
D174  A9 55     LDA #$55                        A:02 X:00 Y:70 P:67 SP:FB STACK: 00 00 C6 14
D176  85 78     STA $78 = 00                    A:55 X:00 Y:70 P:65 SP:FB STACK: 00 00 C6 14
D178  A9 FF     LDA #$FF                        A:55 X:00 Y:70 P:65 SP:FB STACK: 00 00 C6 14
D17A  85 01     STA $01 = FF                    A:FF X:00 Y:70 P:E5 SP:FB STACK: 00 00 C6 14
D17C  24 01     BIT $01 = FF                    A:FF X:00 Y:70 P:E5 SP:FB STACK: 00 00 C6 14
D17E  A0 11     LDY #$11                        A:FF X:00 Y:70 P:E5 SP:FB STACK: 00 00 C6 14
D180  A2 23     LDX #$23                        A:FF X:00 Y:11 P:65 SP:FB STACK: 00 00 C6 14
D182  A9 00     LDA #$00                        A:FF X:23 Y:11 P:65 SP:FB STACK: 00 00 C6 14
D184  A5 78     LDA $78 = 55                    A:00 X:23 Y:11 P:67 SP:FB STACK: 00 00 C6 14
D186  F0 10     BEQ $D198                       A:55 X:23 Y:11 P:65 SP:FB STACK: 00 00 C6 14
D188  30 0E     BMI $D198                       A:55 X:23 Y:11 P:65 SP:FB STACK: 00 00 C6 14
D18A  C9 55     CMP #$55                        A:55 X:23 Y:11 P:65 SP:FB STACK: 00 00 C6 14
D18C  D0 0A     BNE $D198                       A:55 X:23 Y:11 P:67 SP:FB STACK: 00 00 C6 14
D18E  C0 11     CPY #$11                        A:55 X:23 Y:11 P:67 SP:FB STACK: 00 00 C6 14
D190  D0 06     BNE $D198                       A:55 X:23 Y:11 P:67 SP:FB STACK: 00 00 C6 14
D192  E0 23     CPX #$23                        A:55 X:23 Y:11 P:67 SP:FB STACK: 00 00 C6 14
D194  50 02     BVC $D198                       A:55 X:23 Y:11 P:67 SP:FB STACK: 00 00 C6 14
D196  F0 04     BEQ $D19C                       A:55 X:23 Y:11 P:67 SP:FB STACK: 00 00 C6 14
D19C  A9 46     LDA #$46                        A:55 X:23 Y:11 P:67 SP:FB STACK: 00 00 C6 14
D19E  24 01     BIT $01 = FF                    A:46 X:23 Y:11 P:65 SP:FB STACK: 00 00 C6 14
D1A0  85 78     STA $78 = 55                    A:46 X:23 Y:11 P:E5 SP:FB STACK: 00 00 C6 14
D1A2  F0 0A     BEQ $D1AE                       A:46 X:23 Y:11 P:E5 SP:FB STACK: 00 00 C6 14
D1A4  10 08     BPL $D1AE                       A:46 X:23 Y:11 P:E5 SP:FB STACK: 00 00 C6 14
D1A6  50 06     BVC $D1AE                       A:46 X:23 Y:11 P:E5 SP:FB STACK: 00 00 C6 14
D1A8  A5 78     LDA $78 = 46                    A:46 X:23 Y:11 P:E5 SP:FB STACK: 00 00 C6 14
D1AA  C9 46     CMP #$46                        A:46 X:23 Y:11 P:65 SP:FB STACK: 00 00 C6 14
D1AC  F0 04     BEQ $D1B2                       A:46 X:23 Y:11 P:67 SP:FB STACK: 00 00 C6 14
D1B2  A9 55     LDA #$55                        A:46 X:23 Y:11 P:67 SP:FB STACK: 00 00 C6 14
D1B4  85 78     STA $78 = 46                    A:55 X:23 Y:11 P:65 SP:FB STACK: 00 00 C6 14
D1B6  24 01     BIT $01 = FF                    A:55 X:23 Y:11 P:65 SP:FB STACK: 00 00 C6 14
D1B8  A9 11     LDA #$11                        A:55 X:23 Y:11 P:E5 SP:FB STACK: 00 00 C6 14
D1BA  A2 23     LDX #$23                        A:11 X:23 Y:11 P:65 SP:FB STACK: 00 00 C6 14
D1BC  A0 00     LDY #$00                        A:11 X:23 Y:11 P:65 SP:FB STACK: 00 00 C6 14
D1BE  A4 78     LDY $78 = 55                    A:11 X:23 Y:00 P:67 SP:FB STACK: 00 00 C6 14
D1C0  F0 10     BEQ $D1D2                       A:11 X:23 Y:55 P:65 SP:FB STACK: 00 00 C6 14
D1C2  30 0E     BMI $D1D2                       A:11 X:23 Y:55 P:65 SP:FB STACK: 00 00 C6 14
D1C4  C0 55     CPY #$55                        A:11 X:23 Y:55 P:65 SP:FB STACK: 00 00 C6 14
D1C6  D0 0A     BNE $D1D2                       A:11 X:23 Y:55 P:67 SP:FB STACK: 00 00 C6 14
D1C8  C9 11     CMP #$11                        A:11 X:23 Y:55 P:67 SP:FB STACK: 00 00 C6 14
D1CA  D0 06     BNE $D1D2                       A:11 X:23 Y:55 P:67 SP:FB STACK: 00 00 C6 14
D1CC  E0 23     CPX #$23                        A:11 X:23 Y:55 P:67 SP:FB STACK: 00 00 C6 14
D1CE  50 02     BVC $D1D2                       A:11 X:23 Y:55 P:67 SP:FB STACK: 00 00 C6 14
D1D0  F0 04     BEQ $D1D6                       A:11 X:23 Y:55 P:67 SP:FB STACK: 00 00 C6 14
D1D6  A0 46     LDY #$46                        A:11 X:23 Y:55 P:67 SP:FB STACK: 00 00 C6 14
D1D8  24 01     BIT $01 = FF                    A:11 X:23 Y:46 P:65 SP:FB STACK: 00 00 C6 14
D1DA  84 78     STY $78 = 55                    A:11 X:23 Y:46 P:E5 SP:FB STACK: 00 00 C6 14
D1DC  F0 0A     BEQ $D1E8                       A:11 X:23 Y:46 P:E5 SP:FB STACK: 00 00 C6 14
D1DE  10 08     BPL $D1E8                       A:11 X:23 Y:46 P:E5 SP:FB STACK: 00 00 C6 14
D1E0  50 06     BVC $D1E8                       A:11 X:23 Y:46 P:E5 SP:FB STACK: 00 00 C6 14
D1E2  A4 78     LDY $78 = 46                    A:11 X:23 Y:46 P:E5 SP:FB STACK: 00 00 C6 14
D1E4  C0 46     CPY #$46                        A:11 X:23 Y:46 P:65 SP:FB STACK: 00 00 C6 14
D1E6  F0 04     BEQ $D1EC                       A:11 X:23 Y:46 P:67 SP:FB STACK: 00 00 C6 14
D1EC  24 01     BIT $01 = FF                    A:11 X:23 Y:46 P:67 SP:FB STACK: 00 00 C6 14
D1EE  A9 55     LDA #$55                        A:11 X:23 Y:46 P:E5 SP:FB STACK: 00 00 C6 14
D1F0  85 78     STA $78 = 46                    A:55 X:23 Y:46 P:65 SP:FB STACK: 00 00 C6 14
D1F2  A0 11     LDY #$11                        A:55 X:23 Y:46 P:65 SP:FB STACK: 00 00 C6 14
D1F4  A9 23     LDA #$23                        A:55 X:23 Y:11 P:65 SP:FB STACK: 00 00 C6 14
D1F6  A2 00     LDX #$00                        A:23 X:23 Y:11 P:65 SP:FB STACK: 00 00 C6 14
D1F8  A6 78     LDX $78 = 55                    A:23 X:00 Y:11 P:67 SP:FB STACK: 00 00 C6 14
D1FA  F0 10     BEQ $D20C                       A:23 X:55 Y:11 P:65 SP:FB STACK: 00 00 C6 14
D1FC  30 0E     BMI $D20C                       A:23 X:55 Y:11 P:65 SP:FB STACK: 00 00 C6 14
D1FE  E0 55     CPX #$55                        A:23 X:55 Y:11 P:65 SP:FB STACK: 00 00 C6 14
D200  D0 0A     BNE $D20C                       A:23 X:55 Y:11 P:67 SP:FB STACK: 00 00 C6 14
D202  C0 11     CPY #$11                        A:23 X:55 Y:11 P:67 SP:FB STACK: 00 00 C6 14
D204  D0 06     BNE $D20C                       A:23 X:55 Y:11 P:67 SP:FB STACK: 00 00 C6 14
D206  C9 23     CMP #$23                        A:23 X:55 Y:11 P:67 SP:FB STACK: 00 00 C6 14
D208  50 02     BVC $D20C                       A:23 X:55 Y:11 P:67 SP:FB STACK: 00 00 C6 14
D20A  F0 04     BEQ $D210                       A:23 X:55 Y:11 P:67 SP:FB STACK: 00 00 C6 14
D210  A2 46     LDX #$46                        A:23 X:55 Y:11 P:67 SP:FB STACK: 00 00 C6 14
D212  24 01     BIT $01 = FF                    A:23 X:46 Y:11 P:65 SP:FB STACK: 00 00 C6 14
D214  86 78     STX $78 = 55                    A:23 X:46 Y:11 P:E5 SP:FB STACK: 00 00 C6 14
D216  F0 0A     BEQ $D222                       A:23 X:46 Y:11 P:E5 SP:FB STACK: 00 00 C6 14
D218  10 08     BPL $D222                       A:23 X:46 Y:11 P:E5 SP:FB STACK: 00 00 C6 14
D21A  50 06     BVC $D222                       A:23 X:46 Y:11 P:E5 SP:FB STACK: 00 00 C6 14
D21C  A6 78     LDX $78 = 46                    A:23 X:46 Y:11 P:E5 SP:FB STACK: 00 00 C6 14
D21E  E0 46     CPX #$46                        A:23 X:46 Y:11 P:65 SP:FB STACK: 00 00 C6 14
D220  F0 04     BEQ $D226                       A:23 X:46 Y:11 P:67 SP:FB STACK: 00 00 C6 14
D226  A9 C0     LDA #$C0                        A:23 X:46 Y:11 P:67 SP:FB STACK: 00 00 C6 14
D228  85 78     STA $78 = 46                    A:C0 X:46 Y:11 P:E5 SP:FB STACK: 00 00 C6 14
D22A  A2 33     LDX #$33                        A:C0 X:46 Y:11 P:E5 SP:FB STACK: 00 00 C6 14
D22C  A0 88     LDY #$88                        A:C0 X:33 Y:11 P:65 SP:FB STACK: 00 00 C6 14
D22E  A9 05     LDA #$05                        A:C0 X:33 Y:88 P:E5 SP:FB STACK: 00 00 C6 14
D230  24 78     BIT $78 = C0                    A:05 X:33 Y:88 P:65 SP:FB STACK: 00 00 C6 14
D232  10 10     BPL $D244                       A:05 X:33 Y:88 P:E7 SP:FB STACK: 00 00 C6 14
D234  50 0E     BVC $D244                       A:05 X:33 Y:88 P:E7 SP:FB STACK: 00 00 C6 14
D236  D0 0C     BNE $D244                       A:05 X:33 Y:88 P:E7 SP:FB STACK: 00 00 C6 14
D238  C9 05     CMP #$05                        A:05 X:33 Y:88 P:E7 SP:FB STACK: 00 00 C6 14
D23A  D0 08     BNE $D244                       A:05 X:33 Y:88 P:67 SP:FB STACK: 00 00 C6 14
D23C  E0 33     CPX #$33                        A:05 X:33 Y:88 P:67 SP:FB STACK: 00 00 C6 14
D23E  D0 04     BNE $D244                       A:05 X:33 Y:88 P:67 SP:FB STACK: 00 00 C6 14
D240  C0 88     CPY #$88                        A:05 X:33 Y:88 P:67 SP:FB STACK: 00 00 C6 14
D242  F0 04     BEQ $D248                       A:05 X:33 Y:88 P:67 SP:FB STACK: 00 00 C6 14
D248  A9 03     LDA #$03                        A:05 X:33 Y:88 P:67 SP:FB STACK: 00 00 C6 14
D24A  85 78     STA $78 = C0                    A:03 X:33 Y:88 P:65 SP:FB STACK: 00 00 C6 14
D24C  A9 01     LDA #$01                        A:03 X:33 Y:88 P:65 SP:FB STACK: 00 00 C6 14
D24E  24 78     BIT $78 = 03                    A:01 X:33 Y:88 P:65 SP:FB STACK: 00 00 C6 14
D250  30 08     BMI $D25A                       A:01 X:33 Y:88 P:25 SP:FB STACK: 00 00 C6 14
D252  70 06     BVS $D25A                       A:01 X:33 Y:88 P:25 SP:FB STACK: 00 00 C6 14
D254  F0 04     BEQ $D25A                       A:01 X:33 Y:88 P:25 SP:FB STACK: 00 00 C6 14
D256  C9 01     CMP #$01                        A:01 X:33 Y:88 P:25 SP:FB STACK: 00 00 C6 14
D258  F0 04     BEQ $D25E                       A:01 X:33 Y:88 P:27 SP:FB STACK: 00 00 C6 14
D25E  A0 7E     LDY #$7E                        A:01 X:33 Y:88 P:27 SP:FB STACK: 00 00 C6 14
D260  A9 AA     LDA #$AA                        A:01 X:33 Y:7E P:25 SP:FB STACK: 00 00 C6 14
D262  85 78     STA $78 = 03                    A:AA X:33 Y:7E P:A5 SP:FB STACK: 00 00 C6 14
D264  20 B6 F7  JSR $F7B6                       A:AA X:33 Y:7E P:A5 SP:FB STACK: 00 00 C6 14
F7B6  18        CLC                             A:AA X:33 Y:7E P:A5 SP:F9 STACK: 00 00 C6 14 D2 66
F7B7  A9 FF     LDA #$FF                        A:AA X:33 Y:7E P:A4 SP:F9 STACK: 00 00 C6 14 D2 66
F7B9  85 01     STA $01 = FF                    A:FF X:33 Y:7E P:A4 SP:F9 STACK: 00 00 C6 14 D2 66
F7BB  24 01     BIT $01 = FF                    A:FF X:33 Y:7E P:A4 SP:F9 STACK: 00 00 C6 14 D2 66
F7BD  A9 55     LDA #$55                        A:FF X:33 Y:7E P:E4 SP:F9 STACK: 00 00 C6 14 D2 66
F7BF  60        RTS                             A:55 X:33 Y:7E P:64 SP:F9 STACK: 00 00 C6 14 D2 66
D267  05 78     ORA $78 = AA                    A:55 X:33 Y:7E P:64 SP:FB STACK: 00 00 C6 14
D269  20 C0 F7  JSR $F7C0                       A:FF X:33 Y:7E P:E4 SP:FB STACK: 00 00 C6 14
F7C0  B0 09     BCS $F7CB                       A:FF X:33 Y:7E P:E4 SP:F9 STACK: 00 00 C6 14 D2 6B
F7C2  10 07     BPL $F7CB                       A:FF X:33 Y:7E P:E4 SP:F9 STACK: 00 00 C6 14 D2 6B
F7C4  C9 FF     CMP #$FF                        A:FF X:33 Y:7E P:E4 SP:F9 STACK: 00 00 C6 14 D2 6B
F7C6  D0 03     BNE $F7CB                       A:FF X:33 Y:7E P:67 SP:F9 STACK: 00 00 C6 14 D2 6B
F7C8  50 01     BVC $F7CB                       A:FF X:33 Y:7E P:67 SP:F9 STACK: 00 00 C6 14 D2 6B
F7CA  60        RTS                             A:FF X:33 Y:7E P:67 SP:F9 STACK: 00 00 C6 14 D2 6B
D26C  C8        INY                             A:FF X:33 Y:7E P:67 SP:FB STACK: 00 00 C6 14
D26D  A9 00     LDA #$00                        A:FF X:33 Y:7F P:65 SP:FB STACK: 00 00 C6 14
D26F  85 78     STA $78 = AA                    A:00 X:33 Y:7F P:67 SP:FB STACK: 00 00 C6 14
D271  20 CE F7  JSR $F7CE                       A:00 X:33 Y:7F P:67 SP:FB STACK: 00 00 C6 14
F7CE  38        SEC                             A:00 X:33 Y:7F P:67 SP:F9 STACK: 00 00 C6 14 D2 73
F7CF  B8        CLV                             A:00 X:33 Y:7F P:67 SP:F9 STACK: 00 00 C6 14 D2 73
F7D0  A9 00     LDA #$00                        A:00 X:33 Y:7F P:27 SP:F9 STACK: 00 00 C6 14 D2 73
F7D2  60        RTS                             A:00 X:33 Y:7F P:27 SP:F9 STACK: 00 00 C6 14 D2 73
D274  05 78     ORA $78 = 00                    A:00 X:33 Y:7F P:27 SP:FB STACK: 00 00 C6 14
D276  20 D3 F7  JSR $F7D3                       A:00 X:33 Y:7F P:27 SP:FB STACK: 00 00 C6 14
F7D3  D0 07     BNE $F7DC                       A:00 X:33 Y:7F P:27 SP:F9 STACK: 00 00 C6 14 D2 78
F7D5  70 05     BVS $F7DC                       A:00 X:33 Y:7F P:27 SP:F9 STACK: 00 00 C6 14 D2 78
F7D7  90 03     BCC $F7DC                       A:00 X:33 Y:7F P:27 SP:F9 STACK: 00 00 C6 14 D2 78
F7D9  30 01     BMI $F7DC                       A:00 X:33 Y:7F P:27 SP:F9 STACK: 00 00 C6 14 D2 78
F7DB  60        RTS                             A:00 X:33 Y:7F P:27 SP:F9 STACK: 00 00 C6 14 D2 78
D279  C8        INY                             A:00 X:33 Y:7F P:27 SP:FB STACK: 00 00 C6 14
D27A  A9 AA     LDA #$AA                        A:00 X:33 Y:80 P:A5 SP:FB STACK: 00 00 C6 14
D27C  85 78     STA $78 = 00                    A:AA X:33 Y:80 P:A5 SP:FB STACK: 00 00 C6 14
D27E  20 DF F7  JSR $F7DF                       A:AA X:33 Y:80 P:A5 SP:FB STACK: 00 00 C6 14
F7DF  18        CLC                             A:AA X:33 Y:80 P:A5 SP:F9 STACK: 00 00 C6 14 D2 80
F7E0  24 01     BIT $01 = FF                    A:AA X:33 Y:80 P:A4 SP:F9 STACK: 00 00 C6 14 D2 80
F7E2  A9 55     LDA #$55                        A:AA X:33 Y:80 P:E4 SP:F9 STACK: 00 00 C6 14 D2 80
F7E4  60        RTS                             A:55 X:33 Y:80 P:64 SP:F9 STACK: 00 00 C6 14 D2 80
D281  25 78     AND $78 = AA                    A:55 X:33 Y:80 P:64 SP:FB STACK: 00 00 C6 14
D283  20 E5 F7  JSR $F7E5                       A:00 X:33 Y:80 P:66 SP:FB STACK: 00 00 C6 14
F7E5  D0 07     BNE $F7EE                       A:00 X:33 Y:80 P:66 SP:F9 STACK: 00 00 C6 14 D2 85
F7E7  50 05     BVC $F7EE                       A:00 X:33 Y:80 P:66 SP:F9 STACK: 00 00 C6 14 D2 85
F7E9  B0 03     BCS $F7EE                       A:00 X:33 Y:80 P:66 SP:F9 STACK: 00 00 C6 14 D2 85
F7EB  30 01     BMI $F7EE                       A:00 X:33 Y:80 P:66 SP:F9 STACK: 00 00 C6 14 D2 85
F7ED  60        RTS                             A:00 X:33 Y:80 P:66 SP:F9 STACK: 00 00 C6 14 D2 85
D286  C8        INY                             A:00 X:33 Y:80 P:66 SP:FB STACK: 00 00 C6 14
D287  A9 EF     LDA #$EF                        A:00 X:33 Y:81 P:E4 SP:FB STACK: 00 00 C6 14
D289  85 78     STA $78 = AA                    A:EF X:33 Y:81 P:E4 SP:FB STACK: 00 00 C6 14
D28B  20 F1 F7  JSR $F7F1                       A:EF X:33 Y:81 P:E4 SP:FB STACK: 00 00 C6 14
F7F1  38        SEC                             A:EF X:33 Y:81 P:E4 SP:F9 STACK: 00 00 C6 14 D2 8D
F7F2  B8        CLV                             A:EF X:33 Y:81 P:E5 SP:F9 STACK: 00 00 C6 14 D2 8D
F7F3  A9 F8     LDA #$F8                        A:EF X:33 Y:81 P:A5 SP:F9 STACK: 00 00 C6 14 D2 8D
F7F5  60        RTS                             A:F8 X:33 Y:81 P:A5 SP:F9 STACK: 00 00 C6 14 D2 8D
D28E  25 78     AND $78 = EF                    A:F8 X:33 Y:81 P:A5 SP:FB STACK: 00 00 C6 14
D290  20 F6 F7  JSR $F7F6                       A:E8 X:33 Y:81 P:A5 SP:FB STACK: 00 00 C6 14
F7F6  90 09     BCC $F801                       A:E8 X:33 Y:81 P:A5 SP:F9 STACK: 00 00 C6 14 D2 92
F7F8  10 07     BPL $F801                       A:E8 X:33 Y:81 P:A5 SP:F9 STACK: 00 00 C6 14 D2 92
F7FA  C9 E8     CMP #$E8                        A:E8 X:33 Y:81 P:A5 SP:F9 STACK: 00 00 C6 14 D2 92
F7FC  D0 03     BNE $F801                       A:E8 X:33 Y:81 P:27 SP:F9 STACK: 00 00 C6 14 D2 92
F7FE  70 01     BVS $F801                       A:E8 X:33 Y:81 P:27 SP:F9 STACK: 00 00 C6 14 D2 92
F800  60        RTS                             A:E8 X:33 Y:81 P:27 SP:F9 STACK: 00 00 C6 14 D2 92
D293  C8        INY                             A:E8 X:33 Y:81 P:27 SP:FB STACK: 00 00 C6 14
D294  A9 AA     LDA #$AA                        A:E8 X:33 Y:82 P:A5 SP:FB STACK: 00 00 C6 14
D296  85 78     STA $78 = EF                    A:AA X:33 Y:82 P:A5 SP:FB STACK: 00 00 C6 14
D298  20 04 F8  JSR $F804                       A:AA X:33 Y:82 P:A5 SP:FB STACK: 00 00 C6 14
F804  18        CLC                             A:AA X:33 Y:82 P:A5 SP:F9 STACK: 00 00 C6 14 D2 9A
F805  24 01     BIT $01 = FF                    A:AA X:33 Y:82 P:A4 SP:F9 STACK: 00 00 C6 14 D2 9A
F807  A9 5F     LDA #$5F                        A:AA X:33 Y:82 P:E4 SP:F9 STACK: 00 00 C6 14 D2 9A
F809  60        RTS                             A:5F X:33 Y:82 P:64 SP:F9 STACK: 00 00 C6 14 D2 9A
D29B  45 78     EOR $78 = AA                    A:5F X:33 Y:82 P:64 SP:FB STACK: 00 00 C6 14
D29D  20 0A F8  JSR $F80A                       A:F5 X:33 Y:82 P:E4 SP:FB STACK: 00 00 C6 14
F80A  B0 09     BCS $F815                       A:F5 X:33 Y:82 P:E4 SP:F9 STACK: 00 00 C6 14 D2 9F
F80C  10 07     BPL $F815                       A:F5 X:33 Y:82 P:E4 SP:F9 STACK: 00 00 C6 14 D2 9F
F80E  C9 F5     CMP #$F5                        A:F5 X:33 Y:82 P:E4 SP:F9 STACK: 00 00 C6 14 D2 9F
F810  D0 03     BNE $F815                       A:F5 X:33 Y:82 P:67 SP:F9 STACK: 00 00 C6 14 D2 9F
F812  50 01     BVC $F815                       A:F5 X:33 Y:82 P:67 SP:F9 STACK: 00 00 C6 14 D2 9F
F814  60        RTS                             A:F5 X:33 Y:82 P:67 SP:F9 STACK: 00 00 C6 14 D2 9F
D2A0  C8        INY                             A:F5 X:33 Y:82 P:67 SP:FB STACK: 00 00 C6 14
D2A1  A9 70     LDA #$70                        A:F5 X:33 Y:83 P:E5 SP:FB STACK: 00 00 C6 14
D2A3  85 78     STA $78 = AA                    A:70 X:33 Y:83 P:65 SP:FB STACK: 00 00 C6 14
D2A5  20 18 F8  JSR $F818                       A:70 X:33 Y:83 P:65 SP:FB STACK: 00 00 C6 14
F818  38        SEC                             A:70 X:33 Y:83 P:65 SP:F9 STACK: 00 00 C6 14 D2 A7
F819  B8        CLV                             A:70 X:33 Y:83 P:65 SP:F9 STACK: 00 00 C6 14 D2 A7
F81A  A9 70     LDA #$70                        A:70 X:33 Y:83 P:25 SP:F9 STACK: 00 00 C6 14 D2 A7
F81C  60        RTS                             A:70 X:33 Y:83 P:25 SP:F9 STACK: 00 00 C6 14 D2 A7
D2A8  45 78     EOR $78 = 70                    A:70 X:33 Y:83 P:25 SP:FB STACK: 00 00 C6 14
D2AA  20 1D F8  JSR $F81D                       A:00 X:33 Y:83 P:27 SP:FB STACK: 00 00 C6 14
F81D  D0 07     BNE $F826                       A:00 X:33 Y:83 P:27 SP:F9 STACK: 00 00 C6 14 D2 AC
F81F  70 05     BVS $F826                       A:00 X:33 Y:83 P:27 SP:F9 STACK: 00 00 C6 14 D2 AC
F821  90 03     BCC $F826                       A:00 X:33 Y:83 P:27 SP:F9 STACK: 00 00 C6 14 D2 AC
F823  30 01     BMI $F826                       A:00 X:33 Y:83 P:27 SP:F9 STACK: 00 00 C6 14 D2 AC
F825  60        RTS                             A:00 X:33 Y:83 P:27 SP:F9 STACK: 00 00 C6 14 D2 AC
D2AD  C8        INY                             A:00 X:33 Y:83 P:27 SP:FB STACK: 00 00 C6 14
D2AE  A9 69     LDA #$69                        A:00 X:33 Y:84 P:A5 SP:FB STACK: 00 00 C6 14
D2B0  85 78     STA $78 = 70                    A:69 X:33 Y:84 P:25 SP:FB STACK: 00 00 C6 14
D2B2  20 29 F8  JSR $F829                       A:69 X:33 Y:84 P:25 SP:FB STACK: 00 00 C6 14
F829  18        CLC                             A:69 X:33 Y:84 P:25 SP:F9 STACK: 00 00 C6 14 D2 B4
F82A  24 01     BIT $01 = FF                    A:69 X:33 Y:84 P:24 SP:F9 STACK: 00 00 C6 14 D2 B4
F82C  A9 00     LDA #$00                        A:69 X:33 Y:84 P:E4 SP:F9 STACK: 00 00 C6 14 D2 B4
F82E  60        RTS                             A:00 X:33 Y:84 P:66 SP:F9 STACK: 00 00 C6 14 D2 B4
D2B5  65 78     ADC $78 = 69                    A:00 X:33 Y:84 P:66 SP:FB STACK: 00 00 C6 14
D2B7  20 2F F8  JSR $F82F                       A:69 X:33 Y:84 P:24 SP:FB STACK: 00 00 C6 14
F82F  30 09     BMI $F83A                       A:69 X:33 Y:84 P:24 SP:F9 STACK: 00 00 C6 14 D2 B9
F831  B0 07     BCS $F83A                       A:69 X:33 Y:84 P:24 SP:F9 STACK: 00 00 C6 14 D2 B9
F833  C9 69     CMP #$69                        A:69 X:33 Y:84 P:24 SP:F9 STACK: 00 00 C6 14 D2 B9
F835  D0 03     BNE $F83A                       A:69 X:33 Y:84 P:27 SP:F9 STACK: 00 00 C6 14 D2 B9
F837  70 01     BVS $F83A                       A:69 X:33 Y:84 P:27 SP:F9 STACK: 00 00 C6 14 D2 B9
F839  60        RTS                             A:69 X:33 Y:84 P:27 SP:F9 STACK: 00 00 C6 14 D2 B9
D2BA  C8        INY                             A:69 X:33 Y:84 P:27 SP:FB STACK: 00 00 C6 14
D2BB  20 3D F8  JSR $F83D                       A:69 X:33 Y:85 P:A5 SP:FB STACK: 00 00 C6 14
F83D  38        SEC                             A:69 X:33 Y:85 P:A5 SP:F9 STACK: 00 00 C6 14 D2 BD
F83E  24 01     BIT $01 = FF                    A:69 X:33 Y:85 P:A5 SP:F9 STACK: 00 00 C6 14 D2 BD
F840  A9 00     LDA #$00                        A:69 X:33 Y:85 P:E5 SP:F9 STACK: 00 00 C6 14 D2 BD
F842  60        RTS                             A:00 X:33 Y:85 P:67 SP:F9 STACK: 00 00 C6 14 D2 BD
D2BE  65 78     ADC $78 = 69                    A:00 X:33 Y:85 P:67 SP:FB STACK: 00 00 C6 14
D2C0  20 43 F8  JSR $F843                       A:6A X:33 Y:85 P:24 SP:FB STACK: 00 00 C6 14
F843  30 09     BMI $F84E                       A:6A X:33 Y:85 P:24 SP:F9 STACK: 00 00 C6 14 D2 C2
F845  B0 07     BCS $F84E                       A:6A X:33 Y:85 P:24 SP:F9 STACK: 00 00 C6 14 D2 C2
F847  C9 6A     CMP #$6A                        A:6A X:33 Y:85 P:24 SP:F9 STACK: 00 00 C6 14 D2 C2
F849  D0 03     BNE $F84E                       A:6A X:33 Y:85 P:27 SP:F9 STACK: 00 00 C6 14 D2 C2
F84B  70 01     BVS $F84E                       A:6A X:33 Y:85 P:27 SP:F9 STACK: 00 00 C6 14 D2 C2
F84D  60        RTS                             A:6A X:33 Y:85 P:27 SP:F9 STACK: 00 00 C6 14 D2 C2
D2C3  C8        INY                             A:6A X:33 Y:85 P:27 SP:FB STACK: 00 00 C6 14
D2C4  A9 7F     LDA #$7F                        A:6A X:33 Y:86 P:A5 SP:FB STACK: 00 00 C6 14
D2C6  85 78     STA $78 = 69                    A:7F X:33 Y:86 P:25 SP:FB STACK: 00 00 C6 14
D2C8  20 51 F8  JSR $F851                       A:7F X:33 Y:86 P:25 SP:FB STACK: 00 00 C6 14
F851  38        SEC                             A:7F X:33 Y:86 P:25 SP:F9 STACK: 00 00 C6 14 D2 CA
F852  B8        CLV                             A:7F X:33 Y:86 P:25 SP:F9 STACK: 00 00 C6 14 D2 CA
F853  A9 7F     LDA #$7F                        A:7F X:33 Y:86 P:25 SP:F9 STACK: 00 00 C6 14 D2 CA
F855  60        RTS                             A:7F X:33 Y:86 P:25 SP:F9 STACK: 00 00 C6 14 D2 CA
D2CB  65 78     ADC $78 = 7F                    A:7F X:33 Y:86 P:25 SP:FB STACK: 00 00 C6 14
D2CD  20 56 F8  JSR $F856                       A:FF X:33 Y:86 P:E4 SP:FB STACK: 00 00 C6 14
F856  10 09     BPL $F861                       A:FF X:33 Y:86 P:E4 SP:F9 STACK: 00 00 C6 14 D2 CF
F858  B0 07     BCS $F861                       A:FF X:33 Y:86 P:E4 SP:F9 STACK: 00 00 C6 14 D2 CF
F85A  C9 FF     CMP #$FF                        A:FF X:33 Y:86 P:E4 SP:F9 STACK: 00 00 C6 14 D2 CF
F85C  D0 03     BNE $F861                       A:FF X:33 Y:86 P:67 SP:F9 STACK: 00 00 C6 14 D2 CF
F85E  50 01     BVC $F861                       A:FF X:33 Y:86 P:67 SP:F9 STACK: 00 00 C6 14 D2 CF
F860  60        RTS                             A:FF X:33 Y:86 P:67 SP:F9 STACK: 00 00 C6 14 D2 CF
D2D0  C8        INY                             A:FF X:33 Y:86 P:67 SP:FB STACK: 00 00 C6 14
D2D1  A9 80     LDA #$80                        A:FF X:33 Y:87 P:E5 SP:FB STACK: 00 00 C6 14
D2D3  85 78     STA $78 = 7F                    A:80 X:33 Y:87 P:E5 SP:FB STACK: 00 00 C6 14
D2D5  20 64 F8  JSR $F864                       A:80 X:33 Y:87 P:E5 SP:FB STACK: 00 00 C6 14
F864  18        CLC                             A:80 X:33 Y:87 P:E5 SP:F9 STACK: 00 00 C6 14 D2 D7
F865  24 01     BIT $01 = FF                    A:80 X:33 Y:87 P:E4 SP:F9 STACK: 00 00 C6 14 D2 D7
F867  A9 7F     LDA #$7F                        A:80 X:33 Y:87 P:E4 SP:F9 STACK: 00 00 C6 14 D2 D7
F869  60        RTS                             A:7F X:33 Y:87 P:64 SP:F9 STACK: 00 00 C6 14 D2 D7
D2D8  65 78     ADC $78 = 80                    A:7F X:33 Y:87 P:64 SP:FB STACK: 00 00 C6 14
D2DA  20 6A F8  JSR $F86A                       A:FF X:33 Y:87 P:A4 SP:FB STACK: 00 00 C6 14
F86A  10 09     BPL $F875                       A:FF X:33 Y:87 P:A4 SP:F9 STACK: 00 00 C6 14 D2 DC
F86C  B0 07     BCS $F875                       A:FF X:33 Y:87 P:A4 SP:F9 STACK: 00 00 C6 14 D2 DC
F86E  C9 FF     CMP #$FF                        A:FF X:33 Y:87 P:A4 SP:F9 STACK: 00 00 C6 14 D2 DC
F870  D0 03     BNE $F875                       A:FF X:33 Y:87 P:27 SP:F9 STACK: 00 00 C6 14 D2 DC
F872  70 01     BVS $F875                       A:FF X:33 Y:87 P:27 SP:F9 STACK: 00 00 C6 14 D2 DC
F874  60        RTS                             A:FF X:33 Y:87 P:27 SP:F9 STACK: 00 00 C6 14 D2 DC
D2DD  C8        INY                             A:FF X:33 Y:87 P:27 SP:FB STACK: 00 00 C6 14
D2DE  20 78 F8  JSR $F878                       A:FF X:33 Y:88 P:A5 SP:FB STACK: 00 00 C6 14
F878  38        SEC                             A:FF X:33 Y:88 P:A5 SP:F9 STACK: 00 00 C6 14 D2 E0
F879  B8        CLV                             A:FF X:33 Y:88 P:A5 SP:F9 STACK: 00 00 C6 14 D2 E0
F87A  A9 7F     LDA #$7F                        A:FF X:33 Y:88 P:A5 SP:F9 STACK: 00 00 C6 14 D2 E0
F87C  60        RTS                             A:7F X:33 Y:88 P:25 SP:F9 STACK: 00 00 C6 14 D2 E0
D2E1  65 78     ADC $78 = 80                    A:7F X:33 Y:88 P:25 SP:FB STACK: 00 00 C6 14
D2E3  20 7D F8  JSR $F87D                       A:00 X:33 Y:88 P:27 SP:FB STACK: 00 00 C6 14
F87D  D0 07     BNE $F886                       A:00 X:33 Y:88 P:27 SP:F9 STACK: 00 00 C6 14 D2 E5
F87F  30 05     BMI $F886                       A:00 X:33 Y:88 P:27 SP:F9 STACK: 00 00 C6 14 D2 E5
F881  70 03     BVS $F886                       A:00 X:33 Y:88 P:27 SP:F9 STACK: 00 00 C6 14 D2 E5
F883  90 01     BCC $F886                       A:00 X:33 Y:88 P:27 SP:F9 STACK: 00 00 C6 14 D2 E5
F885  60        RTS                             A:00 X:33 Y:88 P:27 SP:F9 STACK: 00 00 C6 14 D2 E5
D2E6  C8        INY                             A:00 X:33 Y:88 P:27 SP:FB STACK: 00 00 C6 14
D2E7  A9 40     LDA #$40                        A:00 X:33 Y:89 P:A5 SP:FB STACK: 00 00 C6 14
D2E9  85 78     STA $78 = 80                    A:40 X:33 Y:89 P:25 SP:FB STACK: 00 00 C6 14
D2EB  20 89 F8  JSR $F889                       A:40 X:33 Y:89 P:25 SP:FB STACK: 00 00 C6 14
F889  24 01     BIT $01 = FF                    A:40 X:33 Y:89 P:25 SP:F9 STACK: 00 00 C6 14 D2 ED
F88B  A9 40     LDA #$40                        A:40 X:33 Y:89 P:E5 SP:F9 STACK: 00 00 C6 14 D2 ED
F88D  60        RTS                             A:40 X:33 Y:89 P:65 SP:F9 STACK: 00 00 C6 14 D2 ED
D2EE  C5 78     CMP $78 = 40                    A:40 X:33 Y:89 P:65 SP:FB STACK: 00 00 C6 14
D2F0  20 8E F8  JSR $F88E                       A:40 X:33 Y:89 P:67 SP:FB STACK: 00 00 C6 14
F88E  30 07     BMI $F897                       A:40 X:33 Y:89 P:67 SP:F9 STACK: 00 00 C6 14 D2 F2
F890  90 05     BCC $F897                       A:40 X:33 Y:89 P:67 SP:F9 STACK: 00 00 C6 14 D2 F2
F892  D0 03     BNE $F897                       A:40 X:33 Y:89 P:67 SP:F9 STACK: 00 00 C6 14 D2 F2
F894  50 01     BVC $F897                       A:40 X:33 Y:89 P:67 SP:F9 STACK: 00 00 C6 14 D2 F2
F896  60        RTS                             A:40 X:33 Y:89 P:67 SP:F9 STACK: 00 00 C6 14 D2 F2
D2F3  C8        INY                             A:40 X:33 Y:89 P:67 SP:FB STACK: 00 00 C6 14
D2F4  48        PHA                             A:40 X:33 Y:8A P:E5 SP:FB STACK: 00 00 C6 14
D2F5  A9 3F     LDA #$3F                        A:40 X:33 Y:8A P:E5 SP:FA STACK: 00 00 C6 14 40
D2F7  85 78     STA $78 = 40                    A:3F X:33 Y:8A P:65 SP:FA STACK: 00 00 C6 14 40
D2F9  68        PLA                             A:3F X:33 Y:8A P:65 SP:FA STACK: 00 00 C6 14 40
D2FA  20 9A F8  JSR $F89A                       A:40 X:33 Y:8A P:65 SP:FB STACK: 00 00 C6 14
F89A  B8        CLV                             A:40 X:33 Y:8A P:65 SP:F9 STACK: 00 00 C6 14 D2 FC
F89B  60        RTS                             A:40 X:33 Y:8A P:25 SP:F9 STACK: 00 00 C6 14 D2 FC
D2FD  C5 78     CMP $78 = 3F                    A:40 X:33 Y:8A P:25 SP:FB STACK: 00 00 C6 14
D2FF  20 9C F8  JSR $F89C                       A:40 X:33 Y:8A P:25 SP:FB STACK: 00 00 C6 14
F89C  F0 07     BEQ $F8A5                       A:40 X:33 Y:8A P:25 SP:F9 STACK: 00 00 C6 14 D3 01
F89E  30 05     BMI $F8A5                       A:40 X:33 Y:8A P:25 SP:F9 STACK: 00 00 C6 14 D3 01
F8A0  90 03     BCC $F8A5                       A:40 X:33 Y:8A P:25 SP:F9 STACK: 00 00 C6 14 D3 01
F8A2  70 01     BVS $F8A5                       A:40 X:33 Y:8A P:25 SP:F9 STACK: 00 00 C6 14 D3 01
F8A4  60        RTS                             A:40 X:33 Y:8A P:25 SP:F9 STACK: 00 00 C6 14 D3 01
D302  C8        INY                             A:40 X:33 Y:8A P:25 SP:FB STACK: 00 00 C6 14
D303  48        PHA                             A:40 X:33 Y:8B P:A5 SP:FB STACK: 00 00 C6 14
D304  A9 41     LDA #$41                        A:40 X:33 Y:8B P:A5 SP:FA STACK: 00 00 C6 14 40
D306  85 78     STA $78 = 3F                    A:41 X:33 Y:8B P:25 SP:FA STACK: 00 00 C6 14 40
D308  68        PLA                             A:41 X:33 Y:8B P:25 SP:FA STACK: 00 00 C6 14 40
D309  C5 78     CMP $78 = 41                    A:40 X:33 Y:8B P:25 SP:FB STACK: 00 00 C6 14
D30B  20 A8 F8  JSR $F8A8                       A:40 X:33 Y:8B P:A4 SP:FB STACK: 00 00 C6 14
F8A8  F0 05     BEQ $F8AF                       A:40 X:33 Y:8B P:A4 SP:F9 STACK: 00 00 C6 14 D3 0D
F8AA  10 03     BPL $F8AF                       A:40 X:33 Y:8B P:A4 SP:F9 STACK: 00 00 C6 14 D3 0D
F8AC  10 01     BPL $F8AF                       A:40 X:33 Y:8B P:A4 SP:F9 STACK: 00 00 C6 14 D3 0D
F8AE  60        RTS                             A:40 X:33 Y:8B P:A4 SP:F9 STACK: 00 00 C6 14 D3 0D
D30E  C8        INY                             A:40 X:33 Y:8B P:A4 SP:FB STACK: 00 00 C6 14
D30F  48        PHA                             A:40 X:33 Y:8C P:A4 SP:FB STACK: 00 00 C6 14
D310  A9 00     LDA #$00                        A:40 X:33 Y:8C P:A4 SP:FA STACK: 00 00 C6 14 40
D312  85 78     STA $78 = 41                    A:00 X:33 Y:8C P:26 SP:FA STACK: 00 00 C6 14 40
D314  68        PLA                             A:00 X:33 Y:8C P:26 SP:FA STACK: 00 00 C6 14 40
D315  20 B2 F8  JSR $F8B2                       A:40 X:33 Y:8C P:24 SP:FB STACK: 00 00 C6 14
F8B2  A9 80     LDA #$80                        A:40 X:33 Y:8C P:24 SP:F9 STACK: 00 00 C6 14 D3 17
F8B4  60        RTS                             A:80 X:33 Y:8C P:A4 SP:F9 STACK: 00 00 C6 14 D3 17
D318  C5 78     CMP $78 = 00                    A:80 X:33 Y:8C P:A4 SP:FB STACK: 00 00 C6 14
D31A  20 B5 F8  JSR $F8B5                       A:80 X:33 Y:8C P:A5 SP:FB STACK: 00 00 C6 14
F8B5  F0 05     BEQ $F8BC                       A:80 X:33 Y:8C P:A5 SP:F9 STACK: 00 00 C6 14 D3 1C
F8B7  10 03     BPL $F8BC                       A:80 X:33 Y:8C P:A5 SP:F9 STACK: 00 00 C6 14 D3 1C
F8B9  90 01     BCC $F8BC                       A:80 X:33 Y:8C P:A5 SP:F9 STACK: 00 00 C6 14 D3 1C
F8BB  60        RTS                             A:80 X:33 Y:8C P:A5 SP:F9 STACK: 00 00 C6 14 D3 1C
D31D  C8        INY                             A:80 X:33 Y:8C P:A5 SP:FB STACK: 00 00 C6 14
D31E  48        PHA                             A:80 X:33 Y:8D P:A5 SP:FB STACK: 00 00 C6 14
D31F  A9 80     LDA #$80                        A:80 X:33 Y:8D P:A5 SP:FA STACK: 00 00 C6 14 80
D321  85 78     STA $78 = 00                    A:80 X:33 Y:8D P:A5 SP:FA STACK: 00 00 C6 14 80
D323  68        PLA                             A:80 X:33 Y:8D P:A5 SP:FA STACK: 00 00 C6 14 80
D324  C5 78     CMP $78 = 80                    A:80 X:33 Y:8D P:A5 SP:FB STACK: 00 00 C6 14
D326  20 BF F8  JSR $F8BF                       A:80 X:33 Y:8D P:27 SP:FB STACK: 00 00 C6 14
F8BF  D0 05     BNE $F8C6                       A:80 X:33 Y:8D P:27 SP:F9 STACK: 00 00 C6 14 D3 28
F8C1  30 03     BMI $F8C6                       A:80 X:33 Y:8D P:27 SP:F9 STACK: 00 00 C6 14 D3 28
F8C3  90 01     BCC $F8C6                       A:80 X:33 Y:8D P:27 SP:F9 STACK: 00 00 C6 14 D3 28
F8C5  60        RTS                             A:80 X:33 Y:8D P:27 SP:F9 STACK: 00 00 C6 14 D3 28
D329  C8        INY                             A:80 X:33 Y:8D P:27 SP:FB STACK: 00 00 C6 14
D32A  48        PHA                             A:80 X:33 Y:8E P:A5 SP:FB STACK: 00 00 C6 14
D32B  A9 81     LDA #$81                        A:80 X:33 Y:8E P:A5 SP:FA STACK: 00 00 C6 14 80
D32D  85 78     STA $78 = 80                    A:81 X:33 Y:8E P:A5 SP:FA STACK: 00 00 C6 14 80
D32F  68        PLA                             A:81 X:33 Y:8E P:A5 SP:FA STACK: 00 00 C6 14 80
D330  C5 78     CMP $78 = 81                    A:80 X:33 Y:8E P:A5 SP:FB STACK: 00 00 C6 14
D332  20 C9 F8  JSR $F8C9                       A:80 X:33 Y:8E P:A4 SP:FB STACK: 00 00 C6 14
F8C9  B0 05     BCS $F8D0                       A:80 X:33 Y:8E P:A4 SP:F9 STACK: 00 00 C6 14 D3 34
F8CB  F0 03     BEQ $F8D0                       A:80 X:33 Y:8E P:A4 SP:F9 STACK: 00 00 C6 14 D3 34
F8CD  10 01     BPL $F8D0                       A:80 X:33 Y:8E P:A4 SP:F9 STACK: 00 00 C6 14 D3 34
F8CF  60        RTS                             A:80 X:33 Y:8E P:A4 SP:F9 STACK: 00 00 C6 14 D3 34
D335  C8        INY                             A:80 X:33 Y:8E P:A4 SP:FB STACK: 00 00 C6 14
D336  48        PHA                             A:80 X:33 Y:8F P:A4 SP:FB STACK: 00 00 C6 14
D337  A9 7F     LDA #$7F                        A:80 X:33 Y:8F P:A4 SP:FA STACK: 00 00 C6 14 80
D339  85 78     STA $78 = 81                    A:7F X:33 Y:8F P:24 SP:FA STACK: 00 00 C6 14 80
D33B  68        PLA                             A:7F X:33 Y:8F P:24 SP:FA STACK: 00 00 C6 14 80
D33C  C5 78     CMP $78 = 7F                    A:80 X:33 Y:8F P:A4 SP:FB STACK: 00 00 C6 14
D33E  20 D3 F8  JSR $F8D3                       A:80 X:33 Y:8F P:25 SP:FB STACK: 00 00 C6 14
F8D3  90 05     BCC $F8DA                       A:80 X:33 Y:8F P:25 SP:F9 STACK: 00 00 C6 14 D3 40
F8D5  F0 03     BEQ $F8DA                       A:80 X:33 Y:8F P:25 SP:F9 STACK: 00 00 C6 14 D3 40
F8D7  30 01     BMI $F8DA                       A:80 X:33 Y:8F P:25 SP:F9 STACK: 00 00 C6 14 D3 40
F8D9  60        RTS                             A:80 X:33 Y:8F P:25 SP:F9 STACK: 00 00 C6 14 D3 40
D341  C8        INY                             A:80 X:33 Y:8F P:25 SP:FB STACK: 00 00 C6 14
D342  A9 40     LDA #$40                        A:80 X:33 Y:90 P:A5 SP:FB STACK: 00 00 C6 14
D344  85 78     STA $78 = 7F                    A:40 X:33 Y:90 P:25 SP:FB STACK: 00 00 C6 14
D346  20 31 F9  JSR $F931                       A:40 X:33 Y:90 P:25 SP:FB STACK: 00 00 C6 14
F931  24 01     BIT $01 = FF                    A:40 X:33 Y:90 P:25 SP:F9 STACK: 00 00 C6 14 D3 48
F933  A9 40     LDA #$40                        A:40 X:33 Y:90 P:E5 SP:F9 STACK: 00 00 C6 14 D3 48
F935  38        SEC                             A:40 X:33 Y:90 P:65 SP:F9 STACK: 00 00 C6 14 D3 48
F936  60        RTS                             A:40 X:33 Y:90 P:65 SP:F9 STACK: 00 00 C6 14 D3 48
D349  E5 78     SBC $78 = 40                    A:40 X:33 Y:90 P:65 SP:FB STACK: 00 00 C6 14
D34B  20 37 F9  JSR $F937                       A:00 X:33 Y:90 P:27 SP:FB STACK: 00 00 C6 14
F937  30 0B     BMI $F944                       A:00 X:33 Y:90 P:27 SP:F9 STACK: 00 00 C6 14 D3 4D
F939  90 09     BCC $F944                       A:00 X:33 Y:90 P:27 SP:F9 STACK: 00 00 C6 14 D3 4D
F93B  D0 07     BNE $F944                       A:00 X:33 Y:90 P:27 SP:F9 STACK: 00 00 C6 14 D3 4D
F93D  70 05     BVS $F944                       A:00 X:33 Y:90 P:27 SP:F9 STACK: 00 00 C6 14 D3 4D
F93F  C9 00     CMP #$00                        A:00 X:33 Y:90 P:27 SP:F9 STACK: 00 00 C6 14 D3 4D
F941  D0 01     BNE $F944                       A:00 X:33 Y:90 P:27 SP:F9 STACK: 00 00 C6 14 D3 4D
F943  60        RTS                             A:00 X:33 Y:90 P:27 SP:F9 STACK: 00 00 C6 14 D3 4D
D34E  C8        INY                             A:00 X:33 Y:90 P:27 SP:FB STACK: 00 00 C6 14
D34F  A9 3F     LDA #$3F                        A:00 X:33 Y:91 P:A5 SP:FB STACK: 00 00 C6 14
D351  85 78     STA $78 = 40                    A:3F X:33 Y:91 P:25 SP:FB STACK: 00 00 C6 14
D353  20 47 F9  JSR $F947                       A:3F X:33 Y:91 P:25 SP:FB STACK: 00 00 C6 14
F947  B8        CLV                             A:3F X:33 Y:91 P:25 SP:F9 STACK: 00 00 C6 14 D3 55
F948  38        SEC                             A:3F X:33 Y:91 P:25 SP:F9 STACK: 00 00 C6 14 D3 55
F949  A9 40     LDA #$40                        A:3F X:33 Y:91 P:25 SP:F9 STACK: 00 00 C6 14 D3 55
F94B  60        RTS                             A:40 X:33 Y:91 P:25 SP:F9 STACK: 00 00 C6 14 D3 55
D356  E5 78     SBC $78 = 3F                    A:40 X:33 Y:91 P:25 SP:FB STACK: 00 00 C6 14
D358  20 4C F9  JSR $F94C                       A:01 X:33 Y:91 P:25 SP:FB STACK: 00 00 C6 14
F94C  F0 0B     BEQ $F959                       A:01 X:33 Y:91 P:25 SP:F9 STACK: 00 00 C6 14 D3 5A
F94E  30 09     BMI $F959                       A:01 X:33 Y:91 P:25 SP:F9 STACK: 00 00 C6 14 D3 5A
F950  90 07     BCC $F959                       A:01 X:33 Y:91 P:25 SP:F9 STACK: 00 00 C6 14 D3 5A
F952  70 05     BVS $F959                       A:01 X:33 Y:91 P:25 SP:F9 STACK: 00 00 C6 14 D3 5A
F954  C9 01     CMP #$01                        A:01 X:33 Y:91 P:25 SP:F9 STACK: 00 00 C6 14 D3 5A
F956  D0 01     BNE $F959                       A:01 X:33 Y:91 P:27 SP:F9 STACK: 00 00 C6 14 D3 5A
F958  60        RTS                             A:01 X:33 Y:91 P:27 SP:F9 STACK: 00 00 C6 14 D3 5A
D35B  C8        INY                             A:01 X:33 Y:91 P:27 SP:FB STACK: 00 00 C6 14
D35C  A9 41     LDA #$41                        A:01 X:33 Y:92 P:A5 SP:FB STACK: 00 00 C6 14
D35E  85 78     STA $78 = 3F                    A:41 X:33 Y:92 P:25 SP:FB STACK: 00 00 C6 14
D360  20 5C F9  JSR $F95C                       A:41 X:33 Y:92 P:25 SP:FB STACK: 00 00 C6 14
F95C  A9 40     LDA #$40                        A:41 X:33 Y:92 P:25 SP:F9 STACK: 00 00 C6 14 D3 62
F95E  38        SEC                             A:40 X:33 Y:92 P:25 SP:F9 STACK: 00 00 C6 14 D3 62
F95F  24 01     BIT $01 = FF                    A:40 X:33 Y:92 P:25 SP:F9 STACK: 00 00 C6 14 D3 62
F961  60        RTS                             A:40 X:33 Y:92 P:E5 SP:F9 STACK: 00 00 C6 14 D3 62
D363  E5 78     SBC $78 = 41                    A:40 X:33 Y:92 P:E5 SP:FB STACK: 00 00 C6 14
D365  20 62 F9  JSR $F962                       A:FF X:33 Y:92 P:A4 SP:FB STACK: 00 00 C6 14
F962  B0 0B     BCS $F96F                       A:FF X:33 Y:92 P:A4 SP:F9 STACK: 00 00 C6 14 D3 67
F964  F0 09     BEQ $F96F                       A:FF X:33 Y:92 P:A4 SP:F9 STACK: 00 00 C6 14 D3 67
F966  10 07     BPL $F96F                       A:FF X:33 Y:92 P:A4 SP:F9 STACK: 00 00 C6 14 D3 67
F968  70 05     BVS $F96F                       A:FF X:33 Y:92 P:A4 SP:F9 STACK: 00 00 C6 14 D3 67
F96A  C9 FF     CMP #$FF                        A:FF X:33 Y:92 P:A4 SP:F9 STACK: 00 00 C6 14 D3 67
F96C  D0 01     BNE $F96F                       A:FF X:33 Y:92 P:27 SP:F9 STACK: 00 00 C6 14 D3 67
F96E  60        RTS                             A:FF X:33 Y:92 P:27 SP:F9 STACK: 00 00 C6 14 D3 67
D368  C8        INY                             A:FF X:33 Y:92 P:27 SP:FB STACK: 00 00 C6 14
D369  A9 00     LDA #$00                        A:FF X:33 Y:93 P:A5 SP:FB STACK: 00 00 C6 14
D36B  85 78     STA $78 = 41                    A:00 X:33 Y:93 P:27 SP:FB STACK: 00 00 C6 14
D36D  20 72 F9  JSR $F972                       A:00 X:33 Y:93 P:27 SP:FB STACK: 00 00 C6 14
F972  18        CLC                             A:00 X:33 Y:93 P:27 SP:F9 STACK: 00 00 C6 14 D3 6F
F973  A9 80     LDA #$80                        A:00 X:33 Y:93 P:26 SP:F9 STACK: 00 00 C6 14 D3 6F
F975  60        RTS                             A:80 X:33 Y:93 P:A4 SP:F9 STACK: 00 00 C6 14 D3 6F
D370  E5 78     SBC $78 = 00                    A:80 X:33 Y:93 P:A4 SP:FB STACK: 00 00 C6 14
D372  20 76 F9  JSR $F976                       A:7F X:33 Y:93 P:65 SP:FB STACK: 00 00 C6 14
F976  90 05     BCC $F97D                       A:7F X:33 Y:93 P:65 SP:F9 STACK: 00 00 C6 14 D3 74
F978  C9 7F     CMP #$7F                        A:7F X:33 Y:93 P:65 SP:F9 STACK: 00 00 C6 14 D3 74
F97A  D0 01     BNE $F97D                       A:7F X:33 Y:93 P:67 SP:F9 STACK: 00 00 C6 14 D3 74
F97C  60        RTS                             A:7F X:33 Y:93 P:67 SP:F9 STACK: 00 00 C6 14 D3 74
D375  C8        INY                             A:7F X:33 Y:93 P:67 SP:FB STACK: 00 00 C6 14
D376  A9 7F     LDA #$7F                        A:7F X:33 Y:94 P:E5 SP:FB STACK: 00 00 C6 14
D378  85 78     STA $78 = 00                    A:7F X:33 Y:94 P:65 SP:FB STACK: 00 00 C6 14
D37A  20 80 F9  JSR $F980                       A:7F X:33 Y:94 P:65 SP:FB STACK: 00 00 C6 14
F980  38        SEC                             A:7F X:33 Y:94 P:65 SP:F9 STACK: 00 00 C6 14 D3 7C
F981  A9 81     LDA #$81                        A:7F X:33 Y:94 P:65 SP:F9 STACK: 00 00 C6 14 D3 7C
F983  60        RTS                             A:81 X:33 Y:94 P:E5 SP:F9 STACK: 00 00 C6 14 D3 7C
D37D  E5 78     SBC $78 = 7F                    A:81 X:33 Y:94 P:E5 SP:FB STACK: 00 00 C6 14
D37F  20 84 F9  JSR $F984                       A:02 X:33 Y:94 P:65 SP:FB STACK: 00 00 C6 14
F984  50 07     BVC $F98D                       A:02 X:33 Y:94 P:65 SP:F9 STACK: 00 00 C6 14 D3 81
F986  90 05     BCC $F98D                       A:02 X:33 Y:94 P:65 SP:F9 STACK: 00 00 C6 14 D3 81
F988  C9 02     CMP #$02                        A:02 X:33 Y:94 P:65 SP:F9 STACK: 00 00 C6 14 D3 81
F98A  D0 01     BNE $F98D                       A:02 X:33 Y:94 P:67 SP:F9 STACK: 00 00 C6 14 D3 81
F98C  60        RTS                             A:02 X:33 Y:94 P:67 SP:F9 STACK: 00 00 C6 14 D3 81
D382  C8        INY                             A:02 X:33 Y:94 P:67 SP:FB STACK: 00 00 C6 14
D383  A9 40     LDA #$40                        A:02 X:33 Y:95 P:E5 SP:FB STACK: 00 00 C6 14
D385  85 78     STA $78 = 7F                    A:40 X:33 Y:95 P:65 SP:FB STACK: 00 00 C6 14
D387  20 89 F8  JSR $F889                       A:40 X:33 Y:95 P:65 SP:FB STACK: 00 00 C6 14
F889  24 01     BIT $01 = FF                    A:40 X:33 Y:95 P:65 SP:F9 STACK: 00 00 C6 14 D3 89
F88B  A9 40     LDA #$40                        A:40 X:33 Y:95 P:E5 SP:F9 STACK: 00 00 C6 14 D3 89
F88D  60        RTS                             A:40 X:33 Y:95 P:65 SP:F9 STACK: 00 00 C6 14 D3 89
D38A  AA        TAX                             A:40 X:33 Y:95 P:65 SP:FB STACK: 00 00 C6 14
D38B  E4 78     CPX $78 = 40                    A:40 X:40 Y:95 P:65 SP:FB STACK: 00 00 C6 14
D38D  20 8E F8  JSR $F88E                       A:40 X:40 Y:95 P:67 SP:FB STACK: 00 00 C6 14
F88E  30 07     BMI $F897                       A:40 X:40 Y:95 P:67 SP:F9 STACK: 00 00 C6 14 D3 8F
F890  90 05     BCC $F897                       A:40 X:40 Y:95 P:67 SP:F9 STACK: 00 00 C6 14 D3 8F
F892  D0 03     BNE $F897                       A:40 X:40 Y:95 P:67 SP:F9 STACK: 00 00 C6 14 D3 8F
F894  50 01     BVC $F897                       A:40 X:40 Y:95 P:67 SP:F9 STACK: 00 00 C6 14 D3 8F
F896  60        RTS                             A:40 X:40 Y:95 P:67 SP:F9 STACK: 00 00 C6 14 D3 8F
D390  C8        INY                             A:40 X:40 Y:95 P:67 SP:FB STACK: 00 00 C6 14
D391  A9 3F     LDA #$3F                        A:40 X:40 Y:96 P:E5 SP:FB STACK: 00 00 C6 14
D393  85 78     STA $78 = 40                    A:3F X:40 Y:96 P:65 SP:FB STACK: 00 00 C6 14
D395  20 9A F8  JSR $F89A                       A:3F X:40 Y:96 P:65 SP:FB STACK: 00 00 C6 14
F89A  B8        CLV                             A:3F X:40 Y:96 P:65 SP:F9 STACK: 00 00 C6 14 D3 97
F89B  60        RTS                             A:3F X:40 Y:96 P:25 SP:F9 STACK: 00 00 C6 14 D3 97
D398  E4 78     CPX $78 = 3F                    A:3F X:40 Y:96 P:25 SP:FB STACK: 00 00 C6 14
D39A  20 9C F8  JSR $F89C                       A:3F X:40 Y:96 P:25 SP:FB STACK: 00 00 C6 14
F89C  F0 07     BEQ $F8A5                       A:3F X:40 Y:96 P:25 SP:F9 STACK: 00 00 C6 14 D3 9C
F89E  30 05     BMI $F8A5                       A:3F X:40 Y:96 P:25 SP:F9 STACK: 00 00 C6 14 D3 9C
F8A0  90 03     BCC $F8A5                       A:3F X:40 Y:96 P:25 SP:F9 STACK: 00 00 C6 14 D3 9C
F8A2  70 01     BVS $F8A5                       A:3F X:40 Y:96 P:25 SP:F9 STACK: 00 00 C6 14 D3 9C
F8A4  60        RTS                             A:3F X:40 Y:96 P:25 SP:F9 STACK: 00 00 C6 14 D3 9C
D39D  C8        INY                             A:3F X:40 Y:96 P:25 SP:FB STACK: 00 00 C6 14
D39E  A9 41     LDA #$41                        A:3F X:40 Y:97 P:A5 SP:FB STACK: 00 00 C6 14
D3A0  85 78     STA $78 = 3F                    A:41 X:40 Y:97 P:25 SP:FB STACK: 00 00 C6 14
D3A2  E4 78     CPX $78 = 41                    A:41 X:40 Y:97 P:25 SP:FB STACK: 00 00 C6 14
D3A4  20 A8 F8  JSR $F8A8                       A:41 X:40 Y:97 P:A4 SP:FB STACK: 00 00 C6 14
F8A8  F0 05     BEQ $F8AF                       A:41 X:40 Y:97 P:A4 SP:F9 STACK: 00 00 C6 14 D3 A6
F8AA  10 03     BPL $F8AF                       A:41 X:40 Y:97 P:A4 SP:F9 STACK: 00 00 C6 14 D3 A6
F8AC  10 01     BPL $F8AF                       A:41 X:40 Y:97 P:A4 SP:F9 STACK: 00 00 C6 14 D3 A6
F8AE  60        RTS                             A:41 X:40 Y:97 P:A4 SP:F9 STACK: 00 00 C6 14 D3 A6
D3A7  C8        INY                             A:41 X:40 Y:97 P:A4 SP:FB STACK: 00 00 C6 14
D3A8  A9 00     LDA #$00                        A:41 X:40 Y:98 P:A4 SP:FB STACK: 00 00 C6 14
D3AA  85 78     STA $78 = 41                    A:00 X:40 Y:98 P:26 SP:FB STACK: 00 00 C6 14
D3AC  20 B2 F8  JSR $F8B2                       A:00 X:40 Y:98 P:26 SP:FB STACK: 00 00 C6 14
F8B2  A9 80     LDA #$80                        A:00 X:40 Y:98 P:26 SP:F9 STACK: 00 00 C6 14 D3 AE
F8B4  60        RTS                             A:80 X:40 Y:98 P:A4 SP:F9 STACK: 00 00 C6 14 D3 AE
D3AF  AA        TAX                             A:80 X:40 Y:98 P:A4 SP:FB STACK: 00 00 C6 14
D3B0  E4 78     CPX $78 = 00                    A:80 X:80 Y:98 P:A4 SP:FB STACK: 00 00 C6 14
D3B2  20 B5 F8  JSR $F8B5                       A:80 X:80 Y:98 P:A5 SP:FB STACK: 00 00 C6 14
F8B5  F0 05     BEQ $F8BC                       A:80 X:80 Y:98 P:A5 SP:F9 STACK: 00 00 C6 14 D3 B4
F8B7  10 03     BPL $F8BC                       A:80 X:80 Y:98 P:A5 SP:F9 STACK: 00 00 C6 14 D3 B4
F8B9  90 01     BCC $F8BC                       A:80 X:80 Y:98 P:A5 SP:F9 STACK: 00 00 C6 14 D3 B4
F8BB  60        RTS                             A:80 X:80 Y:98 P:A5 SP:F9 STACK: 00 00 C6 14 D3 B4
D3B5  C8        INY                             A:80 X:80 Y:98 P:A5 SP:FB STACK: 00 00 C6 14
D3B6  A9 80     LDA #$80                        A:80 X:80 Y:99 P:A5 SP:FB STACK: 00 00 C6 14
D3B8  85 78     STA $78 = 00                    A:80 X:80 Y:99 P:A5 SP:FB STACK: 00 00 C6 14
D3BA  E4 78     CPX $78 = 80                    A:80 X:80 Y:99 P:A5 SP:FB STACK: 00 00 C6 14
D3BC  20 BF F8  JSR $F8BF                       A:80 X:80 Y:99 P:27 SP:FB STACK: 00 00 C6 14
F8BF  D0 05     BNE $F8C6                       A:80 X:80 Y:99 P:27 SP:F9 STACK: 00 00 C6 14 D3 BE
F8C1  30 03     BMI $F8C6                       A:80 X:80 Y:99 P:27 SP:F9 STACK: 00 00 C6 14 D3 BE
F8C3  90 01     BCC $F8C6                       A:80 X:80 Y:99 P:27 SP:F9 STACK: 00 00 C6 14 D3 BE
F8C5  60        RTS                             A:80 X:80 Y:99 P:27 SP:F9 STACK: 00 00 C6 14 D3 BE
D3BF  C8        INY                             A:80 X:80 Y:99 P:27 SP:FB STACK: 00 00 C6 14
D3C0  A9 81     LDA #$81                        A:80 X:80 Y:9A P:A5 SP:FB STACK: 00 00 C6 14
D3C2  85 78     STA $78 = 80                    A:81 X:80 Y:9A P:A5 SP:FB STACK: 00 00 C6 14
D3C4  E4 78     CPX $78 = 81                    A:81 X:80 Y:9A P:A5 SP:FB STACK: 00 00 C6 14
D3C6  20 C9 F8  JSR $F8C9                       A:81 X:80 Y:9A P:A4 SP:FB STACK: 00 00 C6 14
F8C9  B0 05     BCS $F8D0                       A:81 X:80 Y:9A P:A4 SP:F9 STACK: 00 00 C6 14 D3 C8
F8CB  F0 03     BEQ $F8D0                       A:81 X:80 Y:9A P:A4 SP:F9 STACK: 00 00 C6 14 D3 C8
F8CD  10 01     BPL $F8D0                       A:81 X:80 Y:9A P:A4 SP:F9 STACK: 00 00 C6 14 D3 C8
F8CF  60        RTS                             A:81 X:80 Y:9A P:A4 SP:F9 STACK: 00 00 C6 14 D3 C8
D3C9  C8        INY                             A:81 X:80 Y:9A P:A4 SP:FB STACK: 00 00 C6 14
D3CA  A9 7F     LDA #$7F                        A:81 X:80 Y:9B P:A4 SP:FB STACK: 00 00 C6 14
D3CC  85 78     STA $78 = 81                    A:7F X:80 Y:9B P:24 SP:FB STACK: 00 00 C6 14
D3CE  E4 78     CPX $78 = 7F                    A:7F X:80 Y:9B P:24 SP:FB STACK: 00 00 C6 14
D3D0  20 D3 F8  JSR $F8D3                       A:7F X:80 Y:9B P:25 SP:FB STACK: 00 00 C6 14
F8D3  90 05     BCC $F8DA                       A:7F X:80 Y:9B P:25 SP:F9 STACK: 00 00 C6 14 D3 D2
F8D5  F0 03     BEQ $F8DA                       A:7F X:80 Y:9B P:25 SP:F9 STACK: 00 00 C6 14 D3 D2
F8D7  30 01     BMI $F8DA                       A:7F X:80 Y:9B P:25 SP:F9 STACK: 00 00 C6 14 D3 D2
F8D9  60        RTS                             A:7F X:80 Y:9B P:25 SP:F9 STACK: 00 00 C6 14 D3 D2
D3D3  C8        INY                             A:7F X:80 Y:9B P:25 SP:FB STACK: 00 00 C6 14
D3D4  98        TYA                             A:7F X:80 Y:9C P:A5 SP:FB STACK: 00 00 C6 14
D3D5  AA        TAX                             A:9C X:80 Y:9C P:A5 SP:FB STACK: 00 00 C6 14
D3D6  A9 40     LDA #$40                        A:9C X:9C Y:9C P:A5 SP:FB STACK: 00 00 C6 14
D3D8  85 78     STA $78 = 7F                    A:40 X:9C Y:9C P:25 SP:FB STACK: 00 00 C6 14
D3DA  20 DD F8  JSR $F8DD                       A:40 X:9C Y:9C P:25 SP:FB STACK: 00 00 C6 14
F8DD  24 01     BIT $01 = FF                    A:40 X:9C Y:9C P:25 SP:F9 STACK: 00 00 C6 14 D3 DC
F8DF  A0 40     LDY #$40                        A:40 X:9C Y:9C P:E5 SP:F9 STACK: 00 00 C6 14 D3 DC
F8E1  60        RTS                             A:40 X:9C Y:40 P:65 SP:F9 STACK: 00 00 C6 14 D3 DC
D3DD  C4 78     CPY $78 = 40                    A:40 X:9C Y:40 P:65 SP:FB STACK: 00 00 C6 14
D3DF  20 E2 F8  JSR $F8E2                       A:40 X:9C Y:40 P:67 SP:FB STACK: 00 00 C6 14
F8E2  30 07     BMI $F8EB                       A:40 X:9C Y:40 P:67 SP:F9 STACK: 00 00 C6 14 D3 E1
F8E4  90 05     BCC $F8EB                       A:40 X:9C Y:40 P:67 SP:F9 STACK: 00 00 C6 14 D3 E1
F8E6  D0 03     BNE $F8EB                       A:40 X:9C Y:40 P:67 SP:F9 STACK: 00 00 C6 14 D3 E1
F8E8  50 01     BVC $F8EB                       A:40 X:9C Y:40 P:67 SP:F9 STACK: 00 00 C6 14 D3 E1
F8EA  60        RTS                             A:40 X:9C Y:40 P:67 SP:F9 STACK: 00 00 C6 14 D3 E1
D3E2  E8        INX                             A:40 X:9C Y:40 P:67 SP:FB STACK: 00 00 C6 14
D3E3  A9 3F     LDA #$3F                        A:40 X:9D Y:40 P:E5 SP:FB STACK: 00 00 C6 14
D3E5  85 78     STA $78 = 40                    A:3F X:9D Y:40 P:65 SP:FB STACK: 00 00 C6 14
D3E7  20 EE F8  JSR $F8EE                       A:3F X:9D Y:40 P:65 SP:FB STACK: 00 00 C6 14
F8EE  B8        CLV                             A:3F X:9D Y:40 P:65 SP:F9 STACK: 00 00 C6 14 D3 E9
F8EF  60        RTS                             A:3F X:9D Y:40 P:25 SP:F9 STACK: 00 00 C6 14 D3 E9
D3EA  C4 78     CPY $78 = 3F                    A:3F X:9D Y:40 P:25 SP:FB STACK: 00 00 C6 14
D3EC  20 F0 F8  JSR $F8F0                       A:3F X:9D Y:40 P:25 SP:FB STACK: 00 00 C6 14
F8F0  F0 07     BEQ $F8F9                       A:3F X:9D Y:40 P:25 SP:F9 STACK: 00 00 C6 14 D3 EE
F8F2  30 05     BMI $F8F9                       A:3F X:9D Y:40 P:25 SP:F9 STACK: 00 00 C6 14 D3 EE
F8F4  90 03     BCC $F8F9                       A:3F X:9D Y:40 P:25 SP:F9 STACK: 00 00 C6 14 D3 EE
F8F6  70 01     BVS $F8F9                       A:3F X:9D Y:40 P:25 SP:F9 STACK: 00 00 C6 14 D3 EE
F8F8  60        RTS                             A:3F X:9D Y:40 P:25 SP:F9 STACK: 00 00 C6 14 D3 EE
D3EF  E8        INX                             A:3F X:9D Y:40 P:25 SP:FB STACK: 00 00 C6 14
D3F0  A9 41     LDA #$41                        A:3F X:9E Y:40 P:A5 SP:FB STACK: 00 00 C6 14
D3F2  85 78     STA $78 = 3F                    A:41 X:9E Y:40 P:25 SP:FB STACK: 00 00 C6 14
D3F4  C4 78     CPY $78 = 41                    A:41 X:9E Y:40 P:25 SP:FB STACK: 00 00 C6 14
D3F6  20 FC F8  JSR $F8FC                       A:41 X:9E Y:40 P:A4 SP:FB STACK: 00 00 C6 14
F8FC  F0 05     BEQ $F903                       A:41 X:9E Y:40 P:A4 SP:F9 STACK: 00 00 C6 14 D3 F8
F8FE  10 03     BPL $F903                       A:41 X:9E Y:40 P:A4 SP:F9 STACK: 00 00 C6 14 D3 F8
F900  10 01     BPL $F903                       A:41 X:9E Y:40 P:A4 SP:F9 STACK: 00 00 C6 14 D3 F8
F902  60        RTS                             A:41 X:9E Y:40 P:A4 SP:F9 STACK: 00 00 C6 14 D3 F8
D3F9  E8        INX                             A:41 X:9E Y:40 P:A4 SP:FB STACK: 00 00 C6 14
D3FA  A9 00     LDA #$00                        A:41 X:9F Y:40 P:A4 SP:FB STACK: 00 00 C6 14
D3FC  85 78     STA $78 = 41                    A:00 X:9F Y:40 P:26 SP:FB STACK: 00 00 C6 14
D3FE  20 06 F9  JSR $F906                       A:00 X:9F Y:40 P:26 SP:FB STACK: 00 00 C6 14
F906  A0 80     LDY #$80                        A:00 X:9F Y:40 P:26 SP:F9 STACK: 00 00 C6 14 D4 00
F908  60        RTS                             A:00 X:9F Y:80 P:A4 SP:F9 STACK: 00 00 C6 14 D4 00
D401  C4 78     CPY $78 = 00                    A:00 X:9F Y:80 P:A4 SP:FB STACK: 00 00 C6 14
D403  20 09 F9  JSR $F909                       A:00 X:9F Y:80 P:A5 SP:FB STACK: 00 00 C6 14
F909  F0 05     BEQ $F910                       A:00 X:9F Y:80 P:A5 SP:F9 STACK: 00 00 C6 14 D4 05
F90B  10 03     BPL $F910                       A:00 X:9F Y:80 P:A5 SP:F9 STACK: 00 00 C6 14 D4 05
F90D  90 01     BCC $F910                       A:00 X:9F Y:80 P:A5 SP:F9 STACK: 00 00 C6 14 D4 05
F90F  60        RTS                             A:00 X:9F Y:80 P:A5 SP:F9 STACK: 00 00 C6 14 D4 05
D406  E8        INX                             A:00 X:9F Y:80 P:A5 SP:FB STACK: 00 00 C6 14
D407  A9 80     LDA #$80                        A:00 X:A0 Y:80 P:A5 SP:FB STACK: 00 00 C6 14
D409  85 78     STA $78 = 00                    A:80 X:A0 Y:80 P:A5 SP:FB STACK: 00 00 C6 14
D40B  C4 78     CPY $78 = 80                    A:80 X:A0 Y:80 P:A5 SP:FB STACK: 00 00 C6 14
D40D  20 13 F9  JSR $F913                       A:80 X:A0 Y:80 P:27 SP:FB STACK: 00 00 C6 14
F913  D0 05     BNE $F91A                       A:80 X:A0 Y:80 P:27 SP:F9 STACK: 00 00 C6 14 D4 0F
F915  30 03     BMI $F91A                       A:80 X:A0 Y:80 P:27 SP:F9 STACK: 00 00 C6 14 D4 0F
F917  90 01     BCC $F91A                       A:80 X:A0 Y:80 P:27 SP:F9 STACK: 00 00 C6 14 D4 0F
F919  60        RTS                             A:80 X:A0 Y:80 P:27 SP:F9 STACK: 00 00 C6 14 D4 0F
D410  E8        INX                             A:80 X:A0 Y:80 P:27 SP:FB STACK: 00 00 C6 14
D411  A9 81     LDA #$81                        A:80 X:A1 Y:80 P:A5 SP:FB STACK: 00 00 C6 14
D413  85 78     STA $78 = 80                    A:81 X:A1 Y:80 P:A5 SP:FB STACK: 00 00 C6 14
D415  C4 78     CPY $78 = 81                    A:81 X:A1 Y:80 P:A5 SP:FB STACK: 00 00 C6 14
D417  20 1D F9  JSR $F91D                       A:81 X:A1 Y:80 P:A4 SP:FB STACK: 00 00 C6 14
F91D  B0 05     BCS $F924                       A:81 X:A1 Y:80 P:A4 SP:F9 STACK: 00 00 C6 14 D4 19
F91F  F0 03     BEQ $F924                       A:81 X:A1 Y:80 P:A4 SP:F9 STACK: 00 00 C6 14 D4 19
F921  10 01     BPL $F924                       A:81 X:A1 Y:80 P:A4 SP:F9 STACK: 00 00 C6 14 D4 19
F923  60        RTS                             A:81 X:A1 Y:80 P:A4 SP:F9 STACK: 00 00 C6 14 D4 19
D41A  E8        INX                             A:81 X:A1 Y:80 P:A4 SP:FB STACK: 00 00 C6 14
D41B  A9 7F     LDA #$7F                        A:81 X:A2 Y:80 P:A4 SP:FB STACK: 00 00 C6 14
D41D  85 78     STA $78 = 81                    A:7F X:A2 Y:80 P:24 SP:FB STACK: 00 00 C6 14
D41F  C4 78     CPY $78 = 7F                    A:7F X:A2 Y:80 P:24 SP:FB STACK: 00 00 C6 14
D421  20 27 F9  JSR $F927                       A:7F X:A2 Y:80 P:25 SP:FB STACK: 00 00 C6 14
F927  90 05     BCC $F92E                       A:7F X:A2 Y:80 P:25 SP:F9 STACK: 00 00 C6 14 D4 23
F929  F0 03     BEQ $F92E                       A:7F X:A2 Y:80 P:25 SP:F9 STACK: 00 00 C6 14 D4 23
F92B  30 01     BMI $F92E                       A:7F X:A2 Y:80 P:25 SP:F9 STACK: 00 00 C6 14 D4 23
F92D  60        RTS                             A:7F X:A2 Y:80 P:25 SP:F9 STACK: 00 00 C6 14 D4 23
D424  E8        INX                             A:7F X:A2 Y:80 P:25 SP:FB STACK: 00 00 C6 14
D425  8A        TXA                             A:7F X:A3 Y:80 P:A5 SP:FB STACK: 00 00 C6 14
D426  A8        TAY                             A:A3 X:A3 Y:80 P:A5 SP:FB STACK: 00 00 C6 14
D427  20 90 F9  JSR $F990                       A:A3 X:A3 Y:A3 P:A5 SP:FB STACK: 00 00 C6 14
F990  A2 55     LDX #$55                        A:A3 X:A3 Y:A3 P:A5 SP:F9 STACK: 00 00 C6 14 D4 29
F992  A9 FF     LDA #$FF                        A:A3 X:55 Y:A3 P:25 SP:F9 STACK: 00 00 C6 14 D4 29
F994  85 01     STA $01 = FF                    A:FF X:55 Y:A3 P:A5 SP:F9 STACK: 00 00 C6 14 D4 29
F996  EA        NOP                             A:FF X:55 Y:A3 P:A5 SP:F9 STACK: 00 00 C6 14 D4 29
F997  24 01     BIT $01 = FF                    A:FF X:55 Y:A3 P:A5 SP:F9 STACK: 00 00 C6 14 D4 29
F999  38        SEC                             A:FF X:55 Y:A3 P:E5 SP:F9 STACK: 00 00 C6 14 D4 29
F99A  A9 01     LDA #$01                        A:FF X:55 Y:A3 P:E5 SP:F9 STACK: 00 00 C6 14 D4 29
F99C  60        RTS                             A:01 X:55 Y:A3 P:65 SP:F9 STACK: 00 00 C6 14 D4 29
D42A  85 78     STA $78 = 7F                    A:01 X:55 Y:A3 P:65 SP:FB STACK: 00 00 C6 14
D42C  46 78     LSR $78 = 01                    A:01 X:55 Y:A3 P:65 SP:FB STACK: 00 00 C6 14
D42E  A5 78     LDA $78 = 00                    A:01 X:55 Y:A3 P:65 SP:FB STACK: 00 00 C6 14
D430  20 9D F9  JSR $F99D                       A:00 X:55 Y:A3 P:67 SP:FB STACK: 00 00 C6 14
F99D  90 1B     BCC $F9BA                       A:00 X:55 Y:A3 P:67 SP:F9 STACK: 00 00 C6 14 D4 32
F99F  D0 19     BNE $F9BA                       A:00 X:55 Y:A3 P:67 SP:F9 STACK: 00 00 C6 14 D4 32
F9A1  30 17     BMI $F9BA                       A:00 X:55 Y:A3 P:67 SP:F9 STACK: 00 00 C6 14 D4 32
F9A3  50 15     BVC $F9BA                       A:00 X:55 Y:A3 P:67 SP:F9 STACK: 00 00 C6 14 D4 32
F9A5  C9 00     CMP #$00                        A:00 X:55 Y:A3 P:67 SP:F9 STACK: 00 00 C6 14 D4 32
F9A7  D0 11     BNE $F9BA                       A:00 X:55 Y:A3 P:67 SP:F9 STACK: 00 00 C6 14 D4 32
F9A9  B8        CLV                             A:00 X:55 Y:A3 P:67 SP:F9 STACK: 00 00 C6 14 D4 32
F9AA  A9 AA     LDA #$AA                        A:00 X:55 Y:A3 P:27 SP:F9 STACK: 00 00 C6 14 D4 32
F9AC  60        RTS                             A:AA X:55 Y:A3 P:A5 SP:F9 STACK: 00 00 C6 14 D4 32
D433  C8        INY                             A:AA X:55 Y:A3 P:A5 SP:FB STACK: 00 00 C6 14
D434  85 78     STA $78 = 00                    A:AA X:55 Y:A4 P:A5 SP:FB STACK: 00 00 C6 14
D436  46 78     LSR $78 = AA                    A:AA X:55 Y:A4 P:A5 SP:FB STACK: 00 00 C6 14
D438  A5 78     LDA $78 = 55                    A:AA X:55 Y:A4 P:24 SP:FB STACK: 00 00 C6 14
D43A  20 AD F9  JSR $F9AD                       A:55 X:55 Y:A4 P:24 SP:FB STACK: 00 00 C6 14
F9AD  B0 0B     BCS $F9BA                       A:55 X:55 Y:A4 P:24 SP:F9 STACK: 00 00 C6 14 D4 3C
F9AF  F0 09     BEQ $F9BA                       A:55 X:55 Y:A4 P:24 SP:F9 STACK: 00 00 C6 14 D4 3C
F9B1  30 07     BMI $F9BA                       A:55 X:55 Y:A4 P:24 SP:F9 STACK: 00 00 C6 14 D4 3C
F9B3  70 05     BVS $F9BA                       A:55 X:55 Y:A4 P:24 SP:F9 STACK: 00 00 C6 14 D4 3C
F9B5  C9 55     CMP #$55                        A:55 X:55 Y:A4 P:24 SP:F9 STACK: 00 00 C6 14 D4 3C
F9B7  D0 01     BNE $F9BA                       A:55 X:55 Y:A4 P:27 SP:F9 STACK: 00 00 C6 14 D4 3C
F9B9  60        RTS                             A:55 X:55 Y:A4 P:27 SP:F9 STACK: 00 00 C6 14 D4 3C
D43D  C8        INY                             A:55 X:55 Y:A4 P:27 SP:FB STACK: 00 00 C6 14
D43E  20 BD F9  JSR $F9BD                       A:55 X:55 Y:A5 P:A5 SP:FB STACK: 00 00 C6 14
F9BD  24 01     BIT $01 = FF                    A:55 X:55 Y:A5 P:A5 SP:F9 STACK: 00 00 C6 14 D4 40
F9BF  38        SEC                             A:55 X:55 Y:A5 P:E5 SP:F9 STACK: 00 00 C6 14 D4 40
F9C0  A9 80     LDA #$80                        A:55 X:55 Y:A5 P:E5 SP:F9 STACK: 00 00 C6 14 D4 40
F9C2  60        RTS                             A:80 X:55 Y:A5 P:E5 SP:F9 STACK: 00 00 C6 14 D4 40
D441  85 78     STA $78 = 55                    A:80 X:55 Y:A5 P:E5 SP:FB STACK: 00 00 C6 14
D443  06 78     ASL $78 = 80                    A:80 X:55 Y:A5 P:E5 SP:FB STACK: 00 00 C6 14
D445  A5 78     LDA $78 = 00                    A:80 X:55 Y:A5 P:65 SP:FB STACK: 00 00 C6 14
D447  20 C3 F9  JSR $F9C3                       A:00 X:55 Y:A5 P:67 SP:FB STACK: 00 00 C6 14
F9C3  90 1C     BCC $F9E1                       A:00 X:55 Y:A5 P:67 SP:F9 STACK: 00 00 C6 14 D4 49
F9C5  D0 1A     BNE $F9E1                       A:00 X:55 Y:A5 P:67 SP:F9 STACK: 00 00 C6 14 D4 49
F9C7  30 18     BMI $F9E1                       A:00 X:55 Y:A5 P:67 SP:F9 STACK: 00 00 C6 14 D4 49
F9C9  50 16     BVC $F9E1                       A:00 X:55 Y:A5 P:67 SP:F9 STACK: 00 00 C6 14 D4 49
F9CB  C9 00     CMP #$00                        A:00 X:55 Y:A5 P:67 SP:F9 STACK: 00 00 C6 14 D4 49
F9CD  D0 12     BNE $F9E1                       A:00 X:55 Y:A5 P:67 SP:F9 STACK: 00 00 C6 14 D4 49
F9CF  B8        CLV                             A:00 X:55 Y:A5 P:67 SP:F9 STACK: 00 00 C6 14 D4 49
F9D0  A9 55     LDA #$55                        A:00 X:55 Y:A5 P:27 SP:F9 STACK: 00 00 C6 14 D4 49
F9D2  38        SEC                             A:55 X:55 Y:A5 P:25 SP:F9 STACK: 00 00 C6 14 D4 49
F9D3  60        RTS                             A:55 X:55 Y:A5 P:25 SP:F9 STACK: 00 00 C6 14 D4 49
D44A  C8        INY                             A:55 X:55 Y:A5 P:25 SP:FB STACK: 00 00 C6 14
D44B  85 78     STA $78 = 00                    A:55 X:55 Y:A6 P:A5 SP:FB STACK: 00 00 C6 14
D44D  06 78     ASL $78 = 55                    A:55 X:55 Y:A6 P:A5 SP:FB STACK: 00 00 C6 14
D44F  A5 78     LDA $78 = AA                    A:55 X:55 Y:A6 P:A4 SP:FB STACK: 00 00 C6 14
D451  20 D4 F9  JSR $F9D4                       A:AA X:55 Y:A6 P:A4 SP:FB STACK: 00 00 C6 14
F9D4  B0 0B     BCS $F9E1                       A:AA X:55 Y:A6 P:A4 SP:F9 STACK: 00 00 C6 14 D4 53
F9D6  F0 09     BEQ $F9E1                       A:AA X:55 Y:A6 P:A4 SP:F9 STACK: 00 00 C6 14 D4 53
F9D8  10 07     BPL $F9E1                       A:AA X:55 Y:A6 P:A4 SP:F9 STACK: 00 00 C6 14 D4 53
F9DA  70 05     BVS $F9E1                       A:AA X:55 Y:A6 P:A4 SP:F9 STACK: 00 00 C6 14 D4 53
F9DC  C9 AA     CMP #$AA                        A:AA X:55 Y:A6 P:A4 SP:F9 STACK: 00 00 C6 14 D4 53
F9DE  D0 01     BNE $F9E1                       A:AA X:55 Y:A6 P:27 SP:F9 STACK: 00 00 C6 14 D4 53
F9E0  60        RTS                             A:AA X:55 Y:A6 P:27 SP:F9 STACK: 00 00 C6 14 D4 53
D454  C8        INY                             A:AA X:55 Y:A6 P:27 SP:FB STACK: 00 00 C6 14
D455  20 E4 F9  JSR $F9E4                       A:AA X:55 Y:A7 P:A5 SP:FB STACK: 00 00 C6 14
F9E4  24 01     BIT $01 = FF                    A:AA X:55 Y:A7 P:A5 SP:F9 STACK: 00 00 C6 14 D4 57
F9E6  38        SEC                             A:AA X:55 Y:A7 P:E5 SP:F9 STACK: 00 00 C6 14 D4 57
F9E7  A9 01     LDA #$01                        A:AA X:55 Y:A7 P:E5 SP:F9 STACK: 00 00 C6 14 D4 57
F9E9  60        RTS                             A:01 X:55 Y:A7 P:65 SP:F9 STACK: 00 00 C6 14 D4 57
D458  85 78     STA $78 = AA                    A:01 X:55 Y:A7 P:65 SP:FB STACK: 00 00 C6 14
D45A  66 78     ROR $78 = 01                    A:01 X:55 Y:A7 P:65 SP:FB STACK: 00 00 C6 14
D45C  A5 78     LDA $78 = 80                    A:01 X:55 Y:A7 P:E5 SP:FB STACK: 00 00 C6 14
D45E  20 EA F9  JSR $F9EA                       A:80 X:55 Y:A7 P:E5 SP:FB STACK: 00 00 C6 14
F9EA  90 1C     BCC $FA08                       A:80 X:55 Y:A7 P:E5 SP:F9 STACK: 00 00 C6 14 D4 60
F9EC  F0 1A     BEQ $FA08                       A:80 X:55 Y:A7 P:E5 SP:F9 STACK: 00 00 C6 14 D4 60
F9EE  10 18     BPL $FA08                       A:80 X:55 Y:A7 P:E5 SP:F9 STACK: 00 00 C6 14 D4 60
F9F0  50 16     BVC $FA08                       A:80 X:55 Y:A7 P:E5 SP:F9 STACK: 00 00 C6 14 D4 60
F9F2  C9 80     CMP #$80                        A:80 X:55 Y:A7 P:E5 SP:F9 STACK: 00 00 C6 14 D4 60
F9F4  D0 12     BNE $FA08                       A:80 X:55 Y:A7 P:67 SP:F9 STACK: 00 00 C6 14 D4 60
F9F6  B8        CLV                             A:80 X:55 Y:A7 P:67 SP:F9 STACK: 00 00 C6 14 D4 60
F9F7  18        CLC                             A:80 X:55 Y:A7 P:27 SP:F9 STACK: 00 00 C6 14 D4 60
F9F8  A9 55     LDA #$55                        A:80 X:55 Y:A7 P:26 SP:F9 STACK: 00 00 C6 14 D4 60
F9FA  60        RTS                             A:55 X:55 Y:A7 P:24 SP:F9 STACK: 00 00 C6 14 D4 60
D461  C8        INY                             A:55 X:55 Y:A7 P:24 SP:FB STACK: 00 00 C6 14
D462  85 78     STA $78 = 80                    A:55 X:55 Y:A8 P:A4 SP:FB STACK: 00 00 C6 14
D464  66 78     ROR $78 = 55                    A:55 X:55 Y:A8 P:A4 SP:FB STACK: 00 00 C6 14
D466  A5 78     LDA $78 = 2A                    A:55 X:55 Y:A8 P:25 SP:FB STACK: 00 00 C6 14
D468  20 FB F9  JSR $F9FB                       A:2A X:55 Y:A8 P:25 SP:FB STACK: 00 00 C6 14
F9FB  90 0B     BCC $FA08                       A:2A X:55 Y:A8 P:25 SP:F9 STACK: 00 00 C6 14 D4 6A
F9FD  F0 09     BEQ $FA08                       A:2A X:55 Y:A8 P:25 SP:F9 STACK: 00 00 C6 14 D4 6A
F9FF  30 07     BMI $FA08                       A:2A X:55 Y:A8 P:25 SP:F9 STACK: 00 00 C6 14 D4 6A
FA01  70 05     BVS $FA08                       A:2A X:55 Y:A8 P:25 SP:F9 STACK: 00 00 C6 14 D4 6A
FA03  C9 2A     CMP #$2A                        A:2A X:55 Y:A8 P:25 SP:F9 STACK: 00 00 C6 14 D4 6A
FA05  D0 01     BNE $FA08                       A:2A X:55 Y:A8 P:27 SP:F9 STACK: 00 00 C6 14 D4 6A
FA07  60        RTS                             A:2A X:55 Y:A8 P:27 SP:F9 STACK: 00 00 C6 14 D4 6A
D46B  C8        INY                             A:2A X:55 Y:A8 P:27 SP:FB STACK: 00 00 C6 14
D46C  20 0A FA  JSR $FA0A                       A:2A X:55 Y:A9 P:A5 SP:FB STACK: 00 00 C6 14
FA0A  24 01     BIT $01 = FF                    A:2A X:55 Y:A9 P:A5 SP:F9 STACK: 00 00 C6 14 D4 6E
FA0C  38        SEC                             A:2A X:55 Y:A9 P:E5 SP:F9 STACK: 00 00 C6 14 D4 6E
FA0D  A9 80     LDA #$80                        A:2A X:55 Y:A9 P:E5 SP:F9 STACK: 00 00 C6 14 D4 6E
FA0F  60        RTS                             A:80 X:55 Y:A9 P:E5 SP:F9 STACK: 00 00 C6 14 D4 6E
D46F  85 78     STA $78 = 2A                    A:80 X:55 Y:A9 P:E5 SP:FB STACK: 00 00 C6 14
D471  26 78     ROL $78 = 80                    A:80 X:55 Y:A9 P:E5 SP:FB STACK: 00 00 C6 14
D473  A5 78     LDA $78 = 01                    A:80 X:55 Y:A9 P:65 SP:FB STACK: 00 00 C6 14
D475  20 10 FA  JSR $FA10                       A:01 X:55 Y:A9 P:65 SP:FB STACK: 00 00 C6 14
FA10  90 1C     BCC $FA2E                       A:01 X:55 Y:A9 P:65 SP:F9 STACK: 00 00 C6 14 D4 77
FA12  F0 1A     BEQ $FA2E                       A:01 X:55 Y:A9 P:65 SP:F9 STACK: 00 00 C6 14 D4 77
FA14  30 18     BMI $FA2E                       A:01 X:55 Y:A9 P:65 SP:F9 STACK: 00 00 C6 14 D4 77
FA16  50 16     BVC $FA2E                       A:01 X:55 Y:A9 P:65 SP:F9 STACK: 00 00 C6 14 D4 77
FA18  C9 01     CMP #$01                        A:01 X:55 Y:A9 P:65 SP:F9 STACK: 00 00 C6 14 D4 77
FA1A  D0 12     BNE $FA2E                       A:01 X:55 Y:A9 P:67 SP:F9 STACK: 00 00 C6 14 D4 77
FA1C  B8        CLV                             A:01 X:55 Y:A9 P:67 SP:F9 STACK: 00 00 C6 14 D4 77
FA1D  18        CLC                             A:01 X:55 Y:A9 P:27 SP:F9 STACK: 00 00 C6 14 D4 77
FA1E  A9 55     LDA #$55                        A:01 X:55 Y:A9 P:26 SP:F9 STACK: 00 00 C6 14 D4 77
FA20  60        RTS                             A:55 X:55 Y:A9 P:24 SP:F9 STACK: 00 00 C6 14 D4 77
D478  C8        INY                             A:55 X:55 Y:A9 P:24 SP:FB STACK: 00 00 C6 14
D479  85 78     STA $78 = 01                    A:55 X:55 Y:AA P:A4 SP:FB STACK: 00 00 C6 14
D47B  26 78     ROL $78 = 55                    A:55 X:55 Y:AA P:A4 SP:FB STACK: 00 00 C6 14
D47D  A5 78     LDA $78 = AA                    A:55 X:55 Y:AA P:A4 SP:FB STACK: 00 00 C6 14
D47F  20 21 FA  JSR $FA21                       A:AA X:55 Y:AA P:A4 SP:FB STACK: 00 00 C6 14
FA21  B0 0B     BCS $FA2E                       A:AA X:55 Y:AA P:A4 SP:F9 STACK: 00 00 C6 14 D4 81
FA23  F0 09     BEQ $FA2E                       A:AA X:55 Y:AA P:A4 SP:F9 STACK: 00 00 C6 14 D4 81
FA25  10 07     BPL $FA2E                       A:AA X:55 Y:AA P:A4 SP:F9 STACK: 00 00 C6 14 D4 81
FA27  70 05     BVS $FA2E                       A:AA X:55 Y:AA P:A4 SP:F9 STACK: 00 00 C6 14 D4 81
FA29  C9 AA     CMP #$AA                        A:AA X:55 Y:AA P:A4 SP:F9 STACK: 00 00 C6 14 D4 81
FA2B  D0 01     BNE $FA2E                       A:AA X:55 Y:AA P:27 SP:F9 STACK: 00 00 C6 14 D4 81
FA2D  60        RTS                             A:AA X:55 Y:AA P:27 SP:F9 STACK: 00 00 C6 14 D4 81
D482  A9 FF     LDA #$FF                        A:AA X:55 Y:AA P:27 SP:FB STACK: 00 00 C6 14
D484  85 78     STA $78 = AA                    A:FF X:55 Y:AA P:A5 SP:FB STACK: 00 00 C6 14
D486  85 01     STA $01 = FF                    A:FF X:55 Y:AA P:A5 SP:FB STACK: 00 00 C6 14
D488  24 01     BIT $01 = FF                    A:FF X:55 Y:AA P:A5 SP:FB STACK: 00 00 C6 14
D48A  38        SEC                             A:FF X:55 Y:AA P:E5 SP:FB STACK: 00 00 C6 14
D48B  E6 78     INC $78 = FF                    A:FF X:55 Y:AA P:E5 SP:FB STACK: 00 00 C6 14
D48D  D0 0C     BNE $D49B                       A:FF X:55 Y:AA P:67 SP:FB STACK: 00 00 C6 14
D48F  30 0A     BMI $D49B                       A:FF X:55 Y:AA P:67 SP:FB STACK: 00 00 C6 14
D491  50 08     BVC $D49B                       A:FF X:55 Y:AA P:67 SP:FB STACK: 00 00 C6 14
D493  90 06     BCC $D49B                       A:FF X:55 Y:AA P:67 SP:FB STACK: 00 00 C6 14
D495  A5 78     LDA $78 = 00                    A:FF X:55 Y:AA P:67 SP:FB STACK: 00 00 C6 14
D497  C9 00     CMP #$00                        A:00 X:55 Y:AA P:67 SP:FB STACK: 00 00 C6 14
D499  F0 04     BEQ $D49F                       A:00 X:55 Y:AA P:67 SP:FB STACK: 00 00 C6 14
D49F  A9 7F     LDA #$7F                        A:00 X:55 Y:AA P:67 SP:FB STACK: 00 00 C6 14
D4A1  85 78     STA $78 = 00                    A:7F X:55 Y:AA P:65 SP:FB STACK: 00 00 C6 14
D4A3  B8        CLV                             A:7F X:55 Y:AA P:65 SP:FB STACK: 00 00 C6 14
D4A4  18        CLC                             A:7F X:55 Y:AA P:25 SP:FB STACK: 00 00 C6 14
D4A5  E6 78     INC $78 = 7F                    A:7F X:55 Y:AA P:24 SP:FB STACK: 00 00 C6 14
D4A7  F0 0C     BEQ $D4B5                       A:7F X:55 Y:AA P:A4 SP:FB STACK: 00 00 C6 14
D4A9  10 0A     BPL $D4B5                       A:7F X:55 Y:AA P:A4 SP:FB STACK: 00 00 C6 14
D4AB  70 08     BVS $D4B5                       A:7F X:55 Y:AA P:A4 SP:FB STACK: 00 00 C6 14
D4AD  B0 06     BCS $D4B5                       A:7F X:55 Y:AA P:A4 SP:FB STACK: 00 00 C6 14
D4AF  A5 78     LDA $78 = 80                    A:7F X:55 Y:AA P:A4 SP:FB STACK: 00 00 C6 14
D4B1  C9 80     CMP #$80                        A:80 X:55 Y:AA P:A4 SP:FB STACK: 00 00 C6 14
D4B3  F0 04     BEQ $D4B9                       A:80 X:55 Y:AA P:27 SP:FB STACK: 00 00 C6 14
D4B9  A9 00     LDA #$00                        A:80 X:55 Y:AA P:27 SP:FB STACK: 00 00 C6 14
D4BB  85 78     STA $78 = 80                    A:00 X:55 Y:AA P:27 SP:FB STACK: 00 00 C6 14
D4BD  24 01     BIT $01 = FF                    A:00 X:55 Y:AA P:27 SP:FB STACK: 00 00 C6 14
D4BF  38        SEC                             A:00 X:55 Y:AA P:E7 SP:FB STACK: 00 00 C6 14
D4C0  C6 78     DEC $78 = 00                    A:00 X:55 Y:AA P:E7 SP:FB STACK: 00 00 C6 14
D4C2  F0 0C     BEQ $D4D0                       A:00 X:55 Y:AA P:E5 SP:FB STACK: 00 00 C6 14
D4C4  10 0A     BPL $D4D0                       A:00 X:55 Y:AA P:E5 SP:FB STACK: 00 00 C6 14
D4C6  50 08     BVC $D4D0                       A:00 X:55 Y:AA P:E5 SP:FB STACK: 00 00 C6 14
D4C8  90 06     BCC $D4D0                       A:00 X:55 Y:AA P:E5 SP:FB STACK: 00 00 C6 14
D4CA  A5 78     LDA $78 = FF                    A:00 X:55 Y:AA P:E5 SP:FB STACK: 00 00 C6 14
D4CC  C9 FF     CMP #$FF                        A:FF X:55 Y:AA P:E5 SP:FB STACK: 00 00 C6 14
D4CE  F0 04     BEQ $D4D4                       A:FF X:55 Y:AA P:67 SP:FB STACK: 00 00 C6 14
D4D4  A9 80     LDA #$80                        A:FF X:55 Y:AA P:67 SP:FB STACK: 00 00 C6 14
D4D6  85 78     STA $78 = FF                    A:80 X:55 Y:AA P:E5 SP:FB STACK: 00 00 C6 14
D4D8  B8        CLV                             A:80 X:55 Y:AA P:E5 SP:FB STACK: 00 00 C6 14
D4D9  18        CLC                             A:80 X:55 Y:AA P:A5 SP:FB STACK: 00 00 C6 14
D4DA  C6 78     DEC $78 = 80                    A:80 X:55 Y:AA P:A4 SP:FB STACK: 00 00 C6 14
D4DC  F0 0C     BEQ $D4EA                       A:80 X:55 Y:AA P:24 SP:FB STACK: 00 00 C6 14
D4DE  30 0A     BMI $D4EA                       A:80 X:55 Y:AA P:24 SP:FB STACK: 00 00 C6 14
D4E0  70 08     BVS $D4EA                       A:80 X:55 Y:AA P:24 SP:FB STACK: 00 00 C6 14
D4E2  B0 06     BCS $D4EA                       A:80 X:55 Y:AA P:24 SP:FB STACK: 00 00 C6 14
D4E4  A5 78     LDA $78 = 7F                    A:80 X:55 Y:AA P:24 SP:FB STACK: 00 00 C6 14
D4E6  C9 7F     CMP #$7F                        A:7F X:55 Y:AA P:24 SP:FB STACK: 00 00 C6 14
D4E8  F0 04     BEQ $D4EE                       A:7F X:55 Y:AA P:27 SP:FB STACK: 00 00 C6 14
D4EE  A9 01     LDA #$01                        A:7F X:55 Y:AA P:27 SP:FB STACK: 00 00 C6 14
D4F0  85 78     STA $78 = 7F                    A:01 X:55 Y:AA P:25 SP:FB STACK: 00 00 C6 14
D4F2  C6 78     DEC $78 = 01                    A:01 X:55 Y:AA P:25 SP:FB STACK: 00 00 C6 14
D4F4  F0 04     BEQ $D4FA                       A:01 X:55 Y:AA P:27 SP:FB STACK: 00 00 C6 14
D4FA  60        RTS                             A:01 X:55 Y:AA P:27 SP:FB STACK: 00 00 C6 14
C615  20 FB D4  JSR $D4FB                       A:01 X:55 Y:AA P:27 SP:FD STACK: 00 00
D4FB  A9 55     LDA #$55                        A:01 X:55 Y:AA P:27 SP:FB STACK: 00 00 C6 17
D4FD  8D 78 06  STA $0678 = 00                  A:55 X:55 Y:AA P:25 SP:FB STACK: 00 00 C6 17
D500  A9 FF     LDA #$FF                        A:55 X:55 Y:AA P:25 SP:FB STACK: 00 00 C6 17
D502  85 01     STA $01 = FF                    A:FF X:55 Y:AA P:A5 SP:FB STACK: 00 00 C6 17
D504  24 01     BIT $01 = FF                    A:FF X:55 Y:AA P:A5 SP:FB STACK: 00 00 C6 17
D506  A0 11     LDY #$11                        A:FF X:55 Y:AA P:E5 SP:FB STACK: 00 00 C6 17
D508  A2 23     LDX #$23                        A:FF X:55 Y:11 P:65 SP:FB STACK: 00 00 C6 17
D50A  A9 00     LDA #$00                        A:FF X:23 Y:11 P:65 SP:FB STACK: 00 00 C6 17
D50C  AD 78 06  LDA $0678 = 55                  A:00 X:23 Y:11 P:67 SP:FB STACK: 00 00 C6 17
D50F  F0 10     BEQ $D521                       A:55 X:23 Y:11 P:65 SP:FB STACK: 00 00 C6 17
D511  30 0E     BMI $D521                       A:55 X:23 Y:11 P:65 SP:FB STACK: 00 00 C6 17
D513  C9 55     CMP #$55                        A:55 X:23 Y:11 P:65 SP:FB STACK: 00 00 C6 17
D515  D0 0A     BNE $D521                       A:55 X:23 Y:11 P:67 SP:FB STACK: 00 00 C6 17
D517  C0 11     CPY #$11                        A:55 X:23 Y:11 P:67 SP:FB STACK: 00 00 C6 17
D519  D0 06     BNE $D521                       A:55 X:23 Y:11 P:67 SP:FB STACK: 00 00 C6 17
D51B  E0 23     CPX #$23                        A:55 X:23 Y:11 P:67 SP:FB STACK: 00 00 C6 17
D51D  50 02     BVC $D521                       A:55 X:23 Y:11 P:67 SP:FB STACK: 00 00 C6 17
D51F  F0 04     BEQ $D525                       A:55 X:23 Y:11 P:67 SP:FB STACK: 00 00 C6 17
D525  A9 46     LDA #$46                        A:55 X:23 Y:11 P:67 SP:FB STACK: 00 00 C6 17
D527  24 01     BIT $01 = FF                    A:46 X:23 Y:11 P:65 SP:FB STACK: 00 00 C6 17
D529  8D 78 06  STA $0678 = 55                  A:46 X:23 Y:11 P:E5 SP:FB STACK: 00 00 C6 17
D52C  F0 0B     BEQ $D539                       A:46 X:23 Y:11 P:E5 SP:FB STACK: 00 00 C6 17
D52E  10 09     BPL $D539                       A:46 X:23 Y:11 P:E5 SP:FB STACK: 00 00 C6 17
D530  50 07     BVC $D539                       A:46 X:23 Y:11 P:E5 SP:FB STACK: 00 00 C6 17
D532  AD 78 06  LDA $0678 = 46                  A:46 X:23 Y:11 P:E5 SP:FB STACK: 00 00 C6 17
D535  C9 46     CMP #$46                        A:46 X:23 Y:11 P:65 SP:FB STACK: 00 00 C6 17
D537  F0 04     BEQ $D53D                       A:46 X:23 Y:11 P:67 SP:FB STACK: 00 00 C6 17
D53D  A9 55     LDA #$55                        A:46 X:23 Y:11 P:67 SP:FB STACK: 00 00 C6 17
D53F  8D 78 06  STA $0678 = 46                  A:55 X:23 Y:11 P:65 SP:FB STACK: 00 00 C6 17
D542  24 01     BIT $01 = FF                    A:55 X:23 Y:11 P:65 SP:FB STACK: 00 00 C6 17
D544  A9 11     LDA #$11                        A:55 X:23 Y:11 P:E5 SP:FB STACK: 00 00 C6 17
D546  A2 23     LDX #$23                        A:11 X:23 Y:11 P:65 SP:FB STACK: 00 00 C6 17
D548  A0 00     LDY #$00                        A:11 X:23 Y:11 P:65 SP:FB STACK: 00 00 C6 17
D54A  AC 78 06  LDY $0678 = 55                  A:11 X:23 Y:00 P:67 SP:FB STACK: 00 00 C6 17
D54D  F0 10     BEQ $D55F                       A:11 X:23 Y:55 P:65 SP:FB STACK: 00 00 C6 17
D54F  30 0E     BMI $D55F                       A:11 X:23 Y:55 P:65 SP:FB STACK: 00 00 C6 17
D551  C0 55     CPY #$55                        A:11 X:23 Y:55 P:65 SP:FB STACK: 00 00 C6 17
D553  D0 0A     BNE $D55F                       A:11 X:23 Y:55 P:67 SP:FB STACK: 00 00 C6 17
D555  C9 11     CMP #$11                        A:11 X:23 Y:55 P:67 SP:FB STACK: 00 00 C6 17
D557  D0 06     BNE $D55F                       A:11 X:23 Y:55 P:67 SP:FB STACK: 00 00 C6 17
D559  E0 23     CPX #$23                        A:11 X:23 Y:55 P:67 SP:FB STACK: 00 00 C6 17
D55B  50 02     BVC $D55F                       A:11 X:23 Y:55 P:67 SP:FB STACK: 00 00 C6 17
D55D  F0 04     BEQ $D563                       A:11 X:23 Y:55 P:67 SP:FB STACK: 00 00 C6 17
D563  A0 46     LDY #$46                        A:11 X:23 Y:55 P:67 SP:FB STACK: 00 00 C6 17
D565  24 01     BIT $01 = FF                    A:11 X:23 Y:46 P:65 SP:FB STACK: 00 00 C6 17
D567  8C 78 06  STY $0678 = 55                  A:11 X:23 Y:46 P:E5 SP:FB STACK: 00 00 C6 17
D56A  F0 0B     BEQ $D577                       A:11 X:23 Y:46 P:E5 SP:FB STACK: 00 00 C6 17
D56C  10 09     BPL $D577                       A:11 X:23 Y:46 P:E5 SP:FB STACK: 00 00 C6 17
D56E  50 07     BVC $D577                       A:11 X:23 Y:46 P:E5 SP:FB STACK: 00 00 C6 17
D570  AC 78 06  LDY $0678 = 46                  A:11 X:23 Y:46 P:E5 SP:FB STACK: 00 00 C6 17
D573  C0 46     CPY #$46                        A:11 X:23 Y:46 P:65 SP:FB STACK: 00 00 C6 17
D575  F0 04     BEQ $D57B                       A:11 X:23 Y:46 P:67 SP:FB STACK: 00 00 C6 17
D57B  24 01     BIT $01 = FF                    A:11 X:23 Y:46 P:67 SP:FB STACK: 00 00 C6 17
D57D  A9 55     LDA #$55                        A:11 X:23 Y:46 P:E5 SP:FB STACK: 00 00 C6 17
D57F  8D 78 06  STA $0678 = 46                  A:55 X:23 Y:46 P:65 SP:FB STACK: 00 00 C6 17
D582  A0 11     LDY #$11                        A:55 X:23 Y:46 P:65 SP:FB STACK: 00 00 C6 17
D584  A9 23     LDA #$23                        A:55 X:23 Y:11 P:65 SP:FB STACK: 00 00 C6 17
D586  A2 00     LDX #$00                        A:23 X:23 Y:11 P:65 SP:FB STACK: 00 00 C6 17
D588  AE 78 06  LDX $0678 = 55                  A:23 X:00 Y:11 P:67 SP:FB STACK: 00 00 C6 17
D58B  F0 10     BEQ $D59D                       A:23 X:55 Y:11 P:65 SP:FB STACK: 00 00 C6 17
D58D  30 0E     BMI $D59D                       A:23 X:55 Y:11 P:65 SP:FB STACK: 00 00 C6 17
D58F  E0 55     CPX #$55                        A:23 X:55 Y:11 P:65 SP:FB STACK: 00 00 C6 17
D591  D0 0A     BNE $D59D                       A:23 X:55 Y:11 P:67 SP:FB STACK: 00 00 C6 17
D593  C0 11     CPY #$11                        A:23 X:55 Y:11 P:67 SP:FB STACK: 00 00 C6 17
D595  D0 06     BNE $D59D                       A:23 X:55 Y:11 P:67 SP:FB STACK: 00 00 C6 17
D597  C9 23     CMP #$23                        A:23 X:55 Y:11 P:67 SP:FB STACK: 00 00 C6 17
D599  50 02     BVC $D59D                       A:23 X:55 Y:11 P:67 SP:FB STACK: 00 00 C6 17
D59B  F0 04     BEQ $D5A1                       A:23 X:55 Y:11 P:67 SP:FB STACK: 00 00 C6 17
D5A1  A2 46     LDX #$46                        A:23 X:55 Y:11 P:67 SP:FB STACK: 00 00 C6 17
D5A3  24 01     BIT $01 = FF                    A:23 X:46 Y:11 P:65 SP:FB STACK: 00 00 C6 17
D5A5  8E 78 06  STX $0678 = 55                  A:23 X:46 Y:11 P:E5 SP:FB STACK: 00 00 C6 17
D5A8  F0 0B     BEQ $D5B5                       A:23 X:46 Y:11 P:E5 SP:FB STACK: 00 00 C6 17
D5AA  10 09     BPL $D5B5                       A:23 X:46 Y:11 P:E5 SP:FB STACK: 00 00 C6 17
D5AC  50 07     BVC $D5B5                       A:23 X:46 Y:11 P:E5 SP:FB STACK: 00 00 C6 17
D5AE  AE 78 06  LDX $0678 = 46                  A:23 X:46 Y:11 P:E5 SP:FB STACK: 00 00 C6 17
D5B1  E0 46     CPX #$46                        A:23 X:46 Y:11 P:65 SP:FB STACK: 00 00 C6 17
D5B3  F0 04     BEQ $D5B9                       A:23 X:46 Y:11 P:67 SP:FB STACK: 00 00 C6 17
D5B9  A9 C0     LDA #$C0                        A:23 X:46 Y:11 P:67 SP:FB STACK: 00 00 C6 17
D5BB  8D 78 06  STA $0678 = 46                  A:C0 X:46 Y:11 P:E5 SP:FB STACK: 00 00 C6 17
D5BE  A2 33     LDX #$33                        A:C0 X:46 Y:11 P:E5 SP:FB STACK: 00 00 C6 17
D5C0  A0 88     LDY #$88                        A:C0 X:33 Y:11 P:65 SP:FB STACK: 00 00 C6 17
D5C2  A9 05     LDA #$05                        A:C0 X:33 Y:88 P:E5 SP:FB STACK: 00 00 C6 17
D5C4  2C 78 06  BIT $0678 = C0                  A:05 X:33 Y:88 P:65 SP:FB STACK: 00 00 C6 17
D5C7  10 10     BPL $D5D9                       A:05 X:33 Y:88 P:E7 SP:FB STACK: 00 00 C6 17
D5C9  50 0E     BVC $D5D9                       A:05 X:33 Y:88 P:E7 SP:FB STACK: 00 00 C6 17
D5CB  D0 0C     BNE $D5D9                       A:05 X:33 Y:88 P:E7 SP:FB STACK: 00 00 C6 17
D5CD  C9 05     CMP #$05                        A:05 X:33 Y:88 P:E7 SP:FB STACK: 00 00 C6 17
D5CF  D0 08     BNE $D5D9                       A:05 X:33 Y:88 P:67 SP:FB STACK: 00 00 C6 17
D5D1  E0 33     CPX #$33                        A:05 X:33 Y:88 P:67 SP:FB STACK: 00 00 C6 17
D5D3  D0 04     BNE $D5D9                       A:05 X:33 Y:88 P:67 SP:FB STACK: 00 00 C6 17
D5D5  C0 88     CPY #$88                        A:05 X:33 Y:88 P:67 SP:FB STACK: 00 00 C6 17
D5D7  F0 04     BEQ $D5DD                       A:05 X:33 Y:88 P:67 SP:FB STACK: 00 00 C6 17
D5DD  A9 03     LDA #$03                        A:05 X:33 Y:88 P:67 SP:FB STACK: 00 00 C6 17
D5DF  8D 78 06  STA $0678 = C0                  A:03 X:33 Y:88 P:65 SP:FB STACK: 00 00 C6 17
D5E2  A9 01     LDA #$01                        A:03 X:33 Y:88 P:65 SP:FB STACK: 00 00 C6 17
D5E4  2C 78 06  BIT $0678 = 03                  A:01 X:33 Y:88 P:65 SP:FB STACK: 00 00 C6 17
D5E7  30 08     BMI $D5F1                       A:01 X:33 Y:88 P:25 SP:FB STACK: 00 00 C6 17
D5E9  70 06     BVS $D5F1                       A:01 X:33 Y:88 P:25 SP:FB STACK: 00 00 C6 17
D5EB  F0 04     BEQ $D5F1                       A:01 X:33 Y:88 P:25 SP:FB STACK: 00 00 C6 17
D5ED  C9 01     CMP #$01                        A:01 X:33 Y:88 P:25 SP:FB STACK: 00 00 C6 17
D5EF  F0 04     BEQ $D5F5                       A:01 X:33 Y:88 P:27 SP:FB STACK: 00 00 C6 17
D5F5  A0 B8     LDY #$B8                        A:01 X:33 Y:88 P:27 SP:FB STACK: 00 00 C6 17
D5F7  A9 AA     LDA #$AA                        A:01 X:33 Y:B8 P:A5 SP:FB STACK: 00 00 C6 17
D5F9  8D 78 06  STA $0678 = 03                  A:AA X:33 Y:B8 P:A5 SP:FB STACK: 00 00 C6 17
D5FC  20 B6 F7  JSR $F7B6                       A:AA X:33 Y:B8 P:A5 SP:FB STACK: 00 00 C6 17
F7B6  18        CLC                             A:AA X:33 Y:B8 P:A5 SP:F9 STACK: 00 00 C6 17 D5 FE
F7B7  A9 FF     LDA #$FF                        A:AA X:33 Y:B8 P:A4 SP:F9 STACK: 00 00 C6 17 D5 FE
F7B9  85 01     STA $01 = FF                    A:FF X:33 Y:B8 P:A4 SP:F9 STACK: 00 00 C6 17 D5 FE
F7BB  24 01     BIT $01 = FF                    A:FF X:33 Y:B8 P:A4 SP:F9 STACK: 00 00 C6 17 D5 FE
F7BD  A9 55     LDA #$55                        A:FF X:33 Y:B8 P:E4 SP:F9 STACK: 00 00 C6 17 D5 FE
F7BF  60        RTS                             A:55 X:33 Y:B8 P:64 SP:F9 STACK: 00 00 C6 17 D5 FE
D5FF  0D 78 06  ORA $0678 = AA                  A:55 X:33 Y:B8 P:64 SP:FB STACK: 00 00 C6 17
D602  20 C0 F7  JSR $F7C0                       A:FF X:33 Y:B8 P:E4 SP:FB STACK: 00 00 C6 17
F7C0  B0 09     BCS $F7CB                       A:FF X:33 Y:B8 P:E4 SP:F9 STACK: 00 00 C6 17 D6 04
F7C2  10 07     BPL $F7CB                       A:FF X:33 Y:B8 P:E4 SP:F9 STACK: 00 00 C6 17 D6 04
F7C4  C9 FF     CMP #$FF                        A:FF X:33 Y:B8 P:E4 SP:F9 STACK: 00 00 C6 17 D6 04
F7C6  D0 03     BNE $F7CB                       A:FF X:33 Y:B8 P:67 SP:F9 STACK: 00 00 C6 17 D6 04
F7C8  50 01     BVC $F7CB                       A:FF X:33 Y:B8 P:67 SP:F9 STACK: 00 00 C6 17 D6 04
F7CA  60        RTS                             A:FF X:33 Y:B8 P:67 SP:F9 STACK: 00 00 C6 17 D6 04
D605  C8        INY                             A:FF X:33 Y:B8 P:67 SP:FB STACK: 00 00 C6 17
D606  A9 00     LDA #$00                        A:FF X:33 Y:B9 P:E5 SP:FB STACK: 00 00 C6 17
D608  8D 78 06  STA $0678 = AA                  A:00 X:33 Y:B9 P:67 SP:FB STACK: 00 00 C6 17
D60B  20 CE F7  JSR $F7CE                       A:00 X:33 Y:B9 P:67 SP:FB STACK: 00 00 C6 17
F7CE  38        SEC                             A:00 X:33 Y:B9 P:67 SP:F9 STACK: 00 00 C6 17 D6 0D
F7CF  B8        CLV                             A:00 X:33 Y:B9 P:67 SP:F9 STACK: 00 00 C6 17 D6 0D
F7D0  A9 00     LDA #$00                        A:00 X:33 Y:B9 P:27 SP:F9 STACK: 00 00 C6 17 D6 0D
F7D2  60        RTS                             A:00 X:33 Y:B9 P:27 SP:F9 STACK: 00 00 C6 17 D6 0D
D60E  0D 78 06  ORA $0678 = 00                  A:00 X:33 Y:B9 P:27 SP:FB STACK: 00 00 C6 17
D611  20 D3 F7  JSR $F7D3                       A:00 X:33 Y:B9 P:27 SP:FB STACK: 00 00 C6 17
F7D3  D0 07     BNE $F7DC                       A:00 X:33 Y:B9 P:27 SP:F9 STACK: 00 00 C6 17 D6 13
F7D5  70 05     BVS $F7DC                       A:00 X:33 Y:B9 P:27 SP:F9 STACK: 00 00 C6 17 D6 13
F7D7  90 03     BCC $F7DC                       A:00 X:33 Y:B9 P:27 SP:F9 STACK: 00 00 C6 17 D6 13
F7D9  30 01     BMI $F7DC                       A:00 X:33 Y:B9 P:27 SP:F9 STACK: 00 00 C6 17 D6 13
F7DB  60        RTS                             A:00 X:33 Y:B9 P:27 SP:F9 STACK: 00 00 C6 17 D6 13
D614  C8        INY                             A:00 X:33 Y:B9 P:27 SP:FB STACK: 00 00 C6 17
D615  A9 AA     LDA #$AA                        A:00 X:33 Y:BA P:A5 SP:FB STACK: 00 00 C6 17
D617  8D 78 06  STA $0678 = 00                  A:AA X:33 Y:BA P:A5 SP:FB STACK: 00 00 C6 17
D61A  20 DF F7  JSR $F7DF                       A:AA X:33 Y:BA P:A5 SP:FB STACK: 00 00 C6 17
F7DF  18        CLC                             A:AA X:33 Y:BA P:A5 SP:F9 STACK: 00 00 C6 17 D6 1C
F7E0  24 01     BIT $01 = FF                    A:AA X:33 Y:BA P:A4 SP:F9 STACK: 00 00 C6 17 D6 1C
F7E2  A9 55     LDA #$55                        A:AA X:33 Y:BA P:E4 SP:F9 STACK: 00 00 C6 17 D6 1C
F7E4  60        RTS                             A:55 X:33 Y:BA P:64 SP:F9 STACK: 00 00 C6 17 D6 1C
D61D  2D 78 06  AND $0678 = AA                  A:55 X:33 Y:BA P:64 SP:FB STACK: 00 00 C6 17
D620  20 E5 F7  JSR $F7E5                       A:00 X:33 Y:BA P:66 SP:FB STACK: 00 00 C6 17
F7E5  D0 07     BNE $F7EE                       A:00 X:33 Y:BA P:66 SP:F9 STACK: 00 00 C6 17 D6 22
F7E7  50 05     BVC $F7EE                       A:00 X:33 Y:BA P:66 SP:F9 STACK: 00 00 C6 17 D6 22
F7E9  B0 03     BCS $F7EE                       A:00 X:33 Y:BA P:66 SP:F9 STACK: 00 00 C6 17 D6 22
F7EB  30 01     BMI $F7EE                       A:00 X:33 Y:BA P:66 SP:F9 STACK: 00 00 C6 17 D6 22
F7ED  60        RTS                             A:00 X:33 Y:BA P:66 SP:F9 STACK: 00 00 C6 17 D6 22
D623  C8        INY                             A:00 X:33 Y:BA P:66 SP:FB STACK: 00 00 C6 17
D624  A9 EF     LDA #$EF                        A:00 X:33 Y:BB P:E4 SP:FB STACK: 00 00 C6 17
D626  8D 78 06  STA $0678 = AA                  A:EF X:33 Y:BB P:E4 SP:FB STACK: 00 00 C6 17
D629  20 F1 F7  JSR $F7F1                       A:EF X:33 Y:BB P:E4 SP:FB STACK: 00 00 C6 17
F7F1  38        SEC                             A:EF X:33 Y:BB P:E4 SP:F9 STACK: 00 00 C6 17 D6 2B
F7F2  B8        CLV                             A:EF X:33 Y:BB P:E5 SP:F9 STACK: 00 00 C6 17 D6 2B
F7F3  A9 F8     LDA #$F8                        A:EF X:33 Y:BB P:A5 SP:F9 STACK: 00 00 C6 17 D6 2B
F7F5  60        RTS                             A:F8 X:33 Y:BB P:A5 SP:F9 STACK: 00 00 C6 17 D6 2B
D62C  2D 78 06  AND $0678 = EF                  A:F8 X:33 Y:BB P:A5 SP:FB STACK: 00 00 C6 17
D62F  20 F6 F7  JSR $F7F6                       A:E8 X:33 Y:BB P:A5 SP:FB STACK: 00 00 C6 17
F7F6  90 09     BCC $F801                       A:E8 X:33 Y:BB P:A5 SP:F9 STACK: 00 00 C6 17 D6 31
F7F8  10 07     BPL $F801                       A:E8 X:33 Y:BB P:A5 SP:F9 STACK: 00 00 C6 17 D6 31
F7FA  C9 E8     CMP #$E8                        A:E8 X:33 Y:BB P:A5 SP:F9 STACK: 00 00 C6 17 D6 31
F7FC  D0 03     BNE $F801                       A:E8 X:33 Y:BB P:27 SP:F9 STACK: 00 00 C6 17 D6 31
F7FE  70 01     BVS $F801                       A:E8 X:33 Y:BB P:27 SP:F9 STACK: 00 00 C6 17 D6 31
F800  60        RTS                             A:E8 X:33 Y:BB P:27 SP:F9 STACK: 00 00 C6 17 D6 31
D632  C8        INY                             A:E8 X:33 Y:BB P:27 SP:FB STACK: 00 00 C6 17
D633  A9 AA     LDA #$AA                        A:E8 X:33 Y:BC P:A5 SP:FB STACK: 00 00 C6 17
D635  8D 78 06  STA $0678 = EF                  A:AA X:33 Y:BC P:A5 SP:FB STACK: 00 00 C6 17
D638  20 04 F8  JSR $F804                       A:AA X:33 Y:BC P:A5 SP:FB STACK: 00 00 C6 17
F804  18        CLC                             A:AA X:33 Y:BC P:A5 SP:F9 STACK: 00 00 C6 17 D6 3A
F805  24 01     BIT $01 = FF                    A:AA X:33 Y:BC P:A4 SP:F9 STACK: 00 00 C6 17 D6 3A
F807  A9 5F     LDA #$5F                        A:AA X:33 Y:BC P:E4 SP:F9 STACK: 00 00 C6 17 D6 3A
F809  60        RTS                             A:5F X:33 Y:BC P:64 SP:F9 STACK: 00 00 C6 17 D6 3A
D63B  4D 78 06  EOR $0678 = AA                  A:5F X:33 Y:BC P:64 SP:FB STACK: 00 00 C6 17
D63E  20 0A F8  JSR $F80A                       A:F5 X:33 Y:BC P:E4 SP:FB STACK: 00 00 C6 17
F80A  B0 09     BCS $F815                       A:F5 X:33 Y:BC P:E4 SP:F9 STACK: 00 00 C6 17 D6 40
F80C  10 07     BPL $F815                       A:F5 X:33 Y:BC P:E4 SP:F9 STACK: 00 00 C6 17 D6 40
F80E  C9 F5     CMP #$F5                        A:F5 X:33 Y:BC P:E4 SP:F9 STACK: 00 00 C6 17 D6 40
F810  D0 03     BNE $F815                       A:F5 X:33 Y:BC P:67 SP:F9 STACK: 00 00 C6 17 D6 40
F812  50 01     BVC $F815                       A:F5 X:33 Y:BC P:67 SP:F9 STACK: 00 00 C6 17 D6 40
F814  60        RTS                             A:F5 X:33 Y:BC P:67 SP:F9 STACK: 00 00 C6 17 D6 40
D641  C8        INY                             A:F5 X:33 Y:BC P:67 SP:FB STACK: 00 00 C6 17
D642  A9 70     LDA #$70                        A:F5 X:33 Y:BD P:E5 SP:FB STACK: 00 00 C6 17
D644  8D 78 06  STA $0678 = AA                  A:70 X:33 Y:BD P:65 SP:FB STACK: 00 00 C6 17
D647  20 18 F8  JSR $F818                       A:70 X:33 Y:BD P:65 SP:FB STACK: 00 00 C6 17
F818  38        SEC                             A:70 X:33 Y:BD P:65 SP:F9 STACK: 00 00 C6 17 D6 49
F819  B8        CLV                             A:70 X:33 Y:BD P:65 SP:F9 STACK: 00 00 C6 17 D6 49
F81A  A9 70     LDA #$70                        A:70 X:33 Y:BD P:25 SP:F9 STACK: 00 00 C6 17 D6 49
F81C  60        RTS                             A:70 X:33 Y:BD P:25 SP:F9 STACK: 00 00 C6 17 D6 49
D64A  4D 78 06  EOR $0678 = 70                  A:70 X:33 Y:BD P:25 SP:FB STACK: 00 00 C6 17
D64D  20 1D F8  JSR $F81D                       A:00 X:33 Y:BD P:27 SP:FB STACK: 00 00 C6 17
F81D  D0 07     BNE $F826                       A:00 X:33 Y:BD P:27 SP:F9 STACK: 00 00 C6 17 D6 4F
F81F  70 05     BVS $F826                       A:00 X:33 Y:BD P:27 SP:F9 STACK: 00 00 C6 17 D6 4F
F821  90 03     BCC $F826                       A:00 X:33 Y:BD P:27 SP:F9 STACK: 00 00 C6 17 D6 4F
F823  30 01     BMI $F826                       A:00 X:33 Y:BD P:27 SP:F9 STACK: 00 00 C6 17 D6 4F
F825  60        RTS                             A:00 X:33 Y:BD P:27 SP:F9 STACK: 00 00 C6 17 D6 4F
D650  C8        INY                             A:00 X:33 Y:BD P:27 SP:FB STACK: 00 00 C6 17
D651  A9 69     LDA #$69                        A:00 X:33 Y:BE P:A5 SP:FB STACK: 00 00 C6 17
D653  8D 78 06  STA $0678 = 70                  A:69 X:33 Y:BE P:25 SP:FB STACK: 00 00 C6 17
D656  20 29 F8  JSR $F829                       A:69 X:33 Y:BE P:25 SP:FB STACK: 00 00 C6 17
F829  18        CLC                             A:69 X:33 Y:BE P:25 SP:F9 STACK: 00 00 C6 17 D6 58
F82A  24 01     BIT $01 = FF                    A:69 X:33 Y:BE P:24 SP:F9 STACK: 00 00 C6 17 D6 58
F82C  A9 00     LDA #$00                        A:69 X:33 Y:BE P:E4 SP:F9 STACK: 00 00 C6 17 D6 58
F82E  60        RTS                             A:00 X:33 Y:BE P:66 SP:F9 STACK: 00 00 C6 17 D6 58
D659  6D 78 06  ADC $0678 = 69                  A:00 X:33 Y:BE P:66 SP:FB STACK: 00 00 C6 17
D65C  20 2F F8  JSR $F82F                       A:69 X:33 Y:BE P:24 SP:FB STACK: 00 00 C6 17
F82F  30 09     BMI $F83A                       A:69 X:33 Y:BE P:24 SP:F9 STACK: 00 00 C6 17 D6 5E
F831  B0 07     BCS $F83A                       A:69 X:33 Y:BE P:24 SP:F9 STACK: 00 00 C6 17 D6 5E
F833  C9 69     CMP #$69                        A:69 X:33 Y:BE P:24 SP:F9 STACK: 00 00 C6 17 D6 5E
F835  D0 03     BNE $F83A                       A:69 X:33 Y:BE P:27 SP:F9 STACK: 00 00 C6 17 D6 5E
F837  70 01     BVS $F83A                       A:69 X:33 Y:BE P:27 SP:F9 STACK: 00 00 C6 17 D6 5E
F839  60        RTS                             A:69 X:33 Y:BE P:27 SP:F9 STACK: 00 00 C6 17 D6 5E
D65F  C8        INY                             A:69 X:33 Y:BE P:27 SP:FB STACK: 00 00 C6 17
D660  20 3D F8  JSR $F83D                       A:69 X:33 Y:BF P:A5 SP:FB STACK: 00 00 C6 17
F83D  38        SEC                             A:69 X:33 Y:BF P:A5 SP:F9 STACK: 00 00 C6 17 D6 62
F83E  24 01     BIT $01 = FF                    A:69 X:33 Y:BF P:A5 SP:F9 STACK: 00 00 C6 17 D6 62
F840  A9 00     LDA #$00                        A:69 X:33 Y:BF P:E5 SP:F9 STACK: 00 00 C6 17 D6 62
F842  60        RTS                             A:00 X:33 Y:BF P:67 SP:F9 STACK: 00 00 C6 17 D6 62
D663  6D 78 06  ADC $0678 = 69                  A:00 X:33 Y:BF P:67 SP:FB STACK: 00 00 C6 17
D666  20 43 F8  JSR $F843                       A:6A X:33 Y:BF P:24 SP:FB STACK: 00 00 C6 17
F843  30 09     BMI $F84E                       A:6A X:33 Y:BF P:24 SP:F9 STACK: 00 00 C6 17 D6 68
F845  B0 07     BCS $F84E                       A:6A X:33 Y:BF P:24 SP:F9 STACK: 00 00 C6 17 D6 68
F847  C9 6A     CMP #$6A                        A:6A X:33 Y:BF P:24 SP:F9 STACK: 00 00 C6 17 D6 68
F849  D0 03     BNE $F84E                       A:6A X:33 Y:BF P:27 SP:F9 STACK: 00 00 C6 17 D6 68
F84B  70 01     BVS $F84E                       A:6A X:33 Y:BF P:27 SP:F9 STACK: 00 00 C6 17 D6 68
F84D  60        RTS                             A:6A X:33 Y:BF P:27 SP:F9 STACK: 00 00 C6 17 D6 68
D669  C8        INY                             A:6A X:33 Y:BF P:27 SP:FB STACK: 00 00 C6 17
D66A  A9 7F     LDA #$7F                        A:6A X:33 Y:C0 P:A5 SP:FB STACK: 00 00 C6 17
D66C  8D 78 06  STA $0678 = 69                  A:7F X:33 Y:C0 P:25 SP:FB STACK: 00 00 C6 17
D66F  20 51 F8  JSR $F851                       A:7F X:33 Y:C0 P:25 SP:FB STACK: 00 00 C6 17
F851  38        SEC                             A:7F X:33 Y:C0 P:25 SP:F9 STACK: 00 00 C6 17 D6 71
F852  B8        CLV                             A:7F X:33 Y:C0 P:25 SP:F9 STACK: 00 00 C6 17 D6 71
F853  A9 7F     LDA #$7F                        A:7F X:33 Y:C0 P:25 SP:F9 STACK: 00 00 C6 17 D6 71
F855  60        RTS                             A:7F X:33 Y:C0 P:25 SP:F9 STACK: 00 00 C6 17 D6 71
D672  6D 78 06  ADC $0678 = 7F                  A:7F X:33 Y:C0 P:25 SP:FB STACK: 00 00 C6 17
D675  20 56 F8  JSR $F856                       A:FF X:33 Y:C0 P:E4 SP:FB STACK: 00 00 C6 17
F856  10 09     BPL $F861                       A:FF X:33 Y:C0 P:E4 SP:F9 STACK: 00 00 C6 17 D6 77
F858  B0 07     BCS $F861                       A:FF X:33 Y:C0 P:E4 SP:F9 STACK: 00 00 C6 17 D6 77
F85A  C9 FF     CMP #$FF                        A:FF X:33 Y:C0 P:E4 SP:F9 STACK: 00 00 C6 17 D6 77
F85C  D0 03     BNE $F861                       A:FF X:33 Y:C0 P:67 SP:F9 STACK: 00 00 C6 17 D6 77
F85E  50 01     BVC $F861                       A:FF X:33 Y:C0 P:67 SP:F9 STACK: 00 00 C6 17 D6 77
F860  60        RTS                             A:FF X:33 Y:C0 P:67 SP:F9 STACK: 00 00 C6 17 D6 77
D678  C8        INY                             A:FF X:33 Y:C0 P:67 SP:FB STACK: 00 00 C6 17
D679  A9 80     LDA #$80                        A:FF X:33 Y:C1 P:E5 SP:FB STACK: 00 00 C6 17
D67B  8D 78 06  STA $0678 = 7F                  A:80 X:33 Y:C1 P:E5 SP:FB STACK: 00 00 C6 17
D67E  20 64 F8  JSR $F864                       A:80 X:33 Y:C1 P:E5 SP:FB STACK: 00 00 C6 17
F864  18        CLC                             A:80 X:33 Y:C1 P:E5 SP:F9 STACK: 00 00 C6 17 D6 80
F865  24 01     BIT $01 = FF                    A:80 X:33 Y:C1 P:E4 SP:F9 STACK: 00 00 C6 17 D6 80
F867  A9 7F     LDA #$7F                        A:80 X:33 Y:C1 P:E4 SP:F9 STACK: 00 00 C6 17 D6 80
F869  60        RTS                             A:7F X:33 Y:C1 P:64 SP:F9 STACK: 00 00 C6 17 D6 80
D681  6D 78 06  ADC $0678 = 80                  A:7F X:33 Y:C1 P:64 SP:FB STACK: 00 00 C6 17
D684  20 6A F8  JSR $F86A                       A:FF X:33 Y:C1 P:A4 SP:FB STACK: 00 00 C6 17
F86A  10 09     BPL $F875                       A:FF X:33 Y:C1 P:A4 SP:F9 STACK: 00 00 C6 17 D6 86
F86C  B0 07     BCS $F875                       A:FF X:33 Y:C1 P:A4 SP:F9 STACK: 00 00 C6 17 D6 86
F86E  C9 FF     CMP #$FF                        A:FF X:33 Y:C1 P:A4 SP:F9 STACK: 00 00 C6 17 D6 86
F870  D0 03     BNE $F875                       A:FF X:33 Y:C1 P:27 SP:F9 STACK: 00 00 C6 17 D6 86
F872  70 01     BVS $F875                       A:FF X:33 Y:C1 P:27 SP:F9 STACK: 00 00 C6 17 D6 86
F874  60        RTS                             A:FF X:33 Y:C1 P:27 SP:F9 STACK: 00 00 C6 17 D6 86
D687  C8        INY                             A:FF X:33 Y:C1 P:27 SP:FB STACK: 00 00 C6 17
D688  20 78 F8  JSR $F878                       A:FF X:33 Y:C2 P:A5 SP:FB STACK: 00 00 C6 17
F878  38        SEC                             A:FF X:33 Y:C2 P:A5 SP:F9 STACK: 00 00 C6 17 D6 8A
F879  B8        CLV                             A:FF X:33 Y:C2 P:A5 SP:F9 STACK: 00 00 C6 17 D6 8A
F87A  A9 7F     LDA #$7F                        A:FF X:33 Y:C2 P:A5 SP:F9 STACK: 00 00 C6 17 D6 8A
F87C  60        RTS                             A:7F X:33 Y:C2 P:25 SP:F9 STACK: 00 00 C6 17 D6 8A
D68B  6D 78 06  ADC $0678 = 80                  A:7F X:33 Y:C2 P:25 SP:FB STACK: 00 00 C6 17
D68E  20 7D F8  JSR $F87D                       A:00 X:33 Y:C2 P:27 SP:FB STACK: 00 00 C6 17
F87D  D0 07     BNE $F886                       A:00 X:33 Y:C2 P:27 SP:F9 STACK: 00 00 C6 17 D6 90
F87F  30 05     BMI $F886                       A:00 X:33 Y:C2 P:27 SP:F9 STACK: 00 00 C6 17 D6 90
F881  70 03     BVS $F886                       A:00 X:33 Y:C2 P:27 SP:F9 STACK: 00 00 C6 17 D6 90
F883  90 01     BCC $F886                       A:00 X:33 Y:C2 P:27 SP:F9 STACK: 00 00 C6 17 D6 90
F885  60        RTS                             A:00 X:33 Y:C2 P:27 SP:F9 STACK: 00 00 C6 17 D6 90
D691  C8        INY                             A:00 X:33 Y:C2 P:27 SP:FB STACK: 00 00 C6 17
D692  A9 40     LDA #$40                        A:00 X:33 Y:C3 P:A5 SP:FB STACK: 00 00 C6 17
D694  8D 78 06  STA $0678 = 80                  A:40 X:33 Y:C3 P:25 SP:FB STACK: 00 00 C6 17
D697  20 89 F8  JSR $F889                       A:40 X:33 Y:C3 P:25 SP:FB STACK: 00 00 C6 17
F889  24 01     BIT $01 = FF                    A:40 X:33 Y:C3 P:25 SP:F9 STACK: 00 00 C6 17 D6 99
F88B  A9 40     LDA #$40                        A:40 X:33 Y:C3 P:E5 SP:F9 STACK: 00 00 C6 17 D6 99
F88D  60        RTS                             A:40 X:33 Y:C3 P:65 SP:F9 STACK: 00 00 C6 17 D6 99
D69A  CD 78 06  CMP $0678 = 40                  A:40 X:33 Y:C3 P:65 SP:FB STACK: 00 00 C6 17
D69D  20 8E F8  JSR $F88E                       A:40 X:33 Y:C3 P:67 SP:FB STACK: 00 00 C6 17
F88E  30 07     BMI $F897                       A:40 X:33 Y:C3 P:67 SP:F9 STACK: 00 00 C6 17 D6 9F
F890  90 05     BCC $F897                       A:40 X:33 Y:C3 P:67 SP:F9 STACK: 00 00 C6 17 D6 9F
F892  D0 03     BNE $F897                       A:40 X:33 Y:C3 P:67 SP:F9 STACK: 00 00 C6 17 D6 9F
F894  50 01     BVC $F897                       A:40 X:33 Y:C3 P:67 SP:F9 STACK: 00 00 C6 17 D6 9F
F896  60        RTS                             A:40 X:33 Y:C3 P:67 SP:F9 STACK: 00 00 C6 17 D6 9F
D6A0  C8        INY                             A:40 X:33 Y:C3 P:67 SP:FB STACK: 00 00 C6 17
D6A1  48        PHA                             A:40 X:33 Y:C4 P:E5 SP:FB STACK: 00 00 C6 17
D6A2  A9 3F     LDA #$3F                        A:40 X:33 Y:C4 P:E5 SP:FA STACK: 00 00 C6 17 40
D6A4  8D 78 06  STA $0678 = 40                  A:3F X:33 Y:C4 P:65 SP:FA STACK: 00 00 C6 17 40
D6A7  68        PLA                             A:3F X:33 Y:C4 P:65 SP:FA STACK: 00 00 C6 17 40
D6A8  20 9A F8  JSR $F89A                       A:40 X:33 Y:C4 P:65 SP:FB STACK: 00 00 C6 17
F89A  B8        CLV                             A:40 X:33 Y:C4 P:65 SP:F9 STACK: 00 00 C6 17 D6 AA
F89B  60        RTS                             A:40 X:33 Y:C4 P:25 SP:F9 STACK: 00 00 C6 17 D6 AA
D6AB  CD 78 06  CMP $0678 = 3F                  A:40 X:33 Y:C4 P:25 SP:FB STACK: 00 00 C6 17
D6AE  20 9C F8  JSR $F89C                       A:40 X:33 Y:C4 P:25 SP:FB STACK: 00 00 C6 17
F89C  F0 07     BEQ $F8A5                       A:40 X:33 Y:C4 P:25 SP:F9 STACK: 00 00 C6 17 D6 B0
F89E  30 05     BMI $F8A5                       A:40 X:33 Y:C4 P:25 SP:F9 STACK: 00 00 C6 17 D6 B0
F8A0  90 03     BCC $F8A5                       A:40 X:33 Y:C4 P:25 SP:F9 STACK: 00 00 C6 17 D6 B0
F8A2  70 01     BVS $F8A5                       A:40 X:33 Y:C4 P:25 SP:F9 STACK: 00 00 C6 17 D6 B0
F8A4  60        RTS                             A:40 X:33 Y:C4 P:25 SP:F9 STACK: 00 00 C6 17 D6 B0
D6B1  C8        INY                             A:40 X:33 Y:C4 P:25 SP:FB STACK: 00 00 C6 17
D6B2  48        PHA                             A:40 X:33 Y:C5 P:A5 SP:FB STACK: 00 00 C6 17
D6B3  A9 41     LDA #$41                        A:40 X:33 Y:C5 P:A5 SP:FA STACK: 00 00 C6 17 40
D6B5  8D 78 06  STA $0678 = 3F                  A:41 X:33 Y:C5 P:25 SP:FA STACK: 00 00 C6 17 40
D6B8  68        PLA                             A:41 X:33 Y:C5 P:25 SP:FA STACK: 00 00 C6 17 40
D6B9  CD 78 06  CMP $0678 = 41                  A:40 X:33 Y:C5 P:25 SP:FB STACK: 00 00 C6 17
D6BC  20 A8 F8  JSR $F8A8                       A:40 X:33 Y:C5 P:A4 SP:FB STACK: 00 00 C6 17
F8A8  F0 05     BEQ $F8AF                       A:40 X:33 Y:C5 P:A4 SP:F9 STACK: 00 00 C6 17 D6 BE
F8AA  10 03     BPL $F8AF                       A:40 X:33 Y:C5 P:A4 SP:F9 STACK: 00 00 C6 17 D6 BE
F8AC  10 01     BPL $F8AF                       A:40 X:33 Y:C5 P:A4 SP:F9 STACK: 00 00 C6 17 D6 BE
F8AE  60        RTS                             A:40 X:33 Y:C5 P:A4 SP:F9 STACK: 00 00 C6 17 D6 BE
D6BF  C8        INY                             A:40 X:33 Y:C5 P:A4 SP:FB STACK: 00 00 C6 17
D6C0  48        PHA                             A:40 X:33 Y:C6 P:A4 SP:FB STACK: 00 00 C6 17
D6C1  A9 00     LDA #$00                        A:40 X:33 Y:C6 P:A4 SP:FA STACK: 00 00 C6 17 40
D6C3  8D 78 06  STA $0678 = 41                  A:00 X:33 Y:C6 P:26 SP:FA STACK: 00 00 C6 17 40
D6C6  68        PLA                             A:00 X:33 Y:C6 P:26 SP:FA STACK: 00 00 C6 17 40
D6C7  20 B2 F8  JSR $F8B2                       A:40 X:33 Y:C6 P:24 SP:FB STACK: 00 00 C6 17
F8B2  A9 80     LDA #$80                        A:40 X:33 Y:C6 P:24 SP:F9 STACK: 00 00 C6 17 D6 C9
F8B4  60        RTS                             A:80 X:33 Y:C6 P:A4 SP:F9 STACK: 00 00 C6 17 D6 C9
D6CA  CD 78 06  CMP $0678 = 00                  A:80 X:33 Y:C6 P:A4 SP:FB STACK: 00 00 C6 17
D6CD  20 B5 F8  JSR $F8B5                       A:80 X:33 Y:C6 P:A5 SP:FB STACK: 00 00 C6 17
F8B5  F0 05     BEQ $F8BC                       A:80 X:33 Y:C6 P:A5 SP:F9 STACK: 00 00 C6 17 D6 CF
F8B7  10 03     BPL $F8BC                       A:80 X:33 Y:C6 P:A5 SP:F9 STACK: 00 00 C6 17 D6 CF
F8B9  90 01     BCC $F8BC                       A:80 X:33 Y:C6 P:A5 SP:F9 STACK: 00 00 C6 17 D6 CF
F8BB  60        RTS                             A:80 X:33 Y:C6 P:A5 SP:F9 STACK: 00 00 C6 17 D6 CF
D6D0  C8        INY                             A:80 X:33 Y:C6 P:A5 SP:FB STACK: 00 00 C6 17
D6D1  48        PHA                             A:80 X:33 Y:C7 P:A5 SP:FB STACK: 00 00 C6 17
D6D2  A9 80     LDA #$80                        A:80 X:33 Y:C7 P:A5 SP:FA STACK: 00 00 C6 17 80
D6D4  8D 78 06  STA $0678 = 00                  A:80 X:33 Y:C7 P:A5 SP:FA STACK: 00 00 C6 17 80
D6D7  68        PLA                             A:80 X:33 Y:C7 P:A5 SP:FA STACK: 00 00 C6 17 80
D6D8  CD 78 06  CMP $0678 = 80                  A:80 X:33 Y:C7 P:A5 SP:FB STACK: 00 00 C6 17
D6DB  20 BF F8  JSR $F8BF                       A:80 X:33 Y:C7 P:27 SP:FB STACK: 00 00 C6 17
F8BF  D0 05     BNE $F8C6                       A:80 X:33 Y:C7 P:27 SP:F9 STACK: 00 00 C6 17 D6 DD
F8C1  30 03     BMI $F8C6                       A:80 X:33 Y:C7 P:27 SP:F9 STACK: 00 00 C6 17 D6 DD
F8C3  90 01     BCC $F8C6                       A:80 X:33 Y:C7 P:27 SP:F9 STACK: 00 00 C6 17 D6 DD
F8C5  60        RTS                             A:80 X:33 Y:C7 P:27 SP:F9 STACK: 00 00 C6 17 D6 DD
D6DE  C8        INY                             A:80 X:33 Y:C7 P:27 SP:FB STACK: 00 00 C6 17
D6DF  48        PHA                             A:80 X:33 Y:C8 P:A5 SP:FB STACK: 00 00 C6 17
D6E0  A9 81     LDA #$81                        A:80 X:33 Y:C8 P:A5 SP:FA STACK: 00 00 C6 17 80
D6E2  8D 78 06  STA $0678 = 80                  A:81 X:33 Y:C8 P:A5 SP:FA STACK: 00 00 C6 17 80
D6E5  68        PLA                             A:81 X:33 Y:C8 P:A5 SP:FA STACK: 00 00 C6 17 80
D6E6  CD 78 06  CMP $0678 = 81                  A:80 X:33 Y:C8 P:A5 SP:FB STACK: 00 00 C6 17
D6E9  20 C9 F8  JSR $F8C9                       A:80 X:33 Y:C8 P:A4 SP:FB STACK: 00 00 C6 17
F8C9  B0 05     BCS $F8D0                       A:80 X:33 Y:C8 P:A4 SP:F9 STACK: 00 00 C6 17 D6 EB
F8CB  F0 03     BEQ $F8D0                       A:80 X:33 Y:C8 P:A4 SP:F9 STACK: 00 00 C6 17 D6 EB
F8CD  10 01     BPL $F8D0                       A:80 X:33 Y:C8 P:A4 SP:F9 STACK: 00 00 C6 17 D6 EB
F8CF  60        RTS                             A:80 X:33 Y:C8 P:A4 SP:F9 STACK: 00 00 C6 17 D6 EB
D6EC  C8        INY                             A:80 X:33 Y:C8 P:A4 SP:FB STACK: 00 00 C6 17
D6ED  48        PHA                             A:80 X:33 Y:C9 P:A4 SP:FB STACK: 00 00 C6 17
D6EE  A9 7F     LDA #$7F                        A:80 X:33 Y:C9 P:A4 SP:FA STACK: 00 00 C6 17 80
D6F0  8D 78 06  STA $0678 = 81                  A:7F X:33 Y:C9 P:24 SP:FA STACK: 00 00 C6 17 80
D6F3  68        PLA                             A:7F X:33 Y:C9 P:24 SP:FA STACK: 00 00 C6 17 80
D6F4  CD 78 06  CMP $0678 = 7F                  A:80 X:33 Y:C9 P:A4 SP:FB STACK: 00 00 C6 17
D6F7  20 D3 F8  JSR $F8D3                       A:80 X:33 Y:C9 P:25 SP:FB STACK: 00 00 C6 17
F8D3  90 05     BCC $F8DA                       A:80 X:33 Y:C9 P:25 SP:F9 STACK: 00 00 C6 17 D6 F9
F8D5  F0 03     BEQ $F8DA                       A:80 X:33 Y:C9 P:25 SP:F9 STACK: 00 00 C6 17 D6 F9
F8D7  30 01     BMI $F8DA                       A:80 X:33 Y:C9 P:25 SP:F9 STACK: 00 00 C6 17 D6 F9
F8D9  60        RTS                             A:80 X:33 Y:C9 P:25 SP:F9 STACK: 00 00 C6 17 D6 F9
D6FA  C8        INY                             A:80 X:33 Y:C9 P:25 SP:FB STACK: 00 00 C6 17
D6FB  A9 40     LDA #$40                        A:80 X:33 Y:CA P:A5 SP:FB STACK: 00 00 C6 17
D6FD  8D 78 06  STA $0678 = 7F                  A:40 X:33 Y:CA P:25 SP:FB STACK: 00 00 C6 17
D700  20 31 F9  JSR $F931                       A:40 X:33 Y:CA P:25 SP:FB STACK: 00 00 C6 17
F931  24 01     BIT $01 = FF                    A:40 X:33 Y:CA P:25 SP:F9 STACK: 00 00 C6 17 D7 02
F933  A9 40     LDA #$40                        A:40 X:33 Y:CA P:E5 SP:F9 STACK: 00 00 C6 17 D7 02
F935  38        SEC                             A:40 X:33 Y:CA P:65 SP:F9 STACK: 00 00 C6 17 D7 02
F936  60        RTS                             A:40 X:33 Y:CA P:65 SP:F9 STACK: 00 00 C6 17 D7 02
D703  ED 78 06  SBC $0678 = 40                  A:40 X:33 Y:CA P:65 SP:FB STACK: 00 00 C6 17
D706  20 37 F9  JSR $F937                       A:00 X:33 Y:CA P:27 SP:FB STACK: 00 00 C6 17
F937  30 0B     BMI $F944                       A:00 X:33 Y:CA P:27 SP:F9 STACK: 00 00 C6 17 D7 08
F939  90 09     BCC $F944                       A:00 X:33 Y:CA P:27 SP:F9 STACK: 00 00 C6 17 D7 08
F93B  D0 07     BNE $F944                       A:00 X:33 Y:CA P:27 SP:F9 STACK: 00 00 C6 17 D7 08
F93D  70 05     BVS $F944                       A:00 X:33 Y:CA P:27 SP:F9 STACK: 00 00 C6 17 D7 08
F93F  C9 00     CMP #$00                        A:00 X:33 Y:CA P:27 SP:F9 STACK: 00 00 C6 17 D7 08
F941  D0 01     BNE $F944                       A:00 X:33 Y:CA P:27 SP:F9 STACK: 00 00 C6 17 D7 08
F943  60        RTS                             A:00 X:33 Y:CA P:27 SP:F9 STACK: 00 00 C6 17 D7 08
D709  C8        INY                             A:00 X:33 Y:CA P:27 SP:FB STACK: 00 00 C6 17
D70A  A9 3F     LDA #$3F                        A:00 X:33 Y:CB P:A5 SP:FB STACK: 00 00 C6 17
D70C  8D 78 06  STA $0678 = 40                  A:3F X:33 Y:CB P:25 SP:FB STACK: 00 00 C6 17
D70F  20 47 F9  JSR $F947                       A:3F X:33 Y:CB P:25 SP:FB STACK: 00 00 C6 17
F947  B8        CLV                             A:3F X:33 Y:CB P:25 SP:F9 STACK: 00 00 C6 17 D7 11
F948  38        SEC                             A:3F X:33 Y:CB P:25 SP:F9 STACK: 00 00 C6 17 D7 11
F949  A9 40     LDA #$40                        A:3F X:33 Y:CB P:25 SP:F9 STACK: 00 00 C6 17 D7 11
F94B  60        RTS                             A:40 X:33 Y:CB P:25 SP:F9 STACK: 00 00 C6 17 D7 11
D712  ED 78 06  SBC $0678 = 3F                  A:40 X:33 Y:CB P:25 SP:FB STACK: 00 00 C6 17
D715  20 4C F9  JSR $F94C                       A:01 X:33 Y:CB P:25 SP:FB STACK: 00 00 C6 17
F94C  F0 0B     BEQ $F959                       A:01 X:33 Y:CB P:25 SP:F9 STACK: 00 00 C6 17 D7 17
F94E  30 09     BMI $F959                       A:01 X:33 Y:CB P:25 SP:F9 STACK: 00 00 C6 17 D7 17
F950  90 07     BCC $F959                       A:01 X:33 Y:CB P:25 SP:F9 STACK: 00 00 C6 17 D7 17
F952  70 05     BVS $F959                       A:01 X:33 Y:CB P:25 SP:F9 STACK: 00 00 C6 17 D7 17
F954  C9 01     CMP #$01                        A:01 X:33 Y:CB P:25 SP:F9 STACK: 00 00 C6 17 D7 17
F956  D0 01     BNE $F959                       A:01 X:33 Y:CB P:27 SP:F9 STACK: 00 00 C6 17 D7 17
F958  60        RTS                             A:01 X:33 Y:CB P:27 SP:F9 STACK: 00 00 C6 17 D7 17
D718  C8        INY                             A:01 X:33 Y:CB P:27 SP:FB STACK: 00 00 C6 17
D719  A9 41     LDA #$41                        A:01 X:33 Y:CC P:A5 SP:FB STACK: 00 00 C6 17
D71B  8D 78 06  STA $0678 = 3F                  A:41 X:33 Y:CC P:25 SP:FB STACK: 00 00 C6 17
D71E  20 5C F9  JSR $F95C                       A:41 X:33 Y:CC P:25 SP:FB STACK: 00 00 C6 17
F95C  A9 40     LDA #$40                        A:41 X:33 Y:CC P:25 SP:F9 STACK: 00 00 C6 17 D7 20
F95E  38        SEC                             A:40 X:33 Y:CC P:25 SP:F9 STACK: 00 00 C6 17 D7 20
F95F  24 01     BIT $01 = FF                    A:40 X:33 Y:CC P:25 SP:F9 STACK: 00 00 C6 17 D7 20
F961  60        RTS                             A:40 X:33 Y:CC P:E5 SP:F9 STACK: 00 00 C6 17 D7 20
D721  ED 78 06  SBC $0678 = 41                  A:40 X:33 Y:CC P:E5 SP:FB STACK: 00 00 C6 17
D724  20 62 F9  JSR $F962                       A:FF X:33 Y:CC P:A4 SP:FB STACK: 00 00 C6 17
F962  B0 0B     BCS $F96F                       A:FF X:33 Y:CC P:A4 SP:F9 STACK: 00 00 C6 17 D7 26
F964  F0 09     BEQ $F96F                       A:FF X:33 Y:CC P:A4 SP:F9 STACK: 00 00 C6 17 D7 26
F966  10 07     BPL $F96F                       A:FF X:33 Y:CC P:A4 SP:F9 STACK: 00 00 C6 17 D7 26
F968  70 05     BVS $F96F                       A:FF X:33 Y:CC P:A4 SP:F9 STACK: 00 00 C6 17 D7 26
F96A  C9 FF     CMP #$FF                        A:FF X:33 Y:CC P:A4 SP:F9 STACK: 00 00 C6 17 D7 26
F96C  D0 01     BNE $F96F                       A:FF X:33 Y:CC P:27 SP:F9 STACK: 00 00 C6 17 D7 26
F96E  60        RTS                             A:FF X:33 Y:CC P:27 SP:F9 STACK: 00 00 C6 17 D7 26
D727  C8        INY                             A:FF X:33 Y:CC P:27 SP:FB STACK: 00 00 C6 17
D728  A9 00     LDA #$00                        A:FF X:33 Y:CD P:A5 SP:FB STACK: 00 00 C6 17
D72A  8D 78 06  STA $0678 = 41                  A:00 X:33 Y:CD P:27 SP:FB STACK: 00 00 C6 17
D72D  20 72 F9  JSR $F972                       A:00 X:33 Y:CD P:27 SP:FB STACK: 00 00 C6 17
F972  18        CLC                             A:00 X:33 Y:CD P:27 SP:F9 STACK: 00 00 C6 17 D7 2F
F973  A9 80     LDA #$80                        A:00 X:33 Y:CD P:26 SP:F9 STACK: 00 00 C6 17 D7 2F
F975  60        RTS                             A:80 X:33 Y:CD P:A4 SP:F9 STACK: 00 00 C6 17 D7 2F
D730  ED 78 06  SBC $0678 = 00                  A:80 X:33 Y:CD P:A4 SP:FB STACK: 00 00 C6 17
D733  20 76 F9  JSR $F976                       A:7F X:33 Y:CD P:65 SP:FB STACK: 00 00 C6 17
F976  90 05     BCC $F97D                       A:7F X:33 Y:CD P:65 SP:F9 STACK: 00 00 C6 17 D7 35
F978  C9 7F     CMP #$7F                        A:7F X:33 Y:CD P:65 SP:F9 STACK: 00 00 C6 17 D7 35
F97A  D0 01     BNE $F97D                       A:7F X:33 Y:CD P:67 SP:F9 STACK: 00 00 C6 17 D7 35
F97C  60        RTS                             A:7F X:33 Y:CD P:67 SP:F9 STACK: 00 00 C6 17 D7 35
D736  C8        INY                             A:7F X:33 Y:CD P:67 SP:FB STACK: 00 00 C6 17
D737  A9 7F     LDA #$7F                        A:7F X:33 Y:CE P:E5 SP:FB STACK: 00 00 C6 17
D739  8D 78 06  STA $0678 = 00                  A:7F X:33 Y:CE P:65 SP:FB STACK: 00 00 C6 17
D73C  20 80 F9  JSR $F980                       A:7F X:33 Y:CE P:65 SP:FB STACK: 00 00 C6 17
F980  38        SEC                             A:7F X:33 Y:CE P:65 SP:F9 STACK: 00 00 C6 17 D7 3E
F981  A9 81     LDA #$81                        A:7F X:33 Y:CE P:65 SP:F9 STACK: 00 00 C6 17 D7 3E
F983  60        RTS                             A:81 X:33 Y:CE P:E5 SP:F9 STACK: 00 00 C6 17 D7 3E
D73F  ED 78 06  SBC $0678 = 7F                  A:81 X:33 Y:CE P:E5 SP:FB STACK: 00 00 C6 17
D742  20 84 F9  JSR $F984                       A:02 X:33 Y:CE P:65 SP:FB STACK: 00 00 C6 17
F984  50 07     BVC $F98D                       A:02 X:33 Y:CE P:65 SP:F9 STACK: 00 00 C6 17 D7 44
F986  90 05     BCC $F98D                       A:02 X:33 Y:CE P:65 SP:F9 STACK: 00 00 C6 17 D7 44
F988  C9 02     CMP #$02                        A:02 X:33 Y:CE P:65 SP:F9 STACK: 00 00 C6 17 D7 44
F98A  D0 01     BNE $F98D                       A:02 X:33 Y:CE P:67 SP:F9 STACK: 00 00 C6 17 D7 44
F98C  60        RTS                             A:02 X:33 Y:CE P:67 SP:F9 STACK: 00 00 C6 17 D7 44
D745  C8        INY                             A:02 X:33 Y:CE P:67 SP:FB STACK: 00 00 C6 17
D746  A9 40     LDA #$40                        A:02 X:33 Y:CF P:E5 SP:FB STACK: 00 00 C6 17
D748  8D 78 06  STA $0678 = 7F                  A:40 X:33 Y:CF P:65 SP:FB STACK: 00 00 C6 17
D74B  20 89 F8  JSR $F889                       A:40 X:33 Y:CF P:65 SP:FB STACK: 00 00 C6 17
F889  24 01     BIT $01 = FF                    A:40 X:33 Y:CF P:65 SP:F9 STACK: 00 00 C6 17 D7 4D
F88B  A9 40     LDA #$40                        A:40 X:33 Y:CF P:E5 SP:F9 STACK: 00 00 C6 17 D7 4D
F88D  60        RTS                             A:40 X:33 Y:CF P:65 SP:F9 STACK: 00 00 C6 17 D7 4D
D74E  AA        TAX                             A:40 X:33 Y:CF P:65 SP:FB STACK: 00 00 C6 17
D74F  EC 78 06  CPX $0678 = 40                  A:40 X:40 Y:CF P:65 SP:FB STACK: 00 00 C6 17
D752  20 8E F8  JSR $F88E                       A:40 X:40 Y:CF P:67 SP:FB STACK: 00 00 C6 17
F88E  30 07     BMI $F897                       A:40 X:40 Y:CF P:67 SP:F9 STACK: 00 00 C6 17 D7 54
F890  90 05     BCC $F897                       A:40 X:40 Y:CF P:67 SP:F9 STACK: 00 00 C6 17 D7 54
F892  D0 03     BNE $F897                       A:40 X:40 Y:CF P:67 SP:F9 STACK: 00 00 C6 17 D7 54
F894  50 01     BVC $F897                       A:40 X:40 Y:CF P:67 SP:F9 STACK: 00 00 C6 17 D7 54
F896  60        RTS                             A:40 X:40 Y:CF P:67 SP:F9 STACK: 00 00 C6 17 D7 54
D755  C8        INY                             A:40 X:40 Y:CF P:67 SP:FB STACK: 00 00 C6 17
D756  A9 3F     LDA #$3F                        A:40 X:40 Y:D0 P:E5 SP:FB STACK: 00 00 C6 17
D758  8D 78 06  STA $0678 = 40                  A:3F X:40 Y:D0 P:65 SP:FB STACK: 00 00 C6 17
D75B  20 9A F8  JSR $F89A                       A:3F X:40 Y:D0 P:65 SP:FB STACK: 00 00 C6 17
F89A  B8        CLV                             A:3F X:40 Y:D0 P:65 SP:F9 STACK: 00 00 C6 17 D7 5D
F89B  60        RTS                             A:3F X:40 Y:D0 P:25 SP:F9 STACK: 00 00 C6 17 D7 5D
D75E  EC 78 06  CPX $0678 = 3F                  A:3F X:40 Y:D0 P:25 SP:FB STACK: 00 00 C6 17
D761  20 9C F8  JSR $F89C                       A:3F X:40 Y:D0 P:25 SP:FB STACK: 00 00 C6 17
F89C  F0 07     BEQ $F8A5                       A:3F X:40 Y:D0 P:25 SP:F9 STACK: 00 00 C6 17 D7 63
F89E  30 05     BMI $F8A5                       A:3F X:40 Y:D0 P:25 SP:F9 STACK: 00 00 C6 17 D7 63
F8A0  90 03     BCC $F8A5                       A:3F X:40 Y:D0 P:25 SP:F9 STACK: 00 00 C6 17 D7 63
F8A2  70 01     BVS $F8A5                       A:3F X:40 Y:D0 P:25 SP:F9 STACK: 00 00 C6 17 D7 63
F8A4  60        RTS                             A:3F X:40 Y:D0 P:25 SP:F9 STACK: 00 00 C6 17 D7 63
D764  C8        INY                             A:3F X:40 Y:D0 P:25 SP:FB STACK: 00 00 C6 17
D765  A9 41     LDA #$41                        A:3F X:40 Y:D1 P:A5 SP:FB STACK: 00 00 C6 17
D767  8D 78 06  STA $0678 = 3F                  A:41 X:40 Y:D1 P:25 SP:FB STACK: 00 00 C6 17
D76A  EC 78 06  CPX $0678 = 41                  A:41 X:40 Y:D1 P:25 SP:FB STACK: 00 00 C6 17
D76D  20 A8 F8  JSR $F8A8                       A:41 X:40 Y:D1 P:A4 SP:FB STACK: 00 00 C6 17
F8A8  F0 05     BEQ $F8AF                       A:41 X:40 Y:D1 P:A4 SP:F9 STACK: 00 00 C6 17 D7 6F
F8AA  10 03     BPL $F8AF                       A:41 X:40 Y:D1 P:A4 SP:F9 STACK: 00 00 C6 17 D7 6F
F8AC  10 01     BPL $F8AF                       A:41 X:40 Y:D1 P:A4 SP:F9 STACK: 00 00 C6 17 D7 6F
F8AE  60        RTS                             A:41 X:40 Y:D1 P:A4 SP:F9 STACK: 00 00 C6 17 D7 6F
D770  C8        INY                             A:41 X:40 Y:D1 P:A4 SP:FB STACK: 00 00 C6 17
D771  A9 00     LDA #$00                        A:41 X:40 Y:D2 P:A4 SP:FB STACK: 00 00 C6 17
D773  8D 78 06  STA $0678 = 41                  A:00 X:40 Y:D2 P:26 SP:FB STACK: 00 00 C6 17
D776  20 B2 F8  JSR $F8B2                       A:00 X:40 Y:D2 P:26 SP:FB STACK: 00 00 C6 17
F8B2  A9 80     LDA #$80                        A:00 X:40 Y:D2 P:26 SP:F9 STACK: 00 00 C6 17 D7 78
F8B4  60        RTS                             A:80 X:40 Y:D2 P:A4 SP:F9 STACK: 00 00 C6 17 D7 78
D779  AA        TAX                             A:80 X:40 Y:D2 P:A4 SP:FB STACK: 00 00 C6 17
D77A  EC 78 06  CPX $0678 = 00                  A:80 X:80 Y:D2 P:A4 SP:FB STACK: 00 00 C6 17
D77D  20 B5 F8  JSR $F8B5                       A:80 X:80 Y:D2 P:A5 SP:FB STACK: 00 00 C6 17
F8B5  F0 05     BEQ $F8BC                       A:80 X:80 Y:D2 P:A5 SP:F9 STACK: 00 00 C6 17 D7 7F
F8B7  10 03     BPL $F8BC                       A:80 X:80 Y:D2 P:A5 SP:F9 STACK: 00 00 C6 17 D7 7F
F8B9  90 01     BCC $F8BC                       A:80 X:80 Y:D2 P:A5 SP:F9 STACK: 00 00 C6 17 D7 7F
F8BB  60        RTS                             A:80 X:80 Y:D2 P:A5 SP:F9 STACK: 00 00 C6 17 D7 7F
D780  C8        INY                             A:80 X:80 Y:D2 P:A5 SP:FB STACK: 00 00 C6 17
D781  A9 80     LDA #$80                        A:80 X:80 Y:D3 P:A5 SP:FB STACK: 00 00 C6 17
D783  8D 78 06  STA $0678 = 00                  A:80 X:80 Y:D3 P:A5 SP:FB STACK: 00 00 C6 17
D786  EC 78 06  CPX $0678 = 80                  A:80 X:80 Y:D3 P:A5 SP:FB STACK: 00 00 C6 17
D789  20 BF F8  JSR $F8BF                       A:80 X:80 Y:D3 P:27 SP:FB STACK: 00 00 C6 17
F8BF  D0 05     BNE $F8C6                       A:80 X:80 Y:D3 P:27 SP:F9 STACK: 00 00 C6 17 D7 8B
F8C1  30 03     BMI $F8C6                       A:80 X:80 Y:D3 P:27 SP:F9 STACK: 00 00 C6 17 D7 8B
F8C3  90 01     BCC $F8C6                       A:80 X:80 Y:D3 P:27 SP:F9 STACK: 00 00 C6 17 D7 8B
F8C5  60        RTS                             A:80 X:80 Y:D3 P:27 SP:F9 STACK: 00 00 C6 17 D7 8B
D78C  C8        INY                             A:80 X:80 Y:D3 P:27 SP:FB STACK: 00 00 C6 17
D78D  A9 81     LDA #$81                        A:80 X:80 Y:D4 P:A5 SP:FB STACK: 00 00 C6 17
D78F  8D 78 06  STA $0678 = 80                  A:81 X:80 Y:D4 P:A5 SP:FB STACK: 00 00 C6 17
D792  EC 78 06  CPX $0678 = 81                  A:81 X:80 Y:D4 P:A5 SP:FB STACK: 00 00 C6 17
D795  20 C9 F8  JSR $F8C9                       A:81 X:80 Y:D4 P:A4 SP:FB STACK: 00 00 C6 17
F8C9  B0 05     BCS $F8D0                       A:81 X:80 Y:D4 P:A4 SP:F9 STACK: 00 00 C6 17 D7 97
F8CB  F0 03     BEQ $F8D0                       A:81 X:80 Y:D4 P:A4 SP:F9 STACK: 00 00 C6 17 D7 97
F8CD  10 01     BPL $F8D0                       A:81 X:80 Y:D4 P:A4 SP:F9 STACK: 00 00 C6 17 D7 97
F8CF  60        RTS                             A:81 X:80 Y:D4 P:A4 SP:F9 STACK: 00 00 C6 17 D7 97
D798  C8        INY                             A:81 X:80 Y:D4 P:A4 SP:FB STACK: 00 00 C6 17
D799  A9 7F     LDA #$7F                        A:81 X:80 Y:D5 P:A4 SP:FB STACK: 00 00 C6 17
D79B  8D 78 06  STA $0678 = 81                  A:7F X:80 Y:D5 P:24 SP:FB STACK: 00 00 C6 17
D79E  EC 78 06  CPX $0678 = 7F                  A:7F X:80 Y:D5 P:24 SP:FB STACK: 00 00 C6 17
D7A1  20 D3 F8  JSR $F8D3                       A:7F X:80 Y:D5 P:25 SP:FB STACK: 00 00 C6 17
F8D3  90 05     BCC $F8DA                       A:7F X:80 Y:D5 P:25 SP:F9 STACK: 00 00 C6 17 D7 A3
F8D5  F0 03     BEQ $F8DA                       A:7F X:80 Y:D5 P:25 SP:F9 STACK: 00 00 C6 17 D7 A3
F8D7  30 01     BMI $F8DA                       A:7F X:80 Y:D5 P:25 SP:F9 STACK: 00 00 C6 17 D7 A3
F8D9  60        RTS                             A:7F X:80 Y:D5 P:25 SP:F9 STACK: 00 00 C6 17 D7 A3
D7A4  C8        INY                             A:7F X:80 Y:D5 P:25 SP:FB STACK: 00 00 C6 17
D7A5  98        TYA                             A:7F X:80 Y:D6 P:A5 SP:FB STACK: 00 00 C6 17
D7A6  AA        TAX                             A:D6 X:80 Y:D6 P:A5 SP:FB STACK: 00 00 C6 17
D7A7  A9 40     LDA #$40                        A:D6 X:D6 Y:D6 P:A5 SP:FB STACK: 00 00 C6 17
D7A9  8D 78 06  STA $0678 = 7F                  A:40 X:D6 Y:D6 P:25 SP:FB STACK: 00 00 C6 17
D7AC  20 DD F8  JSR $F8DD                       A:40 X:D6 Y:D6 P:25 SP:FB STACK: 00 00 C6 17
F8DD  24 01     BIT $01 = FF                    A:40 X:D6 Y:D6 P:25 SP:F9 STACK: 00 00 C6 17 D7 AE
F8DF  A0 40     LDY #$40                        A:40 X:D6 Y:D6 P:E5 SP:F9 STACK: 00 00 C6 17 D7 AE
F8E1  60        RTS                             A:40 X:D6 Y:40 P:65 SP:F9 STACK: 00 00 C6 17 D7 AE
D7AF  CC 78 06  CPY $0678 = 40                  A:40 X:D6 Y:40 P:65 SP:FB STACK: 00 00 C6 17
D7B2  20 E2 F8  JSR $F8E2                       A:40 X:D6 Y:40 P:67 SP:FB STACK: 00 00 C6 17
F8E2  30 07     BMI $F8EB                       A:40 X:D6 Y:40 P:67 SP:F9 STACK: 00 00 C6 17 D7 B4
F8E4  90 05     BCC $F8EB                       A:40 X:D6 Y:40 P:67 SP:F9 STACK: 00 00 C6 17 D7 B4
F8E6  D0 03     BNE $F8EB                       A:40 X:D6 Y:40 P:67 SP:F9 STACK: 00 00 C6 17 D7 B4
F8E8  50 01     BVC $F8EB                       A:40 X:D6 Y:40 P:67 SP:F9 STACK: 00 00 C6 17 D7 B4
F8EA  60        RTS                             A:40 X:D6 Y:40 P:67 SP:F9 STACK: 00 00 C6 17 D7 B4
D7B5  E8        INX                             A:40 X:D6 Y:40 P:67 SP:FB STACK: 00 00 C6 17
D7B6  A9 3F     LDA #$3F                        A:40 X:D7 Y:40 P:E5 SP:FB STACK: 00 00 C6 17
D7B8  8D 78 06  STA $0678 = 40                  A:3F X:D7 Y:40 P:65 SP:FB STACK: 00 00 C6 17
D7BB  20 EE F8  JSR $F8EE                       A:3F X:D7 Y:40 P:65 SP:FB STACK: 00 00 C6 17
F8EE  B8        CLV                             A:3F X:D7 Y:40 P:65 SP:F9 STACK: 00 00 C6 17 D7 BD
F8EF  60        RTS                             A:3F X:D7 Y:40 P:25 SP:F9 STACK: 00 00 C6 17 D7 BD
D7BE  CC 78 06  CPY $0678 = 3F                  A:3F X:D7 Y:40 P:25 SP:FB STACK: 00 00 C6 17
D7C1  20 F0 F8  JSR $F8F0                       A:3F X:D7 Y:40 P:25 SP:FB STACK: 00 00 C6 17
F8F0  F0 07     BEQ $F8F9                       A:3F X:D7 Y:40 P:25 SP:F9 STACK: 00 00 C6 17 D7 C3
F8F2  30 05     BMI $F8F9                       A:3F X:D7 Y:40 P:25 SP:F9 STACK: 00 00 C6 17 D7 C3
F8F4  90 03     BCC $F8F9                       A:3F X:D7 Y:40 P:25 SP:F9 STACK: 00 00 C6 17 D7 C3
F8F6  70 01     BVS $F8F9                       A:3F X:D7 Y:40 P:25 SP:F9 STACK: 00 00 C6 17 D7 C3
F8F8  60        RTS                             A:3F X:D7 Y:40 P:25 SP:F9 STACK: 00 00 C6 17 D7 C3
D7C4  E8        INX                             A:3F X:D7 Y:40 P:25 SP:FB STACK: 00 00 C6 17
D7C5  A9 41     LDA #$41                        A:3F X:D8 Y:40 P:A5 SP:FB STACK: 00 00 C6 17
D7C7  8D 78 06  STA $0678 = 3F                  A:41 X:D8 Y:40 P:25 SP:FB STACK: 00 00 C6 17
D7CA  CC 78 06  CPY $0678 = 41                  A:41 X:D8 Y:40 P:25 SP:FB STACK: 00 00 C6 17
D7CD  20 FC F8  JSR $F8FC                       A:41 X:D8 Y:40 P:A4 SP:FB STACK: 00 00 C6 17
F8FC  F0 05     BEQ $F903                       A:41 X:D8 Y:40 P:A4 SP:F9 STACK: 00 00 C6 17 D7 CF
F8FE  10 03     BPL $F903                       A:41 X:D8 Y:40 P:A4 SP:F9 STACK: 00 00 C6 17 D7 CF
F900  10 01     BPL $F903                       A:41 X:D8 Y:40 P:A4 SP:F9 STACK: 00 00 C6 17 D7 CF
F902  60        RTS                             A:41 X:D8 Y:40 P:A4 SP:F9 STACK: 00 00 C6 17 D7 CF
D7D0  E8        INX                             A:41 X:D8 Y:40 P:A4 SP:FB STACK: 00 00 C6 17
D7D1  A9 00     LDA #$00                        A:41 X:D9 Y:40 P:A4 SP:FB STACK: 00 00 C6 17
D7D3  8D 78 06  STA $0678 = 41                  A:00 X:D9 Y:40 P:26 SP:FB STACK: 00 00 C6 17
D7D6  20 06 F9  JSR $F906                       A:00 X:D9 Y:40 P:26 SP:FB STACK: 00 00 C6 17
F906  A0 80     LDY #$80                        A:00 X:D9 Y:40 P:26 SP:F9 STACK: 00 00 C6 17 D7 D8
F908  60        RTS                             A:00 X:D9 Y:80 P:A4 SP:F9 STACK: 00 00 C6 17 D7 D8
D7D9  CC 78 06  CPY $0678 = 00                  A:00 X:D9 Y:80 P:A4 SP:FB STACK: 00 00 C6 17
D7DC  20 09 F9  JSR $F909                       A:00 X:D9 Y:80 P:A5 SP:FB STACK: 00 00 C6 17
F909  F0 05     BEQ $F910                       A:00 X:D9 Y:80 P:A5 SP:F9 STACK: 00 00 C6 17 D7 DE
F90B  10 03     BPL $F910                       A:00 X:D9 Y:80 P:A5 SP:F9 STACK: 00 00 C6 17 D7 DE
F90D  90 01     BCC $F910                       A:00 X:D9 Y:80 P:A5 SP:F9 STACK: 00 00 C6 17 D7 DE
F90F  60        RTS                             A:00 X:D9 Y:80 P:A5 SP:F9 STACK: 00 00 C6 17 D7 DE
D7DF  E8        INX                             A:00 X:D9 Y:80 P:A5 SP:FB STACK: 00 00 C6 17
D7E0  A9 80     LDA #$80                        A:00 X:DA Y:80 P:A5 SP:FB STACK: 00 00 C6 17
D7E2  8D 78 06  STA $0678 = 00                  A:80 X:DA Y:80 P:A5 SP:FB STACK: 00 00 C6 17
D7E5  CC 78 06  CPY $0678 = 80                  A:80 X:DA Y:80 P:A5 SP:FB STACK: 00 00 C6 17
D7E8  20 13 F9  JSR $F913                       A:80 X:DA Y:80 P:27 SP:FB STACK: 00 00 C6 17
F913  D0 05     BNE $F91A                       A:80 X:DA Y:80 P:27 SP:F9 STACK: 00 00 C6 17 D7 EA
F915  30 03     BMI $F91A                       A:80 X:DA Y:80 P:27 SP:F9 STACK: 00 00 C6 17 D7 EA
F917  90 01     BCC $F91A                       A:80 X:DA Y:80 P:27 SP:F9 STACK: 00 00 C6 17 D7 EA
F919  60        RTS                             A:80 X:DA Y:80 P:27 SP:F9 STACK: 00 00 C6 17 D7 EA
D7EB  E8        INX                             A:80 X:DA Y:80 P:27 SP:FB STACK: 00 00 C6 17
D7EC  A9 81     LDA #$81                        A:80 X:DB Y:80 P:A5 SP:FB STACK: 00 00 C6 17
D7EE  8D 78 06  STA $0678 = 80                  A:81 X:DB Y:80 P:A5 SP:FB STACK: 00 00 C6 17
D7F1  CC 78 06  CPY $0678 = 81                  A:81 X:DB Y:80 P:A5 SP:FB STACK: 00 00 C6 17
D7F4  20 1D F9  JSR $F91D                       A:81 X:DB Y:80 P:A4 SP:FB STACK: 00 00 C6 17
F91D  B0 05     BCS $F924                       A:81 X:DB Y:80 P:A4 SP:F9 STACK: 00 00 C6 17 D7 F6
F91F  F0 03     BEQ $F924                       A:81 X:DB Y:80 P:A4 SP:F9 STACK: 00 00 C6 17 D7 F6
F921  10 01     BPL $F924                       A:81 X:DB Y:80 P:A4 SP:F9 STACK: 00 00 C6 17 D7 F6
F923  60        RTS                             A:81 X:DB Y:80 P:A4 SP:F9 STACK: 00 00 C6 17 D7 F6
D7F7  E8        INX                             A:81 X:DB Y:80 P:A4 SP:FB STACK: 00 00 C6 17
D7F8  A9 7F     LDA #$7F                        A:81 X:DC Y:80 P:A4 SP:FB STACK: 00 00 C6 17
D7FA  8D 78 06  STA $0678 = 81                  A:7F X:DC Y:80 P:24 SP:FB STACK: 00 00 C6 17
D7FD  CC 78 06  CPY $0678 = 7F                  A:7F X:DC Y:80 P:24 SP:FB STACK: 00 00 C6 17
D800  20 27 F9  JSR $F927                       A:7F X:DC Y:80 P:25 SP:FB STACK: 00 00 C6 17
F927  90 05     BCC $F92E                       A:7F X:DC Y:80 P:25 SP:F9 STACK: 00 00 C6 17 D8 02
F929  F0 03     BEQ $F92E                       A:7F X:DC Y:80 P:25 SP:F9 STACK: 00 00 C6 17 D8 02
F92B  30 01     BMI $F92E                       A:7F X:DC Y:80 P:25 SP:F9 STACK: 00 00 C6 17 D8 02
F92D  60        RTS                             A:7F X:DC Y:80 P:25 SP:F9 STACK: 00 00 C6 17 D8 02
D803  E8        INX                             A:7F X:DC Y:80 P:25 SP:FB STACK: 00 00 C6 17
D804  8A        TXA                             A:7F X:DD Y:80 P:A5 SP:FB STACK: 00 00 C6 17
D805  A8        TAY                             A:DD X:DD Y:80 P:A5 SP:FB STACK: 00 00 C6 17
D806  20 90 F9  JSR $F990                       A:DD X:DD Y:DD P:A5 SP:FB STACK: 00 00 C6 17
F990  A2 55     LDX #$55                        A:DD X:DD Y:DD P:A5 SP:F9 STACK: 00 00 C6 17 D8 08
F992  A9 FF     LDA #$FF                        A:DD X:55 Y:DD P:25 SP:F9 STACK: 00 00 C6 17 D8 08
F994  85 01     STA $01 = FF                    A:FF X:55 Y:DD P:A5 SP:F9 STACK: 00 00 C6 17 D8 08
F996  EA        NOP                             A:FF X:55 Y:DD P:A5 SP:F9 STACK: 00 00 C6 17 D8 08
F997  24 01     BIT $01 = FF                    A:FF X:55 Y:DD P:A5 SP:F9 STACK: 00 00 C6 17 D8 08
F999  38        SEC                             A:FF X:55 Y:DD P:E5 SP:F9 STACK: 00 00 C6 17 D8 08
F99A  A9 01     LDA #$01                        A:FF X:55 Y:DD P:E5 SP:F9 STACK: 00 00 C6 17 D8 08
F99C  60        RTS                             A:01 X:55 Y:DD P:65 SP:F9 STACK: 00 00 C6 17 D8 08
D809  8D 78 06  STA $0678 = 7F                  A:01 X:55 Y:DD P:65 SP:FB STACK: 00 00 C6 17
D80C  4E 78 06  LSR $0678 = 01                  A:01 X:55 Y:DD P:65 SP:FB STACK: 00 00 C6 17
D80F  AD 78 06  LDA $0678 = 00                  A:01 X:55 Y:DD P:65 SP:FB STACK: 00 00 C6 17
D812  20 9D F9  JSR $F99D                       A:00 X:55 Y:DD P:67 SP:FB STACK: 00 00 C6 17
F99D  90 1B     BCC $F9BA                       A:00 X:55 Y:DD P:67 SP:F9 STACK: 00 00 C6 17 D8 14
F99F  D0 19     BNE $F9BA                       A:00 X:55 Y:DD P:67 SP:F9 STACK: 00 00 C6 17 D8 14
F9A1  30 17     BMI $F9BA                       A:00 X:55 Y:DD P:67 SP:F9 STACK: 00 00 C6 17 D8 14
F9A3  50 15     BVC $F9BA                       A:00 X:55 Y:DD P:67 SP:F9 STACK: 00 00 C6 17 D8 14
F9A5  C9 00     CMP #$00                        A:00 X:55 Y:DD P:67 SP:F9 STACK: 00 00 C6 17 D8 14
F9A7  D0 11     BNE $F9BA                       A:00 X:55 Y:DD P:67 SP:F9 STACK: 00 00 C6 17 D8 14
F9A9  B8        CLV                             A:00 X:55 Y:DD P:67 SP:F9 STACK: 00 00 C6 17 D8 14
F9AA  A9 AA     LDA #$AA                        A:00 X:55 Y:DD P:27 SP:F9 STACK: 00 00 C6 17 D8 14
F9AC  60        RTS                             A:AA X:55 Y:DD P:A5 SP:F9 STACK: 00 00 C6 17 D8 14
D815  C8        INY                             A:AA X:55 Y:DD P:A5 SP:FB STACK: 00 00 C6 17
D816  8D 78 06  STA $0678 = 00                  A:AA X:55 Y:DE P:A5 SP:FB STACK: 00 00 C6 17
D819  4E 78 06  LSR $0678 = AA                  A:AA X:55 Y:DE P:A5 SP:FB STACK: 00 00 C6 17
D81C  AD 78 06  LDA $0678 = 55                  A:AA X:55 Y:DE P:24 SP:FB STACK: 00 00 C6 17
D81F  20 AD F9  JSR $F9AD                       A:55 X:55 Y:DE P:24 SP:FB STACK: 00 00 C6 17
F9AD  B0 0B     BCS $F9BA                       A:55 X:55 Y:DE P:24 SP:F9 STACK: 00 00 C6 17 D8 21
F9AF  F0 09     BEQ $F9BA                       A:55 X:55 Y:DE P:24 SP:F9 STACK: 00 00 C6 17 D8 21
F9B1  30 07     BMI $F9BA                       A:55 X:55 Y:DE P:24 SP:F9 STACK: 00 00 C6 17 D8 21
F9B3  70 05     BVS $F9BA                       A:55 X:55 Y:DE P:24 SP:F9 STACK: 00 00 C6 17 D8 21
F9B5  C9 55     CMP #$55                        A:55 X:55 Y:DE P:24 SP:F9 STACK: 00 00 C6 17 D8 21
F9B7  D0 01     BNE $F9BA                       A:55 X:55 Y:DE P:27 SP:F9 STACK: 00 00 C6 17 D8 21
F9B9  60        RTS                             A:55 X:55 Y:DE P:27 SP:F9 STACK: 00 00 C6 17 D8 21
D822  C8        INY                             A:55 X:55 Y:DE P:27 SP:FB STACK: 00 00 C6 17
D823  20 BD F9  JSR $F9BD                       A:55 X:55 Y:DF P:A5 SP:FB STACK: 00 00 C6 17
F9BD  24 01     BIT $01 = FF                    A:55 X:55 Y:DF P:A5 SP:F9 STACK: 00 00 C6 17 D8 25
F9BF  38        SEC                             A:55 X:55 Y:DF P:E5 SP:F9 STACK: 00 00 C6 17 D8 25
F9C0  A9 80     LDA #$80                        A:55 X:55 Y:DF P:E5 SP:F9 STACK: 00 00 C6 17 D8 25
F9C2  60        RTS                             A:80 X:55 Y:DF P:E5 SP:F9 STACK: 00 00 C6 17 D8 25
D826  8D 78 06  STA $0678 = 55                  A:80 X:55 Y:DF P:E5 SP:FB STACK: 00 00 C6 17
D829  0E 78 06  ASL $0678 = 80                  A:80 X:55 Y:DF P:E5 SP:FB STACK: 00 00 C6 17
D82C  AD 78 06  LDA $0678 = 00                  A:80 X:55 Y:DF P:65 SP:FB STACK: 00 00 C6 17
D82F  20 C3 F9  JSR $F9C3                       A:00 X:55 Y:DF P:67 SP:FB STACK: 00 00 C6 17
F9C3  90 1C     BCC $F9E1                       A:00 X:55 Y:DF P:67 SP:F9 STACK: 00 00 C6 17 D8 31
F9C5  D0 1A     BNE $F9E1                       A:00 X:55 Y:DF P:67 SP:F9 STACK: 00 00 C6 17 D8 31
F9C7  30 18     BMI $F9E1                       A:00 X:55 Y:DF P:67 SP:F9 STACK: 00 00 C6 17 D8 31
F9C9  50 16     BVC $F9E1                       A:00 X:55 Y:DF P:67 SP:F9 STACK: 00 00 C6 17 D8 31
F9CB  C9 00     CMP #$00                        A:00 X:55 Y:DF P:67 SP:F9 STACK: 00 00 C6 17 D8 31
F9CD  D0 12     BNE $F9E1                       A:00 X:55 Y:DF P:67 SP:F9 STACK: 00 00 C6 17 D8 31
F9CF  B8        CLV                             A:00 X:55 Y:DF P:67 SP:F9 STACK: 00 00 C6 17 D8 31
F9D0  A9 55     LDA #$55                        A:00 X:55 Y:DF P:27 SP:F9 STACK: 00 00 C6 17 D8 31
F9D2  38        SEC                             A:55 X:55 Y:DF P:25 SP:F9 STACK: 00 00 C6 17 D8 31
F9D3  60        RTS                             A:55 X:55 Y:DF P:25 SP:F9 STACK: 00 00 C6 17 D8 31
D832  C8        INY                             A:55 X:55 Y:DF P:25 SP:FB STACK: 00 00 C6 17
D833  8D 78 06  STA $0678 = 00                  A:55 X:55 Y:E0 P:A5 SP:FB STACK: 00 00 C6 17
D836  0E 78 06  ASL $0678 = 55                  A:55 X:55 Y:E0 P:A5 SP:FB STACK: 00 00 C6 17
D839  AD 78 06  LDA $0678 = AA                  A:55 X:55 Y:E0 P:A4 SP:FB STACK: 00 00 C6 17
D83C  20 D4 F9  JSR $F9D4                       A:AA X:55 Y:E0 P:A4 SP:FB STACK: 00 00 C6 17
F9D4  B0 0B     BCS $F9E1                       A:AA X:55 Y:E0 P:A4 SP:F9 STACK: 00 00 C6 17 D8 3E
F9D6  F0 09     BEQ $F9E1                       A:AA X:55 Y:E0 P:A4 SP:F9 STACK: 00 00 C6 17 D8 3E
F9D8  10 07     BPL $F9E1                       A:AA X:55 Y:E0 P:A4 SP:F9 STACK: 00 00 C6 17 D8 3E
F9DA  70 05     BVS $F9E1                       A:AA X:55 Y:E0 P:A4 SP:F9 STACK: 00 00 C6 17 D8 3E
F9DC  C9 AA     CMP #$AA                        A:AA X:55 Y:E0 P:A4 SP:F9 STACK: 00 00 C6 17 D8 3E
F9DE  D0 01     BNE $F9E1                       A:AA X:55 Y:E0 P:27 SP:F9 STACK: 00 00 C6 17 D8 3E
F9E0  60        RTS                             A:AA X:55 Y:E0 P:27 SP:F9 STACK: 00 00 C6 17 D8 3E
D83F  C8        INY                             A:AA X:55 Y:E0 P:27 SP:FB STACK: 00 00 C6 17
D840  20 E4 F9  JSR $F9E4                       A:AA X:55 Y:E1 P:A5 SP:FB STACK: 00 00 C6 17
F9E4  24 01     BIT $01 = FF                    A:AA X:55 Y:E1 P:A5 SP:F9 STACK: 00 00 C6 17 D8 42
F9E6  38        SEC                             A:AA X:55 Y:E1 P:E5 SP:F9 STACK: 00 00 C6 17 D8 42
F9E7  A9 01     LDA #$01                        A:AA X:55 Y:E1 P:E5 SP:F9 STACK: 00 00 C6 17 D8 42
F9E9  60        RTS                             A:01 X:55 Y:E1 P:65 SP:F9 STACK: 00 00 C6 17 D8 42
D843  8D 78 06  STA $0678 = AA                  A:01 X:55 Y:E1 P:65 SP:FB STACK: 00 00 C6 17
D846  6E 78 06  ROR $0678 = 01                  A:01 X:55 Y:E1 P:65 SP:FB STACK: 00 00 C6 17
D849  AD 78 06  LDA $0678 = 80                  A:01 X:55 Y:E1 P:E5 SP:FB STACK: 00 00 C6 17
D84C  20 EA F9  JSR $F9EA                       A:80 X:55 Y:E1 P:E5 SP:FB STACK: 00 00 C6 17
F9EA  90 1C     BCC $FA08                       A:80 X:55 Y:E1 P:E5 SP:F9 STACK: 00 00 C6 17 D8 4E
F9EC  F0 1A     BEQ $FA08                       A:80 X:55 Y:E1 P:E5 SP:F9 STACK: 00 00 C6 17 D8 4E
F9EE  10 18     BPL $FA08                       A:80 X:55 Y:E1 P:E5 SP:F9 STACK: 00 00 C6 17 D8 4E
F9F0  50 16     BVC $FA08                       A:80 X:55 Y:E1 P:E5 SP:F9 STACK: 00 00 C6 17 D8 4E
F9F2  C9 80     CMP #$80                        A:80 X:55 Y:E1 P:E5 SP:F9 STACK: 00 00 C6 17 D8 4E
F9F4  D0 12     BNE $FA08                       A:80 X:55 Y:E1 P:67 SP:F9 STACK: 00 00 C6 17 D8 4E
F9F6  B8        CLV                             A:80 X:55 Y:E1 P:67 SP:F9 STACK: 00 00 C6 17 D8 4E
F9F7  18        CLC                             A:80 X:55 Y:E1 P:27 SP:F9 STACK: 00 00 C6 17 D8 4E
F9F8  A9 55     LDA #$55                        A:80 X:55 Y:E1 P:26 SP:F9 STACK: 00 00 C6 17 D8 4E
F9FA  60        RTS                             A:55 X:55 Y:E1 P:24 SP:F9 STACK: 00 00 C6 17 D8 4E
D84F  C8        INY                             A:55 X:55 Y:E1 P:24 SP:FB STACK: 00 00 C6 17
D850  8D 78 06  STA $0678 = 80                  A:55 X:55 Y:E2 P:A4 SP:FB STACK: 00 00 C6 17
D853  6E 78 06  ROR $0678 = 55                  A:55 X:55 Y:E2 P:A4 SP:FB STACK: 00 00 C6 17
D856  AD 78 06  LDA $0678 = 2A                  A:55 X:55 Y:E2 P:25 SP:FB STACK: 00 00 C6 17
D859  20 FB F9  JSR $F9FB                       A:2A X:55 Y:E2 P:25 SP:FB STACK: 00 00 C6 17
F9FB  90 0B     BCC $FA08                       A:2A X:55 Y:E2 P:25 SP:F9 STACK: 00 00 C6 17 D8 5B
F9FD  F0 09     BEQ $FA08                       A:2A X:55 Y:E2 P:25 SP:F9 STACK: 00 00 C6 17 D8 5B
F9FF  30 07     BMI $FA08                       A:2A X:55 Y:E2 P:25 SP:F9 STACK: 00 00 C6 17 D8 5B
FA01  70 05     BVS $FA08                       A:2A X:55 Y:E2 P:25 SP:F9 STACK: 00 00 C6 17 D8 5B
FA03  C9 2A     CMP #$2A                        A:2A X:55 Y:E2 P:25 SP:F9 STACK: 00 00 C6 17 D8 5B
FA05  D0 01     BNE $FA08                       A:2A X:55 Y:E2 P:27 SP:F9 STACK: 00 00 C6 17 D8 5B
FA07  60        RTS                             A:2A X:55 Y:E2 P:27 SP:F9 STACK: 00 00 C6 17 D8 5B
D85C  C8        INY                             A:2A X:55 Y:E2 P:27 SP:FB STACK: 00 00 C6 17
D85D  20 0A FA  JSR $FA0A                       A:2A X:55 Y:E3 P:A5 SP:FB STACK: 00 00 C6 17
FA0A  24 01     BIT $01 = FF                    A:2A X:55 Y:E3 P:A5 SP:F9 STACK: 00 00 C6 17 D8 5F
FA0C  38        SEC                             A:2A X:55 Y:E3 P:E5 SP:F9 STACK: 00 00 C6 17 D8 5F
FA0D  A9 80     LDA #$80                        A:2A X:55 Y:E3 P:E5 SP:F9 STACK: 00 00 C6 17 D8 5F
FA0F  60        RTS                             A:80 X:55 Y:E3 P:E5 SP:F9 STACK: 00 00 C6 17 D8 5F
D860  8D 78 06  STA $0678 = 2A                  A:80 X:55 Y:E3 P:E5 SP:FB STACK: 00 00 C6 17
D863  2E 78 06  ROL $0678 = 80                  A:80 X:55 Y:E3 P:E5 SP:FB STACK: 00 00 C6 17
D866  AD 78 06  LDA $0678 = 01                  A:80 X:55 Y:E3 P:65 SP:FB STACK: 00 00 C6 17
D869  20 10 FA  JSR $FA10                       A:01 X:55 Y:E3 P:65 SP:FB STACK: 00 00 C6 17
FA10  90 1C     BCC $FA2E                       A:01 X:55 Y:E3 P:65 SP:F9 STACK: 00 00 C6 17 D8 6B
FA12  F0 1A     BEQ $FA2E                       A:01 X:55 Y:E3 P:65 SP:F9 STACK: 00 00 C6 17 D8 6B
FA14  30 18     BMI $FA2E                       A:01 X:55 Y:E3 P:65 SP:F9 STACK: 00 00 C6 17 D8 6B
FA16  50 16     BVC $FA2E                       A:01 X:55 Y:E3 P:65 SP:F9 STACK: 00 00 C6 17 D8 6B
FA18  C9 01     CMP #$01                        A:01 X:55 Y:E3 P:65 SP:F9 STACK: 00 00 C6 17 D8 6B
FA1A  D0 12     BNE $FA2E                       A:01 X:55 Y:E3 P:67 SP:F9 STACK: 00 00 C6 17 D8 6B
FA1C  B8        CLV                             A:01 X:55 Y:E3 P:67 SP:F9 STACK: 00 00 C6 17 D8 6B
FA1D  18        CLC                             A:01 X:55 Y:E3 P:27 SP:F9 STACK: 00 00 C6 17 D8 6B
FA1E  A9 55     LDA #$55                        A:01 X:55 Y:E3 P:26 SP:F9 STACK: 00 00 C6 17 D8 6B
FA20  60        RTS                             A:55 X:55 Y:E3 P:24 SP:F9 STACK: 00 00 C6 17 D8 6B
D86C  C8        INY                             A:55 X:55 Y:E3 P:24 SP:FB STACK: 00 00 C6 17
D86D  8D 78 06  STA $0678 = 01                  A:55 X:55 Y:E4 P:A4 SP:FB STACK: 00 00 C6 17
D870  2E 78 06  ROL $0678 = 55                  A:55 X:55 Y:E4 P:A4 SP:FB STACK: 00 00 C6 17
D873  AD 78 06  LDA $0678 = AA                  A:55 X:55 Y:E4 P:A4 SP:FB STACK: 00 00 C6 17
D876  20 21 FA  JSR $FA21                       A:AA X:55 Y:E4 P:A4 SP:FB STACK: 00 00 C6 17
FA21  B0 0B     BCS $FA2E                       A:AA X:55 Y:E4 P:A4 SP:F9 STACK: 00 00 C6 17 D8 78
FA23  F0 09     BEQ $FA2E                       A:AA X:55 Y:E4 P:A4 SP:F9 STACK: 00 00 C6 17 D8 78
FA25  10 07     BPL $FA2E                       A:AA X:55 Y:E4 P:A4 SP:F9 STACK: 00 00 C6 17 D8 78
FA27  70 05     BVS $FA2E                       A:AA X:55 Y:E4 P:A4 SP:F9 STACK: 00 00 C6 17 D8 78
FA29  C9 AA     CMP #$AA                        A:AA X:55 Y:E4 P:A4 SP:F9 STACK: 00 00 C6 17 D8 78
FA2B  D0 01     BNE $FA2E                       A:AA X:55 Y:E4 P:27 SP:F9 STACK: 00 00 C6 17 D8 78
FA2D  60        RTS                             A:AA X:55 Y:E4 P:27 SP:F9 STACK: 00 00 C6 17 D8 78
D879  A9 FF     LDA #$FF                        A:AA X:55 Y:E4 P:27 SP:FB STACK: 00 00 C6 17
D87B  8D 78 06  STA $0678 = AA                  A:FF X:55 Y:E4 P:A5 SP:FB STACK: 00 00 C6 17
D87E  85 01     STA $01 = FF                    A:FF X:55 Y:E4 P:A5 SP:FB STACK: 00 00 C6 17
D880  24 01     BIT $01 = FF                    A:FF X:55 Y:E4 P:A5 SP:FB STACK: 00 00 C6 17
D882  38        SEC                             A:FF X:55 Y:E4 P:E5 SP:FB STACK: 00 00 C6 17
D883  EE 78 06  INC $0678 = FF                  A:FF X:55 Y:E4 P:E5 SP:FB STACK: 00 00 C6 17
D886  D0 0D     BNE $D895                       A:FF X:55 Y:E4 P:67 SP:FB STACK: 00 00 C6 17
D888  30 0B     BMI $D895                       A:FF X:55 Y:E4 P:67 SP:FB STACK: 00 00 C6 17
D88A  50 09     BVC $D895                       A:FF X:55 Y:E4 P:67 SP:FB STACK: 00 00 C6 17
D88C  90 07     BCC $D895                       A:FF X:55 Y:E4 P:67 SP:FB STACK: 00 00 C6 17
D88E  AD 78 06  LDA $0678 = 00                  A:FF X:55 Y:E4 P:67 SP:FB STACK: 00 00 C6 17
D891  C9 00     CMP #$00                        A:00 X:55 Y:E4 P:67 SP:FB STACK: 00 00 C6 17
D893  F0 04     BEQ $D899                       A:00 X:55 Y:E4 P:67 SP:FB STACK: 00 00 C6 17
D899  A9 7F     LDA #$7F                        A:00 X:55 Y:E4 P:67 SP:FB STACK: 00 00 C6 17
D89B  8D 78 06  STA $0678 = 00                  A:7F X:55 Y:E4 P:65 SP:FB STACK: 00 00 C6 17
D89E  B8        CLV                             A:7F X:55 Y:E4 P:65 SP:FB STACK: 00 00 C6 17
D89F  18        CLC                             A:7F X:55 Y:E4 P:25 SP:FB STACK: 00 00 C6 17
D8A0  EE 78 06  INC $0678 = 7F                  A:7F X:55 Y:E4 P:24 SP:FB STACK: 00 00 C6 17
D8A3  F0 0D     BEQ $D8B2                       A:7F X:55 Y:E4 P:A4 SP:FB STACK: 00 00 C6 17
D8A5  10 0B     BPL $D8B2                       A:7F X:55 Y:E4 P:A4 SP:FB STACK: 00 00 C6 17
D8A7  70 09     BVS $D8B2                       A:7F X:55 Y:E4 P:A4 SP:FB STACK: 00 00 C6 17
D8A9  B0 07     BCS $D8B2                       A:7F X:55 Y:E4 P:A4 SP:FB STACK: 00 00 C6 17
D8AB  AD 78 06  LDA $0678 = 80                  A:7F X:55 Y:E4 P:A4 SP:FB STACK: 00 00 C6 17
D8AE  C9 80     CMP #$80                        A:80 X:55 Y:E4 P:A4 SP:FB STACK: 00 00 C6 17
D8B0  F0 04     BEQ $D8B6                       A:80 X:55 Y:E4 P:27 SP:FB STACK: 00 00 C6 17
D8B6  A9 00     LDA #$00                        A:80 X:55 Y:E4 P:27 SP:FB STACK: 00 00 C6 17
D8B8  8D 78 06  STA $0678 = 80                  A:00 X:55 Y:E4 P:27 SP:FB STACK: 00 00 C6 17
D8BB  24 01     BIT $01 = FF                    A:00 X:55 Y:E4 P:27 SP:FB STACK: 00 00 C6 17
D8BD  38        SEC                             A:00 X:55 Y:E4 P:E7 SP:FB STACK: 00 00 C6 17
D8BE  CE 78 06  DEC $0678 = 00                  A:00 X:55 Y:E4 P:E7 SP:FB STACK: 00 00 C6 17
D8C1  F0 0D     BEQ $D8D0                       A:00 X:55 Y:E4 P:E5 SP:FB STACK: 00 00 C6 17
D8C3  10 0B     BPL $D8D0                       A:00 X:55 Y:E4 P:E5 SP:FB STACK: 00 00 C6 17
D8C5  50 09     BVC $D8D0                       A:00 X:55 Y:E4 P:E5 SP:FB STACK: 00 00 C6 17
D8C7  90 07     BCC $D8D0                       A:00 X:55 Y:E4 P:E5 SP:FB STACK: 00 00 C6 17
D8C9  AD 78 06  LDA $0678 = FF                  A:00 X:55 Y:E4 P:E5 SP:FB STACK: 00 00 C6 17
D8CC  C9 FF     CMP #$FF                        A:FF X:55 Y:E4 P:E5 SP:FB STACK: 00 00 C6 17
D8CE  F0 04     BEQ $D8D4                       A:FF X:55 Y:E4 P:67 SP:FB STACK: 00 00 C6 17
D8D4  A9 80     LDA #$80                        A:FF X:55 Y:E4 P:67 SP:FB STACK: 00 00 C6 17
D8D6  8D 78 06  STA $0678 = FF                  A:80 X:55 Y:E4 P:E5 SP:FB STACK: 00 00 C6 17
D8D9  B8        CLV                             A:80 X:55 Y:E4 P:E5 SP:FB STACK: 00 00 C6 17
D8DA  18        CLC                             A:80 X:55 Y:E4 P:A5 SP:FB STACK: 00 00 C6 17
D8DB  CE 78 06  DEC $0678 = 80                  A:80 X:55 Y:E4 P:A4 SP:FB STACK: 00 00 C6 17
D8DE  F0 0D     BEQ $D8ED                       A:80 X:55 Y:E4 P:24 SP:FB STACK: 00 00 C6 17
D8E0  30 0B     BMI $D8ED                       A:80 X:55 Y:E4 P:24 SP:FB STACK: 00 00 C6 17
D8E2  70 09     BVS $D8ED                       A:80 X:55 Y:E4 P:24 SP:FB STACK: 00 00 C6 17
D8E4  B0 07     BCS $D8ED                       A:80 X:55 Y:E4 P:24 SP:FB STACK: 00 00 C6 17
D8E6  AD 78 06  LDA $0678 = 7F                  A:80 X:55 Y:E4 P:24 SP:FB STACK: 00 00 C6 17
D8E9  C9 7F     CMP #$7F                        A:7F X:55 Y:E4 P:24 SP:FB STACK: 00 00 C6 17
D8EB  F0 04     BEQ $D8F1                       A:7F X:55 Y:E4 P:27 SP:FB STACK: 00 00 C6 17
D8F1  A9 01     LDA #$01                        A:7F X:55 Y:E4 P:27 SP:FB STACK: 00 00 C6 17
D8F3  8D 78 06  STA $0678 = 7F                  A:01 X:55 Y:E4 P:25 SP:FB STACK: 00 00 C6 17
D8F6  CE 78 06  DEC $0678 = 01                  A:01 X:55 Y:E4 P:25 SP:FB STACK: 00 00 C6 17
D8F9  F0 04     BEQ $D8FF                       A:01 X:55 Y:E4 P:27 SP:FB STACK: 00 00 C6 17
D8FF  60        RTS                             A:01 X:55 Y:E4 P:27 SP:FB STACK: 00 00 C6 17
C618  20 00 D9  JSR $D900                       A:01 X:55 Y:E4 P:27 SP:FD STACK: 00 00
D900  A9 A3     LDA #$A3                        A:01 X:55 Y:E4 P:27 SP:FB STACK: 00 00 C6 1A
D902  85 33     STA $33 = 00                    A:A3 X:55 Y:E4 P:A5 SP:FB STACK: 00 00 C6 1A
D904  A9 89     LDA #$89                        A:A3 X:55 Y:E4 P:A5 SP:FB STACK: 00 00 C6 1A
D906  8D 00 03  STA $0300 = 70                  A:89 X:55 Y:E4 P:A5 SP:FB STACK: 00 00 C6 1A
D909  A9 12     LDA #$12                        A:89 X:55 Y:E4 P:A5 SP:FB STACK: 00 00 C6 1A
D90B  8D 45 02  STA $0245 = 00                  A:12 X:55 Y:E4 P:25 SP:FB STACK: 00 00 C6 1A
D90E  A9 FF     LDA #$FF                        A:12 X:55 Y:E4 P:25 SP:FB STACK: 00 00 C6 1A
D910  85 01     STA $01 = FF                    A:FF X:55 Y:E4 P:A5 SP:FB STACK: 00 00 C6 1A
D912  A2 65     LDX #$65                        A:FF X:55 Y:E4 P:A5 SP:FB STACK: 00 00 C6 1A
D914  A9 00     LDA #$00                        A:FF X:65 Y:E4 P:25 SP:FB STACK: 00 00 C6 1A
D916  85 89     STA $89 = 00                    A:00 X:65 Y:E4 P:27 SP:FB STACK: 00 00 C6 1A
D918  A9 03     LDA #$03                        A:00 X:65 Y:E4 P:27 SP:FB STACK: 00 00 C6 1A
D91A  85 8A     STA $8A = 00                    A:03 X:65 Y:E4 P:25 SP:FB STACK: 00 00 C6 1A
D91C  A0 00     LDY #$00                        A:03 X:65 Y:E4 P:25 SP:FB STACK: 00 00 C6 1A
D91E  38        SEC                             A:03 X:65 Y:00 P:27 SP:FB STACK: 00 00 C6 1A
D91F  A9 00     LDA #$00                        A:03 X:65 Y:00 P:27 SP:FB STACK: 00 00 C6 1A
D921  B8        CLV                             A:00 X:65 Y:00 P:27 SP:FB STACK: 00 00 C6 1A
D922  B1 89     LDA (INDIRECT),Y                A:00 X:65 Y:00 P:27 SP:FB STACK: 00 00 C6 1A
D924  F0 0C     BEQ $D932                       A:89 X:65 Y:00 P:A5 SP:FB STACK: 00 00 C6 1A
D926  90 0A     BCC $D932                       A:89 X:65 Y:00 P:A5 SP:FB STACK: 00 00 C6 1A
D928  70 08     BVS $D932                       A:89 X:65 Y:00 P:A5 SP:FB STACK: 00 00 C6 1A
D92A  C9 89     CMP #$89                        A:89 X:65 Y:00 P:A5 SP:FB STACK: 00 00 C6 1A
D92C  D0 04     BNE $D932                       A:89 X:65 Y:00 P:27 SP:FB STACK: 00 00 C6 1A
D92E  E0 65     CPX #$65                        A:89 X:65 Y:00 P:27 SP:FB STACK: 00 00 C6 1A
D930  F0 04     BEQ $D936                       A:89 X:65 Y:00 P:27 SP:FB STACK: 00 00 C6 1A
D936  A9 FF     LDA #$FF                        A:89 X:65 Y:00 P:27 SP:FB STACK: 00 00 C6 1A
D938  85 97     STA $97 = 00                    A:FF X:65 Y:00 P:A5 SP:FB STACK: 00 00 C6 1A
D93A  85 98     STA $98 = 00                    A:FF X:65 Y:00 P:A5 SP:FB STACK: 00 00 C6 1A
D93C  24 98     BIT $98 = FF                    A:FF X:65 Y:00 P:A5 SP:FB STACK: 00 00 C6 1A
D93E  A0 34     LDY #$34                        A:FF X:65 Y:00 P:E5 SP:FB STACK: 00 00 C6 1A
D940  B1 97     LDA (INDIRECT),Y                A:FF X:65 Y:34 P:65 SP:FB STACK: 00 00 C6 1A
D942  C9 A3     CMP #$A3                        A:00 X:65 Y:34 P:67 SP:FB STACK: 00 00 C6 1A
D944  D0 02     BNE $D948                       A:00 X:65 Y:34 P:64 SP:FB STACK: 00 00 C6 1A
D948  A9 EB     LDA #$EB                        A:00 X:65 Y:34 P:64 SP:FB STACK: 00 00 C6 1A
D94A  85 00     STA $00 = 00                    A:EB X:65 Y:34 P:E4 SP:FB STACK: 00 00 C6 1A
D94C  A5 00     LDA $00 = EB                    A:EB X:65 Y:34 P:E4 SP:FB STACK: 00 00 C6 1A
D94E  48        PHA                             A:EB X:65 Y:34 P:E4 SP:FB STACK: 00 00 C6 1A
D94F  A9 46     LDA #$46                        A:EB X:65 Y:34 P:E4 SP:FA STACK: 00 00 C6 1A EB
D951  85 FF     STA $FF = 00                    A:46 X:65 Y:34 P:64 SP:FA STACK: 00 00 C6 1A EB
D953  A9 01     LDA #$01                        A:46 X:65 Y:34 P:64 SP:FA STACK: 00 00 C6 1A EB
D955  85 00     STA $00 = EB                    A:01 X:65 Y:34 P:64 SP:FA STACK: 00 00 C6 1A EB
D957  A0 FF     LDY #$FF                        A:01 X:65 Y:34 P:64 SP:FA STACK: 00 00 C6 1A EB
D959  B1 FF     LDA (INDIRECT),Y                A:01 X:65 Y:FF P:E4 SP:FA STACK: 00 00 C6 1A EB
D95B  C9 12     CMP #$12                        A:01 X:65 Y:FF P:64 SP:FA STACK: 00 00 C6 1A EB
D95D  F0 04     BEQ $D963                       A:01 X:65 Y:FF P:E4 SP:FA STACK: 00 00 C6 1A EB
D95F  68        PLA                             A:01 X:65 Y:FF P:E4 SP:FA STACK: 00 00 C6 1A EB
D960  A9 EC     LDA #$EC                        A:EB X:65 Y:FF P:E4 SP:FB STACK: 00 00 C6 1A
D962  48        PHA                             A:EC X:65 Y:FF P:E4 SP:FB STACK: 00 00 C6 1A
D963  68        PLA                             A:EC X:65 Y:FF P:E4 SP:FA STACK: 00 00 C6 1A EC
D964  85 00     STA $00 = 01                    A:EC X:65 Y:FF P:E4 SP:FB STACK: 00 00 C6 1A
D966  A2 ED     LDX #$ED                        A:EC X:65 Y:FF P:E4 SP:FB STACK: 00 00 C6 1A
D968  A9 00     LDA #$00                        A:EC X:ED Y:FF P:E4 SP:FB STACK: 00 00 C6 1A
D96A  85 33     STA $33 = A3                    A:00 X:ED Y:FF P:66 SP:FB STACK: 00 00 C6 1A
D96C  A9 04     LDA #$04                        A:00 X:ED Y:FF P:66 SP:FB STACK: 00 00 C6 1A
D96E  85 34     STA $34 = 00                    A:04 X:ED Y:FF P:64 SP:FB STACK: 00 00 C6 1A
D970  A0 00     LDY #$00                        A:04 X:ED Y:FF P:64 SP:FB STACK: 00 00 C6 1A
D972  18        CLC                             A:04 X:ED Y:00 P:66 SP:FB STACK: 00 00 C6 1A
D973  A9 FF     LDA #$FF                        A:04 X:ED Y:00 P:66 SP:FB STACK: 00 00 C6 1A
D975  85 01     STA $01 = FF                    A:FF X:ED Y:00 P:E4 SP:FB STACK: 00 00 C6 1A
D977  24 01     BIT $01 = FF                    A:FF X:ED Y:00 P:E4 SP:FB STACK: 00 00 C6 1A
D979  A9 AA     LDA #$AA                        A:FF X:ED Y:00 P:E4 SP:FB STACK: 00 00 C6 1A
D97B  8D 00 04  STA $0400 = AD                  A:AA X:ED Y:00 P:E4 SP:FB STACK: 00 00 C6 1A
D97E  A9 55     LDA #$55                        A:AA X:ED Y:00 P:E4 SP:FB STACK: 00 00 C6 1A
D980  11 33     ORA (INDIRECT),Y                A:55 X:ED Y:00 P:64 SP:FB STACK: 00 00 C6 1A
D982  B0 08     BCS $D98C                       A:FF X:ED Y:00 P:E4 SP:FB STACK: 00 00 C6 1A
D984  10 06     BPL $D98C                       A:FF X:ED Y:00 P:E4 SP:FB STACK: 00 00 C6 1A
D986  C9 FF     CMP #$FF                        A:FF X:ED Y:00 P:E4 SP:FB STACK: 00 00 C6 1A
D988  D0 02     BNE $D98C                       A:FF X:ED Y:00 P:67 SP:FB STACK: 00 00 C6 1A
D98A  70 02     BVS $D98E                       A:FF X:ED Y:00 P:67 SP:FB STACK: 00 00 C6 1A
D98E  E8        INX                             A:FF X:ED Y:00 P:67 SP:FB STACK: 00 00 C6 1A
D98F  38        SEC                             A:FF X:EE Y:00 P:E5 SP:FB STACK: 00 00 C6 1A
D990  B8        CLV                             A:FF X:EE Y:00 P:E5 SP:FB STACK: 00 00 C6 1A
D991  A9 00     LDA #$00                        A:FF X:EE Y:00 P:A5 SP:FB STACK: 00 00 C6 1A
D993  11 33     ORA (INDIRECT),Y                A:00 X:EE Y:00 P:27 SP:FB STACK: 00 00 C6 1A
D995  F0 06     BEQ $D99D                       A:AA X:EE Y:00 P:A5 SP:FB STACK: 00 00 C6 1A
D997  70 04     BVS $D99D                       A:AA X:EE Y:00 P:A5 SP:FB STACK: 00 00 C6 1A
D999  90 02     BCC $D99D                       A:AA X:EE Y:00 P:A5 SP:FB STACK: 00 00 C6 1A
D99B  30 02     BMI $D99F                       A:AA X:EE Y:00 P:A5 SP:FB STACK: 00 00 C6 1A
D99F  E8        INX                             A:AA X:EE Y:00 P:A5 SP:FB STACK: 00 00 C6 1A
D9A0  18        CLC                             A:AA X:EF Y:00 P:A5 SP:FB STACK: 00 00 C6 1A
D9A1  24 01     BIT $01 = FF                    A:AA X:EF Y:00 P:A4 SP:FB STACK: 00 00 C6 1A
D9A3  A9 55     LDA #$55                        A:AA X:EF Y:00 P:E4 SP:FB STACK: 00 00 C6 1A
D9A5  31 33     AND (INDIRECT),Y                A:55 X:EF Y:00 P:64 SP:FB STACK: 00 00 C6 1A
D9A7  D0 06     BNE $D9AF                       A:00 X:EF Y:00 P:66 SP:FB STACK: 00 00 C6 1A
D9A9  50 04     BVC $D9AF                       A:00 X:EF Y:00 P:66 SP:FB STACK: 00 00 C6 1A
D9AB  B0 02     BCS $D9AF                       A:00 X:EF Y:00 P:66 SP:FB STACK: 00 00 C6 1A
D9AD  10 02     BPL $D9B1                       A:00 X:EF Y:00 P:66 SP:FB STACK: 00 00 C6 1A
D9B1  E8        INX                             A:00 X:EF Y:00 P:66 SP:FB STACK: 00 00 C6 1A
D9B2  38        SEC                             A:00 X:F0 Y:00 P:E4 SP:FB STACK: 00 00 C6 1A
D9B3  B8        CLV                             A:00 X:F0 Y:00 P:E5 SP:FB STACK: 00 00 C6 1A
D9B4  A9 EF     LDA #$EF                        A:00 X:F0 Y:00 P:A5 SP:FB STACK: 00 00 C6 1A
D9B6  8D 00 04  STA $0400 = AA                  A:EF X:F0 Y:00 P:A5 SP:FB STACK: 00 00 C6 1A
D9B9  A9 F8     LDA #$F8                        A:EF X:F0 Y:00 P:A5 SP:FB STACK: 00 00 C6 1A
D9BB  31 33     AND (INDIRECT),Y                A:F8 X:F0 Y:00 P:A5 SP:FB STACK: 00 00 C6 1A
D9BD  90 08     BCC $D9C7                       A:E8 X:F0 Y:00 P:A5 SP:FB STACK: 00 00 C6 1A
D9BF  10 06     BPL $D9C7                       A:E8 X:F0 Y:00 P:A5 SP:FB STACK: 00 00 C6 1A
D9C1  C9 E8     CMP #$E8                        A:E8 X:F0 Y:00 P:A5 SP:FB STACK: 00 00 C6 1A
D9C3  D0 02     BNE $D9C7                       A:E8 X:F0 Y:00 P:27 SP:FB STACK: 00 00 C6 1A
D9C5  50 02     BVC $D9C9                       A:E8 X:F0 Y:00 P:27 SP:FB STACK: 00 00 C6 1A
D9C9  E8        INX                             A:E8 X:F0 Y:00 P:27 SP:FB STACK: 00 00 C6 1A
D9CA  18        CLC                             A:E8 X:F1 Y:00 P:A5 SP:FB STACK: 00 00 C6 1A
D9CB  24 01     BIT $01 = FF                    A:E8 X:F1 Y:00 P:A4 SP:FB STACK: 00 00 C6 1A
D9CD  A9 AA     LDA #$AA                        A:E8 X:F1 Y:00 P:E4 SP:FB STACK: 00 00 C6 1A
D9CF  8D 00 04  STA $0400 = EF                  A:AA X:F1 Y:00 P:E4 SP:FB STACK: 00 00 C6 1A
D9D2  A9 5F     LDA #$5F                        A:AA X:F1 Y:00 P:E4 SP:FB STACK: 00 00 C6 1A
D9D4  51 33     EOR (INDIRECT),Y                A:5F X:F1 Y:00 P:64 SP:FB STACK: 00 00 C6 1A
D9D6  B0 08     BCS $D9E0                       A:F5 X:F1 Y:00 P:E4 SP:FB STACK: 00 00 C6 1A
D9D8  10 06     BPL $D9E0                       A:F5 X:F1 Y:00 P:E4 SP:FB STACK: 00 00 C6 1A
D9DA  C9 F5     CMP #$F5                        A:F5 X:F1 Y:00 P:E4 SP:FB STACK: 00 00 C6 1A
D9DC  D0 02     BNE $D9E0                       A:F5 X:F1 Y:00 P:67 SP:FB STACK: 00 00 C6 1A
D9DE  70 02     BVS $D9E2                       A:F5 X:F1 Y:00 P:67 SP:FB STACK: 00 00 C6 1A
D9E2  E8        INX                             A:F5 X:F1 Y:00 P:67 SP:FB STACK: 00 00 C6 1A
D9E3  38        SEC                             A:F5 X:F2 Y:00 P:E5 SP:FB STACK: 00 00 C6 1A
D9E4  B8        CLV                             A:F5 X:F2 Y:00 P:E5 SP:FB STACK: 00 00 C6 1A
D9E5  A9 70     LDA #$70                        A:F5 X:F2 Y:00 P:A5 SP:FB STACK: 00 00 C6 1A
D9E7  8D 00 04  STA $0400 = AA                  A:70 X:F2 Y:00 P:25 SP:FB STACK: 00 00 C6 1A
D9EA  51 33     EOR (INDIRECT),Y                A:70 X:F2 Y:00 P:25 SP:FB STACK: 00 00 C6 1A
D9EC  D0 06     BNE $D9F4                       A:00 X:F2 Y:00 P:27 SP:FB STACK: 00 00 C6 1A
D9EE  70 04     BVS $D9F4                       A:00 X:F2 Y:00 P:27 SP:FB STACK: 00 00 C6 1A
D9F0  90 02     BCC $D9F4                       A:00 X:F2 Y:00 P:27 SP:FB STACK: 00 00 C6 1A
D9F2  10 02     BPL $D9F6                       A:00 X:F2 Y:00 P:27 SP:FB STACK: 00 00 C6 1A
D9F6  E8        INX                             A:00 X:F2 Y:00 P:27 SP:FB STACK: 00 00 C6 1A
D9F7  18        CLC                             A:00 X:F3 Y:00 P:A5 SP:FB STACK: 00 00 C6 1A
D9F8  24 01     BIT $01 = FF                    A:00 X:F3 Y:00 P:A4 SP:FB STACK: 00 00 C6 1A
D9FA  A9 69     LDA #$69                        A:00 X:F3 Y:00 P:E6 SP:FB STACK: 00 00 C6 1A
D9FC  8D 00 04  STA $0400 = 70                  A:69 X:F3 Y:00 P:64 SP:FB STACK: 00 00 C6 1A
D9FF  A9 00     LDA #$00                        A:69 X:F3 Y:00 P:64 SP:FB STACK: 00 00 C6 1A
DA01  71 33     ADC (INDIRECT),Y                A:00 X:F3 Y:00 P:66 SP:FB STACK: 00 00 C6 1A
DA03  30 08     BMI $DA0D                       A:69 X:F3 Y:00 P:24 SP:FB STACK: 00 00 C6 1A
DA05  B0 06     BCS $DA0D                       A:69 X:F3 Y:00 P:24 SP:FB STACK: 00 00 C6 1A
DA07  C9 69     CMP #$69                        A:69 X:F3 Y:00 P:24 SP:FB STACK: 00 00 C6 1A
DA09  D0 02     BNE $DA0D                       A:69 X:F3 Y:00 P:27 SP:FB STACK: 00 00 C6 1A
DA0B  50 02     BVC $DA0F                       A:69 X:F3 Y:00 P:27 SP:FB STACK: 00 00 C6 1A
DA0F  E8        INX                             A:69 X:F3 Y:00 P:27 SP:FB STACK: 00 00 C6 1A
DA10  38        SEC                             A:69 X:F4 Y:00 P:A5 SP:FB STACK: 00 00 C6 1A
DA11  24 01     BIT $01 = FF                    A:69 X:F4 Y:00 P:A5 SP:FB STACK: 00 00 C6 1A
DA13  A9 00     LDA #$00                        A:69 X:F4 Y:00 P:E5 SP:FB STACK: 00 00 C6 1A
DA15  71 33     ADC (INDIRECT),Y                A:00 X:F4 Y:00 P:67 SP:FB STACK: 00 00 C6 1A
DA17  30 08     BMI $DA21                       A:6A X:F4 Y:00 P:24 SP:FB STACK: 00 00 C6 1A
DA19  B0 06     BCS $DA21                       A:6A X:F4 Y:00 P:24 SP:FB STACK: 00 00 C6 1A
DA1B  C9 6A     CMP #$6A                        A:6A X:F4 Y:00 P:24 SP:FB STACK: 00 00 C6 1A
DA1D  D0 02     BNE $DA21                       A:6A X:F4 Y:00 P:27 SP:FB STACK: 00 00 C6 1A
DA1F  50 02     BVC $DA23                       A:6A X:F4 Y:00 P:27 SP:FB STACK: 00 00 C6 1A
DA23  E8        INX                             A:6A X:F4 Y:00 P:27 SP:FB STACK: 00 00 C6 1A
DA24  38        SEC                             A:6A X:F5 Y:00 P:A5 SP:FB STACK: 00 00 C6 1A
DA25  B8        CLV                             A:6A X:F5 Y:00 P:A5 SP:FB STACK: 00 00 C6 1A
DA26  A9 7F     LDA #$7F                        A:6A X:F5 Y:00 P:A5 SP:FB STACK: 00 00 C6 1A
DA28  8D 00 04  STA $0400 = 69                  A:7F X:F5 Y:00 P:25 SP:FB STACK: 00 00 C6 1A
DA2B  71 33     ADC (INDIRECT),Y                A:7F X:F5 Y:00 P:25 SP:FB STACK: 00 00 C6 1A
DA2D  10 08     BPL $DA37                       A:FF X:F5 Y:00 P:E4 SP:FB STACK: 00 00 C6 1A
DA2F  B0 06     BCS $DA37                       A:FF X:F5 Y:00 P:E4 SP:FB STACK: 00 00 C6 1A
DA31  C9 FF     CMP #$FF                        A:FF X:F5 Y:00 P:E4 SP:FB STACK: 00 00 C6 1A
DA33  D0 02     BNE $DA37                       A:FF X:F5 Y:00 P:67 SP:FB STACK: 00 00 C6 1A
DA35  70 02     BVS $DA39                       A:FF X:F5 Y:00 P:67 SP:FB STACK: 00 00 C6 1A
DA39  E8        INX                             A:FF X:F5 Y:00 P:67 SP:FB STACK: 00 00 C6 1A
DA3A  18        CLC                             A:FF X:F6 Y:00 P:E5 SP:FB STACK: 00 00 C6 1A
DA3B  24 01     BIT $01 = FF                    A:FF X:F6 Y:00 P:E4 SP:FB STACK: 00 00 C6 1A
DA3D  A9 80     LDA #$80                        A:FF X:F6 Y:00 P:E4 SP:FB STACK: 00 00 C6 1A
DA3F  8D 00 04  STA $0400 = 7F                  A:80 X:F6 Y:00 P:E4 SP:FB STACK: 00 00 C6 1A
DA42  A9 7F     LDA #$7F                        A:80 X:F6 Y:00 P:E4 SP:FB STACK: 00 00 C6 1A
DA44  71 33     ADC (INDIRECT),Y                A:7F X:F6 Y:00 P:64 SP:FB STACK: 00 00 C6 1A
DA46  10 08     BPL $DA50                       A:FF X:F6 Y:00 P:A4 SP:FB STACK: 00 00 C6 1A
DA48  B0 06     BCS $DA50                       A:FF X:F6 Y:00 P:A4 SP:FB STACK: 00 00 C6 1A
DA4A  C9 FF     CMP #$FF                        A:FF X:F6 Y:00 P:A4 SP:FB STACK: 00 00 C6 1A
DA4C  D0 02     BNE $DA50                       A:FF X:F6 Y:00 P:27 SP:FB STACK: 00 00 C6 1A
DA4E  50 02     BVC $DA52                       A:FF X:F6 Y:00 P:27 SP:FB STACK: 00 00 C6 1A
DA52  E8        INX                             A:FF X:F6 Y:00 P:27 SP:FB STACK: 00 00 C6 1A
DA53  38        SEC                             A:FF X:F7 Y:00 P:A5 SP:FB STACK: 00 00 C6 1A
DA54  B8        CLV                             A:FF X:F7 Y:00 P:A5 SP:FB STACK: 00 00 C6 1A
DA55  A9 80     LDA #$80                        A:FF X:F7 Y:00 P:A5 SP:FB STACK: 00 00 C6 1A
DA57  8D 00 04  STA $0400 = 80                  A:80 X:F7 Y:00 P:A5 SP:FB STACK: 00 00 C6 1A
DA5A  A9 7F     LDA #$7F                        A:80 X:F7 Y:00 P:A5 SP:FB STACK: 00 00 C6 1A
DA5C  71 33     ADC (INDIRECT),Y                A:7F X:F7 Y:00 P:25 SP:FB STACK: 00 00 C6 1A
DA5E  D0 06     BNE $DA66                       A:00 X:F7 Y:00 P:27 SP:FB STACK: 00 00 C6 1A
DA60  30 04     BMI $DA66                       A:00 X:F7 Y:00 P:27 SP:FB STACK: 00 00 C6 1A
DA62  70 02     BVS $DA66                       A:00 X:F7 Y:00 P:27 SP:FB STACK: 00 00 C6 1A
DA64  B0 02     BCS $DA68                       A:00 X:F7 Y:00 P:27 SP:FB STACK: 00 00 C6 1A
DA68  E8        INX                             A:00 X:F7 Y:00 P:27 SP:FB STACK: 00 00 C6 1A
DA69  24 01     BIT $01 = FF                    A:00 X:F8 Y:00 P:A5 SP:FB STACK: 00 00 C6 1A
DA6B  A9 40     LDA #$40                        A:00 X:F8 Y:00 P:E7 SP:FB STACK: 00 00 C6 1A
DA6D  8D 00 04  STA $0400 = 80                  A:40 X:F8 Y:00 P:65 SP:FB STACK: 00 00 C6 1A
DA70  D1 33     CMP (INDIRECT),Y                A:40 X:F8 Y:00 P:65 SP:FB STACK: 00 00 C6 1A
DA72  30 06     BMI $DA7A                       A:40 X:F8 Y:00 P:67 SP:FB STACK: 00 00 C6 1A
DA74  90 04     BCC $DA7A                       A:40 X:F8 Y:00 P:67 SP:FB STACK: 00 00 C6 1A
DA76  D0 02     BNE $DA7A                       A:40 X:F8 Y:00 P:67 SP:FB STACK: 00 00 C6 1A
DA78  70 02     BVS $DA7C                       A:40 X:F8 Y:00 P:67 SP:FB STACK: 00 00 C6 1A
DA7C  E8        INX                             A:40 X:F8 Y:00 P:67 SP:FB STACK: 00 00 C6 1A
DA7D  B8        CLV                             A:40 X:F9 Y:00 P:E5 SP:FB STACK: 00 00 C6 1A
DA7E  CE 00 04  DEC $0400 = 40                  A:40 X:F9 Y:00 P:A5 SP:FB STACK: 00 00 C6 1A
DA81  D1 33     CMP (INDIRECT),Y                A:40 X:F9 Y:00 P:25 SP:FB STACK: 00 00 C6 1A
DA83  F0 06     BEQ $DA8B                       A:40 X:F9 Y:00 P:25 SP:FB STACK: 00 00 C6 1A
DA85  30 04     BMI $DA8B                       A:40 X:F9 Y:00 P:25 SP:FB STACK: 00 00 C6 1A
DA87  90 02     BCC $DA8B                       A:40 X:F9 Y:00 P:25 SP:FB STACK: 00 00 C6 1A
DA89  50 02     BVC $DA8D                       A:40 X:F9 Y:00 P:25 SP:FB STACK: 00 00 C6 1A
DA8D  E8        INX                             A:40 X:F9 Y:00 P:25 SP:FB STACK: 00 00 C6 1A
DA8E  EE 00 04  INC $0400 = 3F                  A:40 X:FA Y:00 P:A5 SP:FB STACK: 00 00 C6 1A
DA91  EE 00 04  INC $0400 = 40                  A:40 X:FA Y:00 P:25 SP:FB STACK: 00 00 C6 1A
DA94  D1 33     CMP (INDIRECT),Y                A:40 X:FA Y:00 P:25 SP:FB STACK: 00 00 C6 1A
DA96  F0 02     BEQ $DA9A                       A:40 X:FA Y:00 P:A4 SP:FB STACK: 00 00 C6 1A
DA98  30 02     BMI $DA9C                       A:40 X:FA Y:00 P:A4 SP:FB STACK: 00 00 C6 1A
DA9C  E8        INX                             A:40 X:FA Y:00 P:A4 SP:FB STACK: 00 00 C6 1A
DA9D  A9 00     LDA #$00                        A:40 X:FB Y:00 P:A4 SP:FB STACK: 00 00 C6 1A
DA9F  8D 00 04  STA $0400 = 41                  A:00 X:FB Y:00 P:26 SP:FB STACK: 00 00 C6 1A
DAA2  A9 80     LDA #$80                        A:00 X:FB Y:00 P:26 SP:FB STACK: 00 00 C6 1A
DAA4  D1 33     CMP (INDIRECT),Y                A:80 X:FB Y:00 P:A4 SP:FB STACK: 00 00 C6 1A
DAA6  F0 04     BEQ $DAAC                       A:80 X:FB Y:00 P:A5 SP:FB STACK: 00 00 C6 1A
DAA8  10 02     BPL $DAAC                       A:80 X:FB Y:00 P:A5 SP:FB STACK: 00 00 C6 1A
DAAA  B0 02     BCS $DAAE                       A:80 X:FB Y:00 P:A5 SP:FB STACK: 00 00 C6 1A
DAAE  E8        INX                             A:80 X:FB Y:00 P:A5 SP:FB STACK: 00 00 C6 1A
DAAF  A0 80     LDY #$80                        A:80 X:FC Y:00 P:A5 SP:FB STACK: 00 00 C6 1A
DAB1  8C 00 04  STY $0400 = 00                  A:80 X:FC Y:80 P:A5 SP:FB STACK: 00 00 C6 1A
DAB4  A0 00     LDY #$00                        A:80 X:FC Y:80 P:A5 SP:FB STACK: 00 00 C6 1A
DAB6  D1 33     CMP (INDIRECT),Y                A:80 X:FC Y:00 P:27 SP:FB STACK: 00 00 C6 1A
DAB8  D0 04     BNE $DABE                       A:80 X:FC Y:00 P:27 SP:FB STACK: 00 00 C6 1A
DABA  30 02     BMI $DABE                       A:80 X:FC Y:00 P:27 SP:FB STACK: 00 00 C6 1A
DABC  B0 02     BCS $DAC0                       A:80 X:FC Y:00 P:27 SP:FB STACK: 00 00 C6 1A
DAC0  E8        INX                             A:80 X:FC Y:00 P:27 SP:FB STACK: 00 00 C6 1A
DAC1  EE 00 04  INC $0400 = 80                  A:80 X:FD Y:00 P:A5 SP:FB STACK: 00 00 C6 1A
DAC4  D1 33     CMP (INDIRECT),Y                A:80 X:FD Y:00 P:A5 SP:FB STACK: 00 00 C6 1A
DAC6  B0 04     BCS $DACC                       A:80 X:FD Y:00 P:A4 SP:FB STACK: 00 00 C6 1A
DAC8  F0 02     BEQ $DACC                       A:80 X:FD Y:00 P:A4 SP:FB STACK: 00 00 C6 1A
DACA  30 02     BMI $DACE                       A:80 X:FD Y:00 P:A4 SP:FB STACK: 00 00 C6 1A
DACE  E8        INX                             A:80 X:FD Y:00 P:A4 SP:FB STACK: 00 00 C6 1A
DACF  CE 00 04  DEC $0400 = 81                  A:80 X:FE Y:00 P:A4 SP:FB STACK: 00 00 C6 1A
DAD2  CE 00 04  DEC $0400 = 80                  A:80 X:FE Y:00 P:A4 SP:FB STACK: 00 00 C6 1A
DAD5  D1 33     CMP (INDIRECT),Y                A:80 X:FE Y:00 P:24 SP:FB STACK: 00 00 C6 1A
DAD7  90 04     BCC $DADD                       A:80 X:FE Y:00 P:25 SP:FB STACK: 00 00 C6 1A
DAD9  F0 02     BEQ $DADD                       A:80 X:FE Y:00 P:25 SP:FB STACK: 00 00 C6 1A
DADB  10 02     BPL $DADF                       A:80 X:FE Y:00 P:25 SP:FB STACK: 00 00 C6 1A
DADF  60        RTS                             A:80 X:FE Y:00 P:25 SP:FB STACK: 00 00 C6 1A
C61B  A5 00     LDA $00 = EC                    A:80 X:FE Y:00 P:25 SP:FD STACK: 00 00
C61D  85 10     STA $10 = 00                    A:EC X:FE Y:00 P:A5 SP:FD STACK: 00 00
C61F  A9 00     LDA #$00                        A:EC X:FE Y:00 P:A5 SP:FD STACK: 00 00
C621  85 00     STA $00 = EC                    A:00 X:FE Y:00 P:27 SP:FD STACK: 00 00
C623  20 E0 DA  JSR $DAE0                       A:00 X:FE Y:00 P:27 SP:FD STACK: 00 00
DAE0  A9 00     LDA #$00                        A:00 X:FE Y:00 P:27 SP:FB STACK: 00 00 C6 25
DAE2  85 33     STA $33 = 00                    A:00 X:FE Y:00 P:27 SP:FB STACK: 00 00 C6 25
DAE4  A9 04     LDA #$04                        A:00 X:FE Y:00 P:27 SP:FB STACK: 00 00 C6 25
DAE6  85 34     STA $34 = 04                    A:04 X:FE Y:00 P:25 SP:FB STACK: 00 00 C6 25
DAE8  A0 00     LDY #$00                        A:04 X:FE Y:00 P:25 SP:FB STACK: 00 00 C6 25
DAEA  A2 01     LDX #$01                        A:04 X:FE Y:00 P:27 SP:FB STACK: 00 00 C6 25
DAEC  24 01     BIT $01 = FF                    A:04 X:01 Y:00 P:25 SP:FB STACK: 00 00 C6 25
DAEE  A9 40     LDA #$40                        A:04 X:01 Y:00 P:E5 SP:FB STACK: 00 00 C6 25
DAF0  8D 00 04  STA $0400 = 7F                  A:40 X:01 Y:00 P:65 SP:FB STACK: 00 00 C6 25
DAF3  38        SEC                             A:40 X:01 Y:00 P:65 SP:FB STACK: 00 00 C6 25
DAF4  F1 33     SBC (INDIRECT),Y                A:40 X:01 Y:00 P:65 SP:FB STACK: 00 00 C6 25
DAF6  30 0A     BMI $DB02                       A:00 X:01 Y:00 P:27 SP:FB STACK: 00 00 C6 25
DAF8  90 08     BCC $DB02                       A:00 X:01 Y:00 P:27 SP:FB STACK: 00 00 C6 25
DAFA  D0 06     BNE $DB02                       A:00 X:01 Y:00 P:27 SP:FB STACK: 00 00 C6 25
DAFC  70 04     BVS $DB02                       A:00 X:01 Y:00 P:27 SP:FB STACK: 00 00 C6 25
DAFE  C9 00     CMP #$00                        A:00 X:01 Y:00 P:27 SP:FB STACK: 00 00 C6 25
DB00  F0 02     BEQ $DB04                       A:00 X:01 Y:00 P:27 SP:FB STACK: 00 00 C6 25
DB04  E8        INX                             A:00 X:01 Y:00 P:27 SP:FB STACK: 00 00 C6 25
DB05  B8        CLV                             A:00 X:02 Y:00 P:25 SP:FB STACK: 00 00 C6 25
DB06  38        SEC                             A:00 X:02 Y:00 P:25 SP:FB STACK: 00 00 C6 25
DB07  A9 40     LDA #$40                        A:00 X:02 Y:00 P:25 SP:FB STACK: 00 00 C6 25
DB09  CE 00 04  DEC $0400 = 40                  A:40 X:02 Y:00 P:25 SP:FB STACK: 00 00 C6 25
DB0C  F1 33     SBC (INDIRECT),Y                A:40 X:02 Y:00 P:25 SP:FB STACK: 00 00 C6 25
DB0E  F0 0A     BEQ $DB1A                       A:01 X:02 Y:00 P:25 SP:FB STACK: 00 00 C6 25
DB10  30 08     BMI $DB1A                       A:01 X:02 Y:00 P:25 SP:FB STACK: 00 00 C6 25
DB12  90 06     BCC $DB1A                       A:01 X:02 Y:00 P:25 SP:FB STACK: 00 00 C6 25
DB14  70 04     BVS $DB1A                       A:01 X:02 Y:00 P:25 SP:FB STACK: 00 00 C6 25
DB16  C9 01     CMP #$01                        A:01 X:02 Y:00 P:25 SP:FB STACK: 00 00 C6 25
DB18  F0 02     BEQ $DB1C                       A:01 X:02 Y:00 P:27 SP:FB STACK: 00 00 C6 25
DB1C  E8        INX                             A:01 X:02 Y:00 P:27 SP:FB STACK: 00 00 C6 25
DB1D  A9 40     LDA #$40                        A:01 X:03 Y:00 P:25 SP:FB STACK: 00 00 C6 25
DB1F  38        SEC                             A:40 X:03 Y:00 P:25 SP:FB STACK: 00 00 C6 25
DB20  24 01     BIT $01 = FF                    A:40 X:03 Y:00 P:25 SP:FB STACK: 00 00 C6 25
DB22  EE 00 04  INC $0400 = 3F                  A:40 X:03 Y:00 P:E5 SP:FB STACK: 00 00 C6 25
DB25  EE 00 04  INC $0400 = 40                  A:40 X:03 Y:00 P:65 SP:FB STACK: 00 00 C6 25
DB28  F1 33     SBC (INDIRECT),Y                A:40 X:03 Y:00 P:65 SP:FB STACK: 00 00 C6 25
DB2A  B0 0A     BCS $DB36                       A:FF X:03 Y:00 P:A4 SP:FB STACK: 00 00 C6 25
DB2C  F0 08     BEQ $DB36                       A:FF X:03 Y:00 P:A4 SP:FB STACK: 00 00 C6 25
DB2E  10 06     BPL $DB36                       A:FF X:03 Y:00 P:A4 SP:FB STACK: 00 00 C6 25
DB30  70 04     BVS $DB36                       A:FF X:03 Y:00 P:A4 SP:FB STACK: 00 00 C6 25
DB32  C9 FF     CMP #$FF                        A:FF X:03 Y:00 P:A4 SP:FB STACK: 00 00 C6 25
DB34  F0 02     BEQ $DB38                       A:FF X:03 Y:00 P:27 SP:FB STACK: 00 00 C6 25
DB38  E8        INX                             A:FF X:03 Y:00 P:27 SP:FB STACK: 00 00 C6 25
DB39  18        CLC                             A:FF X:04 Y:00 P:25 SP:FB STACK: 00 00 C6 25
DB3A  A9 00     LDA #$00                        A:FF X:04 Y:00 P:24 SP:FB STACK: 00 00 C6 25
DB3C  8D 00 04  STA $0400 = 41                  A:00 X:04 Y:00 P:26 SP:FB STACK: 00 00 C6 25
DB3F  A9 80     LDA #$80                        A:00 X:04 Y:00 P:26 SP:FB STACK: 00 00 C6 25
DB41  F1 33     SBC (INDIRECT),Y                A:80 X:04 Y:00 P:A4 SP:FB STACK: 00 00 C6 25
DB43  90 04     BCC $DB49                       A:7F X:04 Y:00 P:65 SP:FB STACK: 00 00 C6 25
DB45  C9 7F     CMP #$7F                        A:7F X:04 Y:00 P:65 SP:FB STACK: 00 00 C6 25
DB47  F0 02     BEQ $DB4B                       A:7F X:04 Y:00 P:67 SP:FB STACK: 00 00 C6 25
DB4B  E8        INX                             A:7F X:04 Y:00 P:67 SP:FB STACK: 00 00 C6 25
DB4C  38        SEC                             A:7F X:05 Y:00 P:65 SP:FB STACK: 00 00 C6 25
DB4D  A9 7F     LDA #$7F                        A:7F X:05 Y:00 P:65 SP:FB STACK: 00 00 C6 25
DB4F  8D 00 04  STA $0400 = 00                  A:7F X:05 Y:00 P:65 SP:FB STACK: 00 00 C6 25
DB52  A9 81     LDA #$81                        A:7F X:05 Y:00 P:65 SP:FB STACK: 00 00 C6 25
DB54  F1 33     SBC (INDIRECT),Y                A:81 X:05 Y:00 P:E5 SP:FB STACK: 00 00 C6 25
DB56  50 06     BVC $DB5E                       A:02 X:05 Y:00 P:65 SP:FB STACK: 00 00 C6 25
DB58  90 04     BCC $DB5E                       A:02 X:05 Y:00 P:65 SP:FB STACK: 00 00 C6 25
DB5A  C9 02     CMP #$02                        A:02 X:05 Y:00 P:65 SP:FB STACK: 00 00 C6 25
DB5C  F0 02     BEQ $DB60                       A:02 X:05 Y:00 P:67 SP:FB STACK: 00 00 C6 25
DB60  E8        INX                             A:02 X:05 Y:00 P:67 SP:FB STACK: 00 00 C6 25
DB61  A9 00     LDA #$00                        A:02 X:06 Y:00 P:65 SP:FB STACK: 00 00 C6 25
DB63  A9 87     LDA #$87                        A:00 X:06 Y:00 P:67 SP:FB STACK: 00 00 C6 25
DB65  91 33     STA (INDIRECT),Y                A:87 X:06 Y:00 P:E5 SP:FB STACK: 00 00 C6 25
DB67  AD 00 04  LDA $0400 = 87                  A:87 X:06 Y:00 P:E5 SP:FB STACK: 00 00 C6 25
DB6A  C9 87     CMP #$87                        A:87 X:06 Y:00 P:E5 SP:FB STACK: 00 00 C6 25
DB6C  F0 02     BEQ $DB70                       A:87 X:06 Y:00 P:67 SP:FB STACK: 00 00 C6 25
DB70  E8        INX                             A:87 X:06 Y:00 P:67 SP:FB STACK: 00 00 C6 25
DB71  A9 7E     LDA #$7E                        A:87 X:07 Y:00 P:65 SP:FB STACK: 00 00 C6 25
DB73  8D 00 02  STA $0200 = 7F                  A:7E X:07 Y:00 P:65 SP:FB STACK: 00 00 C6 25
DB76  A9 DB     LDA #$DB                        A:7E X:07 Y:00 P:65 SP:FB STACK: 00 00 C6 25
DB78  8D 01 02  STA $0201 = 00                  A:DB X:07 Y:00 P:E5 SP:FB STACK: 00 00 C6 25
DB7B  6C        NOP                             A:DB X:07 Y:00 P:E5 SP:FB STACK: 00 00 C6 25
DB7C  00        BRK                             A:DB X:07 Y:00 P:E5 SP:FB STACK: 00 00 C6 25
DB7D  02        NOP                             A:DB X:07 Y:00 P:E5 SP:FB STACK: 00 00 C6 25
DB7E  A9 00     LDA #$00                        A:DB X:07 Y:00 P:E5 SP:FB STACK: 00 00 C6 25
DB80  8D FF 02  STA $02FF = 00                  A:00 X:07 Y:00 P:67 SP:FB STACK: 00 00 C6 25
DB83  A9 01     LDA #$01                        A:00 X:07 Y:00 P:67 SP:FB STACK: 00 00 C6 25
DB85  8D 00 03  STA $0300 = 89                  A:01 X:07 Y:00 P:65 SP:FB STACK: 00 00 C6 25
DB88  A9 03     LDA #$03                        A:01 X:07 Y:00 P:65 SP:FB STACK: 00 00 C6 25
DB8A  8D 00 02  STA $0200 = 7E                  A:03 X:07 Y:00 P:65 SP:FB STACK: 00 00 C6 25
DB8D  A9 A9     LDA #$A9                        A:03 X:07 Y:00 P:65 SP:FB STACK: 00 00 C6 25
DB8F  8D 00 01  STA $0100 = 00                  A:A9 X:07 Y:00 P:E5 SP:FB STACK: 00 00 C6 25
DB92  A9 55     LDA #$55                        A:A9 X:07 Y:00 P:E5 SP:FB STACK: 00 00 C6 25
DB94  8D 01 01  STA $0101 = 00                  A:55 X:07 Y:00 P:65 SP:FB STACK: 00 00 C6 25
DB97  A9 60     LDA #$60                        A:55 X:07 Y:00 P:65 SP:FB STACK: 00 00 C6 25
DB99  8D 02 01  STA $0102 = 00                  A:60 X:07 Y:00 P:65 SP:FB STACK: 00 00 C6 25
DB9C  A9 A9     LDA #$A9                        A:60 X:07 Y:00 P:65 SP:FB STACK: 00 00 C6 25
DB9E  8D 00 03  STA $0300 = 01                  A:A9 X:07 Y:00 P:E5 SP:FB STACK: 00 00 C6 25
DBA1  A9 AA     LDA #$AA                        A:A9 X:07 Y:00 P:E5 SP:FB STACK: 00 00 C6 25
DBA3  8D 01 03  STA $0301 = 00                  A:AA X:07 Y:00 P:E5 SP:FB STACK: 00 00 C6 25
DBA6  A9 60     LDA #$60                        A:AA X:07 Y:00 P:E5 SP:FB STACK: 00 00 C6 25
DBA8  8D 02 03  STA $0302 = 00                  A:60 X:07 Y:00 P:65 SP:FB STACK: 00 00 C6 25
DBAB  20 B5 DB  JSR $DBB5                       A:60 X:07 Y:00 P:65 SP:FB STACK: 00 00 C6 25
DBB5  6C        NOP                             A:60 X:07 Y:00 P:65 SP:F9 STACK: 00 00 C6 25 DB AD
DBB6  FF        NOP                             A:60 X:07 Y:00 P:65 SP:F9 STACK: 00 00 C6 25 DB AD
DBB7  02        NOP                             A:60 X:07 Y:00 P:65 SP:F9 STACK: 00 00 C6 25 DB AD
DBB8  A9 FF     LDA #$FF                        A:60 X:07 Y:00 P:65 SP:F9 STACK: 00 00 C6 25 DB AD
DBBA  85 01     STA $01 = FF                    A:FF X:07 Y:00 P:E5 SP:F9 STACK: 00 00 C6 25 DB AD
DBBC  A9 AA     LDA #$AA                        A:FF X:07 Y:00 P:E5 SP:F9 STACK: 00 00 C6 25 DB AD
DBBE  85 33     STA $33 = 00                    A:AA X:07 Y:00 P:E5 SP:F9 STACK: 00 00 C6 25 DB AD
DBC0  A9 BB     LDA #$BB                        A:AA X:07 Y:00 P:E5 SP:F9 STACK: 00 00 C6 25 DB AD
DBC2  85 89     STA $89 = 00                    A:BB X:07 Y:00 P:E5 SP:F9 STACK: 00 00 C6 25 DB AD
DBC4  A2 00     LDX #$00                        A:BB X:07 Y:00 P:E5 SP:F9 STACK: 00 00 C6 25 DB AD
DBC6  A9 66     LDA #$66                        A:BB X:00 Y:00 P:67 SP:F9 STACK: 00 00 C6 25 DB AD
DBC8  24 01     BIT $01 = FF                    A:66 X:00 Y:00 P:65 SP:F9 STACK: 00 00 C6 25 DB AD
DBCA  38        SEC                             A:66 X:00 Y:00 P:E5 SP:F9 STACK: 00 00 C6 25 DB AD
DBCB  A0 00     LDY #$00                        A:66 X:00 Y:00 P:E5 SP:F9 STACK: 00 00 C6 25 DB AD
DBCD  B4 33     LDY $33,X @ 0033 = AA           A:66 X:00 Y:00 P:67 SP:F9 STACK: 00 00 C6 25 DB AD
DBCF  10 12     BPL $DBE3                       A:66 X:00 Y:AA P:E5 SP:F9 STACK: 00 00 C6 25 DB AD
DBD1  F0 10     BEQ $DBE3                       A:66 X:00 Y:AA P:E5 SP:F9 STACK: 00 00 C6 25 DB AD
DBD3  50 0E     BVC $DBE3                       A:66 X:00 Y:AA P:E5 SP:F9 STACK: 00 00 C6 25 DB AD
DBD5  90 0C     BCC $DBE3                       A:66 X:00 Y:AA P:E5 SP:F9 STACK: 00 00 C6 25 DB AD
DBD7  C9 66     CMP #$66                        A:66 X:00 Y:AA P:E5 SP:F9 STACK: 00 00 C6 25 DB AD
DBD9  D0 08     BNE $DBE3                       A:66 X:00 Y:AA P:67 SP:F9 STACK: 00 00 C6 25 DB AD
DBDB  E0 00     CPX #$00                        A:66 X:00 Y:AA P:67 SP:F9 STACK: 00 00 C6 25 DB AD
DBDD  D0 04     BNE $DBE3                       A:66 X:00 Y:AA P:67 SP:F9 STACK: 00 00 C6 25 DB AD
DBDF  C0 AA     CPY #$AA                        A:66 X:00 Y:AA P:67 SP:F9 STACK: 00 00 C6 25 DB AD
DBE1  F0 04     BEQ $DBE7                       A:66 X:00 Y:AA P:67 SP:F9 STACK: 00 00 C6 25 DB AD
DBE7  A2 8A     LDX #$8A                        A:66 X:00 Y:AA P:67 SP:F9 STACK: 00 00 C6 25 DB AD
DBE9  A9 66     LDA #$66                        A:66 X:8A Y:AA P:E5 SP:F9 STACK: 00 00 C6 25 DB AD
DBEB  B8        CLV                             A:66 X:8A Y:AA P:65 SP:F9 STACK: 00 00 C6 25 DB AD
DBEC  18        CLC                             A:66 X:8A Y:AA P:25 SP:F9 STACK: 00 00 C6 25 DB AD
DBED  A0 00     LDY #$00                        A:66 X:8A Y:AA P:24 SP:F9 STACK: 00 00 C6 25 DB AD
DBEF  B4 FF     LDY $89,X @ 0113 = BB           A:66 X:8A Y:00 P:26 SP:F9 STACK: 00 00 C6 25 DB AD
DBF1  10 12     BPL $DC05                       A:66 X:8A Y:BB P:A4 SP:F9 STACK: 00 00 C6 25 DB AD
DBF3  F0 10     BEQ $DC05                       A:66 X:8A Y:BB P:A4 SP:F9 STACK: 00 00 C6 25 DB AD
DBF5  70 0E     BVS $DC05                       A:66 X:8A Y:BB P:A4 SP:F9 STACK: 00 00 C6 25 DB AD
DBF7  B0 0C     BCS $DC05                       A:66 X:8A Y:BB P:A4 SP:F9 STACK: 00 00 C6 25 DB AD
DBF9  C0 BB     CPY #$BB                        A:66 X:8A Y:BB P:A4 SP:F9 STACK: 00 00 C6 25 DB AD
DBFB  D0 08     BNE $DC05                       A:66 X:8A Y:BB P:27 SP:F9 STACK: 00 00 C6 25 DB AD
DBFD  C9 66     CMP #$66                        A:66 X:8A Y:BB P:27 SP:F9 STACK: 00 00 C6 25 DB AD
DBFF  D0 04     BNE $DC05                       A:66 X:8A Y:BB P:27 SP:F9 STACK: 00 00 C6 25 DB AD
DC01  E0 8A     CPX #$8A                        A:66 X:8A Y:BB P:27 SP:F9 STACK: 00 00 C6 25 DB AD
DC03  F0 04     BEQ $DC09                       A:66 X:8A Y:BB P:27 SP:F9 STACK: 00 00 C6 25 DB AD
DC09  24 01     BIT $01 = FF                    A:66 X:8A Y:BB P:27 SP:F9 STACK: 00 00 C6 25 DB AD
DC0B  38        SEC                             A:66 X:8A Y:BB P:E5 SP:F9 STACK: 00 00 C6 25 DB AD
DC0C  A0 44     LDY #$44                        A:66 X:8A Y:BB P:E5 SP:F9 STACK: 00 00 C6 25 DB AD
DC0E  A2 00     LDX #$00                        A:66 X:8A Y:44 P:65 SP:F9 STACK: 00 00 C6 25 DB AD
DC10  94 33     STY $33,X @ 0033 = AA           A:66 X:00 Y:44 P:67 SP:F9 STACK: 00 00 C6 25 DB AD
DC12  A5 33     LDA $33 = 44                    A:66 X:00 Y:44 P:67 SP:F9 STACK: 00 00 C6 25 DB AD
DC14  90 18     BCC $DC2E                       A:44 X:00 Y:44 P:65 SP:F9 STACK: 00 00 C6 25 DB AD
DC16  C9 44     CMP #$44                        A:44 X:00 Y:44 P:65 SP:F9 STACK: 00 00 C6 25 DB AD
DC18  D0 14     BNE $DC2E                       A:44 X:00 Y:44 P:67 SP:F9 STACK: 00 00 C6 25 DB AD
DC1A  50 12     BVC $DC2E                       A:44 X:00 Y:44 P:67 SP:F9 STACK: 00 00 C6 25 DB AD
DC1C  18        CLC                             A:44 X:00 Y:44 P:67 SP:F9 STACK: 00 00 C6 25 DB AD
DC1D  B8        CLV                             A:44 X:00 Y:44 P:66 SP:F9 STACK: 00 00 C6 25 DB AD
DC1E  A0 99     LDY #$99                        A:44 X:00 Y:44 P:26 SP:F9 STACK: 00 00 C6 25 DB AD
DC20  A2 80     LDX #$80                        A:44 X:00 Y:99 P:A4 SP:F9 STACK: 00 00 C6 25 DB AD
DC22  94 85     STY $05,X @ 0085 = 00           A:44 X:80 Y:99 P:A4 SP:F9 STACK: 00 00 C6 25 DB AD
DC24  A5 05     LDA $05 = 99                    A:44 X:80 Y:99 P:A4 SP:F9 STACK: 00 00 C6 25 DB AD
DC26  B0 06     BCS $DC2E                       A:99 X:80 Y:99 P:A4 SP:F9 STACK: 00 00 C6 25 DB AD
DC28  C9 99     CMP #$99                        A:99 X:80 Y:99 P:A4 SP:F9 STACK: 00 00 C6 25 DB AD
DC2A  D0 02     BNE $DC2E                       A:99 X:80 Y:99 P:27 SP:F9 STACK: 00 00 C6 25 DB AD
DC2C  50 04     BVC $DC32                       A:99 X:80 Y:99 P:27 SP:F9 STACK: 00 00 C6 25 DB AD
DC32  A0 0B     LDY #$0B                        A:99 X:80 Y:99 P:27 SP:F9 STACK: 00 00 C6 25 DB AD
DC34  A9 AA     LDA #$AA                        A:99 X:80 Y:0B P:25 SP:F9 STACK: 00 00 C6 25 DB AD
DC36  A2 78     LDX #$78                        A:AA X:80 Y:0B P:A5 SP:F9 STACK: 00 00 C6 25 DB AD
DC38  85 78     STA $78 = 00                    A:AA X:78 Y:0B P:25 SP:F9 STACK: 00 00 C6 25 DB AD
DC3A  20 B6 F7  JSR $F7B6                       A:AA X:78 Y:0B P:25 SP:F9 STACK: 00 00 C6 25 DB AD
F7B6  18        CLC                             A:AA X:78 Y:0B P:25 SP:F7 STACK: 00 00 C6 25 DB AD DC 3C
F7B7  A9 FF     LDA #$FF                        A:AA X:78 Y:0B P:24 SP:F7 STACK: 00 00 C6 25 DB AD DC 3C
F7B9  85 01     STA $01 = FF                    A:FF X:78 Y:0B P:A4 SP:F7 STACK: 00 00 C6 25 DB AD DC 3C
F7BB  24 01     BIT $01 = FF                    A:FF X:78 Y:0B P:A4 SP:F7 STACK: 00 00 C6 25 DB AD DC 3C
F7BD  A9 55     LDA #$55                        A:FF X:78 Y:0B P:E4 SP:F7 STACK: 00 00 C6 25 DB AD DC 3C
F7BF  60        RTS                             A:55 X:78 Y:0B P:64 SP:F7 STACK: 00 00 C6 25 DB AD DC 3C
DC3D  15 00     ORA $78,X @ 00F0 = AA           A:55 X:78 Y:0B P:64 SP:F9 STACK: 00 00 C6 25 DB AD
DC3F  20 C0 F7  JSR $F7C0                       A:FF X:78 Y:0B P:E4 SP:F9 STACK: 00 00 C6 25 DB AD
F7C0  B0 09     BCS $F7CB                       A:FF X:78 Y:0B P:E4 SP:F7 STACK: 00 00 C6 25 DB AD DC 41
F7C2  10 07     BPL $F7CB                       A:FF X:78 Y:0B P:E4 SP:F7 STACK: 00 00 C6 25 DB AD DC 41
F7C4  C9 FF     CMP #$FF                        A:FF X:78 Y:0B P:E4 SP:F7 STACK: 00 00 C6 25 DB AD DC 41
F7C6  D0 03     BNE $F7CB                       A:FF X:78 Y:0B P:67 SP:F7 STACK: 00 00 C6 25 DB AD DC 41
F7C8  50 01     BVC $F7CB                       A:FF X:78 Y:0B P:67 SP:F7 STACK: 00 00 C6 25 DB AD DC 41
F7CA  60        RTS                             A:FF X:78 Y:0B P:67 SP:F7 STACK: 00 00 C6 25 DB AD DC 41
DC42  C8        INY                             A:FF X:78 Y:0B P:67 SP:F9 STACK: 00 00 C6 25 DB AD
DC43  A9 00     LDA #$00                        A:FF X:78 Y:0C P:65 SP:F9 STACK: 00 00 C6 25 DB AD
DC45  85 78     STA $78 = AA                    A:00 X:78 Y:0C P:67 SP:F9 STACK: 00 00 C6 25 DB AD
DC47  20 CE F7  JSR $F7CE                       A:00 X:78 Y:0C P:67 SP:F9 STACK: 00 00 C6 25 DB AD
F7CE  38        SEC                             A:00 X:78 Y:0C P:67 SP:F7 STACK: 00 00 C6 25 DB AD DC 49
F7CF  B8        CLV                             A:00 X:78 Y:0C P:67 SP:F7 STACK: 00 00 C6 25 DB AD DC 49
F7D0  A9 00     LDA #$00                        A:00 X:78 Y:0C P:27 SP:F7 STACK: 00 00 C6 25 DB AD DC 49
F7D2  60        RTS                             A:00 X:78 Y:0C P:27 SP:F7 STACK: 00 00 C6 25 DB AD DC 49
DC4A  15 00     ORA $78,X @ 00F0 = 00           A:00 X:78 Y:0C P:27 SP:F9 STACK: 00 00 C6 25 DB AD
DC4C  20 D3 F7  JSR $F7D3                       A:00 X:78 Y:0C P:27 SP:F9 STACK: 00 00 C6 25 DB AD
F7D3  D0 07     BNE $F7DC                       A:00 X:78 Y:0C P:27 SP:F7 STACK: 00 00 C6 25 DB AD DC 4E
F7D5  70 05     BVS $F7DC                       A:00 X:78 Y:0C P:27 SP:F7 STACK: 00 00 C6 25 DB AD DC 4E
F7D7  90 03     BCC $F7DC                       A:00 X:78 Y:0C P:27 SP:F7 STACK: 00 00 C6 25 DB AD DC 4E
F7D9  30 01     BMI $F7DC                       A:00 X:78 Y:0C P:27 SP:F7 STACK: 00 00 C6 25 DB AD DC 4E
F7DB  60        RTS                             A:00 X:78 Y:0C P:27 SP:F7 STACK: 00 00 C6 25 DB AD DC 4E
DC4F  C8        INY                             A:00 X:78 Y:0C P:27 SP:F9 STACK: 00 00 C6 25 DB AD
DC50  A9 AA     LDA #$AA                        A:00 X:78 Y:0D P:25 SP:F9 STACK: 00 00 C6 25 DB AD
DC52  85 78     STA $78 = 00                    A:AA X:78 Y:0D P:A5 SP:F9 STACK: 00 00 C6 25 DB AD
DC54  20 DF F7  JSR $F7DF                       A:AA X:78 Y:0D P:A5 SP:F9 STACK: 00 00 C6 25 DB AD
F7DF  18        CLC                             A:AA X:78 Y:0D P:A5 SP:F7 STACK: 00 00 C6 25 DB AD DC 56
F7E0  24 01     BIT $01 = FF                    A:AA X:78 Y:0D P:A4 SP:F7 STACK: 00 00 C6 25 DB AD DC 56
F7E2  A9 55     LDA #$55                        A:AA X:78 Y:0D P:E4 SP:F7 STACK: 00 00 C6 25 DB AD DC 56
F7E4  60        RTS                             A:55 X:78 Y:0D P:64 SP:F7 STACK: 00 00 C6 25 DB AD DC 56
DC57  35 00     AND $78,X @ 00F0 = AA           A:55 X:78 Y:0D P:64 SP:F9 STACK: 00 00 C6 25 DB AD
DC59  20 E5 F7  JSR $F7E5                       A:00 X:78 Y:0D P:66 SP:F9 STACK: 00 00 C6 25 DB AD
F7E5  D0 07     BNE $F7EE                       A:00 X:78 Y:0D P:66 SP:F7 STACK: 00 00 C6 25 DB AD DC 5B
F7E7  50 05     BVC $F7EE                       A:00 X:78 Y:0D P:66 SP:F7 STACK: 00 00 C6 25 DB AD DC 5B
F7E9  B0 03     BCS $F7EE                       A:00 X:78 Y:0D P:66 SP:F7 STACK: 00 00 C6 25 DB AD DC 5B
F7EB  30 01     BMI $F7EE                       A:00 X:78 Y:0D P:66 SP:F7 STACK: 00 00 C6 25 DB AD DC 5B
F7ED  60        RTS                             A:00 X:78 Y:0D P:66 SP:F7 STACK: 00 00 C6 25 DB AD DC 5B
DC5C  C8        INY                             A:00 X:78 Y:0D P:66 SP:F9 STACK: 00 00 C6 25 DB AD
DC5D  A9 EF     LDA #$EF                        A:00 X:78 Y:0E P:64 SP:F9 STACK: 00 00 C6 25 DB AD
DC5F  85 78     STA $78 = AA                    A:EF X:78 Y:0E P:E4 SP:F9 STACK: 00 00 C6 25 DB AD
DC61  20 F1 F7  JSR $F7F1                       A:EF X:78 Y:0E P:E4 SP:F9 STACK: 00 00 C6 25 DB AD
F7F1  38        SEC                             A:EF X:78 Y:0E P:E4 SP:F7 STACK: 00 00 C6 25 DB AD DC 63
F7F2  B8        CLV                             A:EF X:78 Y:0E P:E5 SP:F7 STACK: 00 00 C6 25 DB AD DC 63
F7F3  A9 F8     LDA #$F8                        A:EF X:78 Y:0E P:A5 SP:F7 STACK: 00 00 C6 25 DB AD DC 63
F7F5  60        RTS                             A:F8 X:78 Y:0E P:A5 SP:F7 STACK: 00 00 C6 25 DB AD DC 63
DC64  35 00     AND $78,X @ 00F0 = EF           A:F8 X:78 Y:0E P:A5 SP:F9 STACK: 00 00 C6 25 DB AD
DC66  20 F6 F7  JSR $F7F6                       A:E8 X:78 Y:0E P:A5 SP:F9 STACK: 00 00 C6 25 DB AD
F7F6  90 09     BCC $F801                       A:E8 X:78 Y:0E P:A5 SP:F7 STACK: 00 00 C6 25 DB AD DC 68
F7F8  10 07     BPL $F801                       A:E8 X:78 Y:0E P:A5 SP:F7 STACK: 00 00 C6 25 DB AD DC 68
F7FA  C9 E8     CMP #$E8                        A:E8 X:78 Y:0E P:A5 SP:F7 STACK: 00 00 C6 25 DB AD DC 68
F7FC  D0 03     BNE $F801                       A:E8 X:78 Y:0E P:27 SP:F7 STACK: 00 00 C6 25 DB AD DC 68
F7FE  70 01     BVS $F801                       A:E8 X:78 Y:0E P:27 SP:F7 STACK: 00 00 C6 25 DB AD DC 68
F800  60        RTS                             A:E8 X:78 Y:0E P:27 SP:F7 STACK: 00 00 C6 25 DB AD DC 68
DC69  C8        INY                             A:E8 X:78 Y:0E P:27 SP:F9 STACK: 00 00 C6 25 DB AD
DC6A  A9 AA     LDA #$AA                        A:E8 X:78 Y:0F P:25 SP:F9 STACK: 00 00 C6 25 DB AD
DC6C  85 78     STA $78 = EF                    A:AA X:78 Y:0F P:A5 SP:F9 STACK: 00 00 C6 25 DB AD
DC6E  20 04 F8  JSR $F804                       A:AA X:78 Y:0F P:A5 SP:F9 STACK: 00 00 C6 25 DB AD
F804  18        CLC                             A:AA X:78 Y:0F P:A5 SP:F7 STACK: 00 00 C6 25 DB AD DC 70
F805  24 01     BIT $01 = FF                    A:AA X:78 Y:0F P:A4 SP:F7 STACK: 00 00 C6 25 DB AD DC 70
F807  A9 5F     LDA #$5F                        A:AA X:78 Y:0F P:E4 SP:F7 STACK: 00 00 C6 25 DB AD DC 70
F809  60        RTS                             A:5F X:78 Y:0F P:64 SP:F7 STACK: 00 00 C6 25 DB AD DC 70
DC71  55 00     EOR $78,X @ 00F0 = AA           A:5F X:78 Y:0F P:64 SP:F9 STACK: 00 00 C6 25 DB AD
DC73  20 0A F8  JSR $F80A                       A:F5 X:78 Y:0F P:E4 SP:F9 STACK: 00 00 C6 25 DB AD
F80A  B0 09     BCS $F815                       A:F5 X:78 Y:0F P:E4 SP:F7 STACK: 00 00 C6 25 DB AD DC 75
F80C  10 07     BPL $F815                       A:F5 X:78 Y:0F P:E4 SP:F7 STACK: 00 00 C6 25 DB AD DC 75
F80E  C9 F5     CMP #$F5                        A:F5 X:78 Y:0F P:E4 SP:F7 STACK: 00 00 C6 25 DB AD DC 75
F810  D0 03     BNE $F815                       A:F5 X:78 Y:0F P:67 SP:F7 STACK: 00 00 C6 25 DB AD DC 75
F812  50 01     BVC $F815                       A:F5 X:78 Y:0F P:67 SP:F7 STACK: 00 00 C6 25 DB AD DC 75
F814  60        RTS                             A:F5 X:78 Y:0F P:67 SP:F7 STACK: 00 00 C6 25 DB AD DC 75
DC76  C8        INY                             A:F5 X:78 Y:0F P:67 SP:F9 STACK: 00 00 C6 25 DB AD
DC77  A9 70     LDA #$70                        A:F5 X:78 Y:10 P:65 SP:F9 STACK: 00 00 C6 25 DB AD
DC79  85 78     STA $78 = AA                    A:70 X:78 Y:10 P:65 SP:F9 STACK: 00 00 C6 25 DB AD
DC7B  20 18 F8  JSR $F818                       A:70 X:78 Y:10 P:65 SP:F9 STACK: 00 00 C6 25 DB AD
F818  38        SEC                             A:70 X:78 Y:10 P:65 SP:F7 STACK: 00 00 C6 25 DB AD DC 7D
F819  B8        CLV                             A:70 X:78 Y:10 P:65 SP:F7 STACK: 00 00 C6 25 DB AD DC 7D
F81A  A9 70     LDA #$70                        A:70 X:78 Y:10 P:25 SP:F7 STACK: 00 00 C6 25 DB AD DC 7D
F81C  60        RTS                             A:70 X:78 Y:10 P:25 SP:F7 STACK: 00 00 C6 25 DB AD DC 7D
DC7E  55 00     EOR $78,X @ 00F0 = 70           A:70 X:78 Y:10 P:25 SP:F9 STACK: 00 00 C6 25 DB AD
DC80  20 1D F8  JSR $F81D                       A:00 X:78 Y:10 P:27 SP:F9 STACK: 00 00 C6 25 DB AD
F81D  D0 07     BNE $F826                       A:00 X:78 Y:10 P:27 SP:F7 STACK: 00 00 C6 25 DB AD DC 82
F81F  70 05     BVS $F826                       A:00 X:78 Y:10 P:27 SP:F7 STACK: 00 00 C6 25 DB AD DC 82
F821  90 03     BCC $F826                       A:00 X:78 Y:10 P:27 SP:F7 STACK: 00 00 C6 25 DB AD DC 82
F823  30 01     BMI $F826                       A:00 X:78 Y:10 P:27 SP:F7 STACK: 00 00 C6 25 DB AD DC 82
F825  60        RTS                             A:00 X:78 Y:10 P:27 SP:F7 STACK: 00 00 C6 25 DB AD DC 82
DC83  C8        INY                             A:00 X:78 Y:10 P:27 SP:F9 STACK: 00 00 C6 25 DB AD
DC84  A9 69     LDA #$69                        A:00 X:78 Y:11 P:25 SP:F9 STACK: 00 00 C6 25 DB AD
DC86  85 78     STA $78 = 70                    A:69 X:78 Y:11 P:25 SP:F9 STACK: 00 00 C6 25 DB AD
DC88  20 29 F8  JSR $F829                       A:69 X:78 Y:11 P:25 SP:F9 STACK: 00 00 C6 25 DB AD
F829  18        CLC                             A:69 X:78 Y:11 P:25 SP:F7 STACK: 00 00 C6 25 DB AD DC 8A
F82A  24 01     BIT $01 = FF                    A:69 X:78 Y:11 P:24 SP:F7 STACK: 00 00 C6 25 DB AD DC 8A
F82C  A9 00     LDA #$00                        A:69 X:78 Y:11 P:E4 SP:F7 STACK: 00 00 C6 25 DB AD DC 8A
F82E  60        RTS                             A:00 X:78 Y:11 P:66 SP:F7 STACK: 00 00 C6 25 DB AD DC 8A
DC8B  75 00     ADC $78,X @ 00F0 = 69           A:00 X:78 Y:11 P:66 SP:F9 STACK: 00 00 C6 25 DB AD
DC8D  20 2F F8  JSR $F82F                       A:69 X:78 Y:11 P:24 SP:F9 STACK: 00 00 C6 25 DB AD
F82F  30 09     BMI $F83A                       A:69 X:78 Y:11 P:24 SP:F7 STACK: 00 00 C6 25 DB AD DC 8F
F831  B0 07     BCS $F83A                       A:69 X:78 Y:11 P:24 SP:F7 STACK: 00 00 C6 25 DB AD DC 8F
F833  C9 69     CMP #$69                        A:69 X:78 Y:11 P:24 SP:F7 STACK: 00 00 C6 25 DB AD DC 8F
F835  D0 03     BNE $F83A                       A:69 X:78 Y:11 P:27 SP:F7 STACK: 00 00 C6 25 DB AD DC 8F
F837  70 01     BVS $F83A                       A:69 X:78 Y:11 P:27 SP:F7 STACK: 00 00 C6 25 DB AD DC 8F
F839  60        RTS                             A:69 X:78 Y:11 P:27 SP:F7 STACK: 00 00 C6 25 DB AD DC 8F
DC90  C8        INY                             A:69 X:78 Y:11 P:27 SP:F9 STACK: 00 00 C6 25 DB AD
DC91  20 3D F8  JSR $F83D                       A:69 X:78 Y:12 P:25 SP:F9 STACK: 00 00 C6 25 DB AD
F83D  38        SEC                             A:69 X:78 Y:12 P:25 SP:F7 STACK: 00 00 C6 25 DB AD DC 93
F83E  24 01     BIT $01 = FF                    A:69 X:78 Y:12 P:25 SP:F7 STACK: 00 00 C6 25 DB AD DC 93
F840  A9 00     LDA #$00                        A:69 X:78 Y:12 P:E5 SP:F7 STACK: 00 00 C6 25 DB AD DC 93
F842  60        RTS                             A:00 X:78 Y:12 P:67 SP:F7 STACK: 00 00 C6 25 DB AD DC 93
DC94  75 00     ADC $78,X @ 00F0 = 69           A:00 X:78 Y:12 P:67 SP:F9 STACK: 00 00 C6 25 DB AD
DC96  20 43 F8  JSR $F843                       A:6A X:78 Y:12 P:24 SP:F9 STACK: 00 00 C6 25 DB AD
F843  30 09     BMI $F84E                       A:6A X:78 Y:12 P:24 SP:F7 STACK: 00 00 C6 25 DB AD DC 98
F845  B0 07     BCS $F84E                       A:6A X:78 Y:12 P:24 SP:F7 STACK: 00 00 C6 25 DB AD DC 98
F847  C9 6A     CMP #$6A                        A:6A X:78 Y:12 P:24 SP:F7 STACK: 00 00 C6 25 DB AD DC 98
F849  D0 03     BNE $F84E                       A:6A X:78 Y:12 P:27 SP:F7 STACK: 00 00 C6 25 DB AD DC 98
F84B  70 01     BVS $F84E                       A:6A X:78 Y:12 P:27 SP:F7 STACK: 00 00 C6 25 DB AD DC 98
F84D  60        RTS                             A:6A X:78 Y:12 P:27 SP:F7 STACK: 00 00 C6 25 DB AD DC 98
DC99  C8        INY                             A:6A X:78 Y:12 P:27 SP:F9 STACK: 00 00 C6 25 DB AD
DC9A  A9 7F     LDA #$7F                        A:6A X:78 Y:13 P:25 SP:F9 STACK: 00 00 C6 25 DB AD
DC9C  85 78     STA $78 = 69                    A:7F X:78 Y:13 P:25 SP:F9 STACK: 00 00 C6 25 DB AD
DC9E  20 51 F8  JSR $F851                       A:7F X:78 Y:13 P:25 SP:F9 STACK: 00 00 C6 25 DB AD
F851  38        SEC                             A:7F X:78 Y:13 P:25 SP:F7 STACK: 00 00 C6 25 DB AD DC A0
F852  B8        CLV                             A:7F X:78 Y:13 P:25 SP:F7 STACK: 00 00 C6 25 DB AD DC A0
F853  A9 7F     LDA #$7F                        A:7F X:78 Y:13 P:25 SP:F7 STACK: 00 00 C6 25 DB AD DC A0
F855  60        RTS                             A:7F X:78 Y:13 P:25 SP:F7 STACK: 00 00 C6 25 DB AD DC A0
DCA1  75 00     ADC $78,X @ 00F0 = 7F           A:7F X:78 Y:13 P:25 SP:F9 STACK: 00 00 C6 25 DB AD
DCA3  20 56 F8  JSR $F856                       A:FF X:78 Y:13 P:E4 SP:F9 STACK: 00 00 C6 25 DB AD
F856  10 09     BPL $F861                       A:FF X:78 Y:13 P:E4 SP:F7 STACK: 00 00 C6 25 DB AD DC A5
F858  B0 07     BCS $F861                       A:FF X:78 Y:13 P:E4 SP:F7 STACK: 00 00 C6 25 DB AD DC A5
F85A  C9 FF     CMP #$FF                        A:FF X:78 Y:13 P:E4 SP:F7 STACK: 00 00 C6 25 DB AD DC A5
F85C  D0 03     BNE $F861                       A:FF X:78 Y:13 P:67 SP:F7 STACK: 00 00 C6 25 DB AD DC A5
F85E  50 01     BVC $F861                       A:FF X:78 Y:13 P:67 SP:F7 STACK: 00 00 C6 25 DB AD DC A5
F860  60        RTS                             A:FF X:78 Y:13 P:67 SP:F7 STACK: 00 00 C6 25 DB AD DC A5
DCA6  C8        INY                             A:FF X:78 Y:13 P:67 SP:F9 STACK: 00 00 C6 25 DB AD
DCA7  A9 80     LDA #$80                        A:FF X:78 Y:14 P:65 SP:F9 STACK: 00 00 C6 25 DB AD
DCA9  85 78     STA $78 = 7F                    A:80 X:78 Y:14 P:E5 SP:F9 STACK: 00 00 C6 25 DB AD
DCAB  20 64 F8  JSR $F864                       A:80 X:78 Y:14 P:E5 SP:F9 STACK: 00 00 C6 25 DB AD
F864  18        CLC                             A:80 X:78 Y:14 P:E5 SP:F7 STACK: 00 00 C6 25 DB AD DC AD
F865  24 01     BIT $01 = FF                    A:80 X:78 Y:14 P:E4 SP:F7 STACK: 00 00 C6 25 DB AD DC AD
F867  A9 7F     LDA #$7F                        A:80 X:78 Y:14 P:E4 SP:F7 STACK: 00 00 C6 25 DB AD DC AD
F869  60        RTS                             A:7F X:78 Y:14 P:64 SP:F7 STACK: 00 00 C6 25 DB AD DC AD
DCAE  75 00     ADC $78,X @ 00F0 = 80           A:7F X:78 Y:14 P:64 SP:F9 STACK: 00 00 C6 25 DB AD
DCB0  20 6A F8  JSR $F86A                       A:FF X:78 Y:14 P:A4 SP:F9 STACK: 00 00 C6 25 DB AD
F86A  10 09     BPL $F875                       A:FF X:78 Y:14 P:A4 SP:F7 STACK: 00 00 C6 25 DB AD DC B2
F86C  B0 07     BCS $F875                       A:FF X:78 Y:14 P:A4 SP:F7 STACK: 00 00 C6 25 DB AD DC B2
F86E  C9 FF     CMP #$FF                        A:FF X:78 Y:14 P:A4 SP:F7 STACK: 00 00 C6 25 DB AD DC B2
F870  D0 03     BNE $F875                       A:FF X:78 Y:14 P:27 SP:F7 STACK: 00 00 C6 25 DB AD DC B2
F872  70 01     BVS $F875                       A:FF X:78 Y:14 P:27 SP:F7 STACK: 00 00 C6 25 DB AD DC B2
F874  60        RTS                             A:FF X:78 Y:14 P:27 SP:F7 STACK: 00 00 C6 25 DB AD DC B2
DCB3  C8        INY                             A:FF X:78 Y:14 P:27 SP:F9 STACK: 00 00 C6 25 DB AD
DCB4  20 78 F8  JSR $F878                       A:FF X:78 Y:15 P:25 SP:F9 STACK: 00 00 C6 25 DB AD
F878  38        SEC                             A:FF X:78 Y:15 P:25 SP:F7 STACK: 00 00 C6 25 DB AD DC B6
F879  B8        CLV                             A:FF X:78 Y:15 P:25 SP:F7 STACK: 00 00 C6 25 DB AD DC B6
F87A  A9 7F     LDA #$7F                        A:FF X:78 Y:15 P:25 SP:F7 STACK: 00 00 C6 25 DB AD DC B6
F87C  60        RTS                             A:7F X:78 Y:15 P:25 SP:F7 STACK: 00 00 C6 25 DB AD DC B6
DCB7  75 00     ADC $78,X @ 00F0 = 80           A:7F X:78 Y:15 P:25 SP:F9 STACK: 00 00 C6 25 DB AD
DCB9  20 7D F8  JSR $F87D                       A:00 X:78 Y:15 P:27 SP:F9 STACK: 00 00 C6 25 DB AD
F87D  D0 07     BNE $F886                       A:00 X:78 Y:15 P:27 SP:F7 STACK: 00 00 C6 25 DB AD DC BB
F87F  30 05     BMI $F886                       A:00 X:78 Y:15 P:27 SP:F7 STACK: 00 00 C6 25 DB AD DC BB
F881  70 03     BVS $F886                       A:00 X:78 Y:15 P:27 SP:F7 STACK: 00 00 C6 25 DB AD DC BB
F883  90 01     BCC $F886                       A:00 X:78 Y:15 P:27 SP:F7 STACK: 00 00 C6 25 DB AD DC BB
F885  60        RTS                             A:00 X:78 Y:15 P:27 SP:F7 STACK: 00 00 C6 25 DB AD DC BB
DCBC  C8        INY                             A:00 X:78 Y:15 P:27 SP:F9 STACK: 00 00 C6 25 DB AD
DCBD  A9 40     LDA #$40                        A:00 X:78 Y:16 P:25 SP:F9 STACK: 00 00 C6 25 DB AD
DCBF  85 78     STA $78 = 80                    A:40 X:78 Y:16 P:25 SP:F9 STACK: 00 00 C6 25 DB AD
DCC1  20 89 F8  JSR $F889                       A:40 X:78 Y:16 P:25 SP:F9 STACK: 00 00 C6 25 DB AD
F889  24 01     BIT $01 = FF                    A:40 X:78 Y:16 P:25 SP:F7 STACK: 00 00 C6 25 DB AD DC C3
F88B  A9 40     LDA #$40                        A:40 X:78 Y:16 P:E5 SP:F7 STACK: 00 00 C6 25 DB AD DC C3
F88D  60        RTS                             A:40 X:78 Y:16 P:65 SP:F7 STACK: 00 00 C6 25 DB AD DC C3
DCC4  D5 00     CMP $78,X @ 00F0 = 40           A:40 X:78 Y:16 P:65 SP:F9 STACK: 00 00 C6 25 DB AD
DCC6  20 8E F8  JSR $F88E                       A:40 X:78 Y:16 P:67 SP:F9 STACK: 00 00 C6 25 DB AD
F88E  30 07     BMI $F897                       A:40 X:78 Y:16 P:67 SP:F7 STACK: 00 00 C6 25 DB AD DC C8
F890  90 05     BCC $F897                       A:40 X:78 Y:16 P:67 SP:F7 STACK: 00 00 C6 25 DB AD DC C8
F892  D0 03     BNE $F897                       A:40 X:78 Y:16 P:67 SP:F7 STACK: 00 00 C6 25 DB AD DC C8
F894  50 01     BVC $F897                       A:40 X:78 Y:16 P:67 SP:F7 STACK: 00 00 C6 25 DB AD DC C8
F896  60        RTS                             A:40 X:78 Y:16 P:67 SP:F7 STACK: 00 00 C6 25 DB AD DC C8
DCC9  C8        INY                             A:40 X:78 Y:16 P:67 SP:F9 STACK: 00 00 C6 25 DB AD
DCCA  48        PHA                             A:40 X:78 Y:17 P:65 SP:F9 STACK: 00 00 C6 25 DB AD
DCCB  A9 3F     LDA #$3F                        A:40 X:78 Y:17 P:65 SP:F8 STACK: 00 00 C6 25 DB AD 40
DCCD  85 78     STA $78 = 40                    A:3F X:78 Y:17 P:65 SP:F8 STACK: 00 00 C6 25 DB AD 40
DCCF  68        PLA                             A:3F X:78 Y:17 P:65 SP:F8 STACK: 00 00 C6 25 DB AD 40
DCD0  20 9A F8  JSR $F89A                       A:40 X:78 Y:17 P:65 SP:F9 STACK: 00 00 C6 25 DB AD
F89A  B8        CLV                             A:40 X:78 Y:17 P:65 SP:F7 STACK: 00 00 C6 25 DB AD DC D2
F89B  60        RTS                             A:40 X:78 Y:17 P:25 SP:F7 STACK: 00 00 C6 25 DB AD DC D2
DCD3  D5 00     CMP $78,X @ 00F0 = 3F           A:40 X:78 Y:17 P:25 SP:F9 STACK: 00 00 C6 25 DB AD
DCD5  20 9C F8  JSR $F89C                       A:40 X:78 Y:17 P:25 SP:F9 STACK: 00 00 C6 25 DB AD
F89C  F0 07     BEQ $F8A5                       A:40 X:78 Y:17 P:25 SP:F7 STACK: 00 00 C6 25 DB AD DC D7
F89E  30 05     BMI $F8A5                       A:40 X:78 Y:17 P:25 SP:F7 STACK: 00 00 C6 25 DB AD DC D7
F8A0  90 03     BCC $F8A5                       A:40 X:78 Y:17 P:25 SP:F7 STACK: 00 00 C6 25 DB AD DC D7
F8A2  70 01     BVS $F8A5                       A:40 X:78 Y:17 P:25 SP:F7 STACK: 00 00 C6 25 DB AD DC D7
F8A4  60        RTS                             A:40 X:78 Y:17 P:25 SP:F7 STACK: 00 00 C6 25 DB AD DC D7
DCD8  C8        INY                             A:40 X:78 Y:17 P:25 SP:F9 STACK: 00 00 C6 25 DB AD
DCD9  48        PHA                             A:40 X:78 Y:18 P:25 SP:F9 STACK: 00 00 C6 25 DB AD
DCDA  A9 41     LDA #$41                        A:40 X:78 Y:18 P:25 SP:F8 STACK: 00 00 C6 25 DB AD 40
DCDC  85 78     STA $78 = 3F                    A:41 X:78 Y:18 P:25 SP:F8 STACK: 00 00 C6 25 DB AD 40
DCDE  68        PLA                             A:41 X:78 Y:18 P:25 SP:F8 STACK: 00 00 C6 25 DB AD 40
DCDF  D5 00     CMP $78,X @ 00F0 = 41           A:40 X:78 Y:18 P:25 SP:F9 STACK: 00 00 C6 25 DB AD
DCE1  20 A8 F8  JSR $F8A8                       A:40 X:78 Y:18 P:A4 SP:F9 STACK: 00 00 C6 25 DB AD
F8A8  F0 05     BEQ $F8AF                       A:40 X:78 Y:18 P:A4 SP:F7 STACK: 00 00 C6 25 DB AD DC E3
F8AA  10 03     BPL $F8AF                       A:40 X:78 Y:18 P:A4 SP:F7 STACK: 00 00 C6 25 DB AD DC E3
F8AC  10 01     BPL $F8AF                       A:40 X:78 Y:18 P:A4 SP:F7 STACK: 00 00 C6 25 DB AD DC E3
F8AE  60        RTS                             A:40 X:78 Y:18 P:A4 SP:F7 STACK: 00 00 C6 25 DB AD DC E3
DCE4  C8        INY                             A:40 X:78 Y:18 P:A4 SP:F9 STACK: 00 00 C6 25 DB AD
DCE5  48        PHA                             A:40 X:78 Y:19 P:24 SP:F9 STACK: 00 00 C6 25 DB AD
DCE6  A9 00     LDA #$00                        A:40 X:78 Y:19 P:24 SP:F8 STACK: 00 00 C6 25 DB AD 40
DCE8  85 78     STA $78 = 41                    A:00 X:78 Y:19 P:26 SP:F8 STACK: 00 00 C6 25 DB AD 40
DCEA  68        PLA                             A:00 X:78 Y:19 P:26 SP:F8 STACK: 00 00 C6 25 DB AD 40
DCEB  20 B2 F8  JSR $F8B2                       A:40 X:78 Y:19 P:24 SP:F9 STACK: 00 00 C6 25 DB AD
F8B2  A9 80     LDA #$80                        A:40 X:78 Y:19 P:24 SP:F7 STACK: 00 00 C6 25 DB AD DC ED
F8B4  60        RTS                             A:80 X:78 Y:19 P:A4 SP:F7 STACK: 00 00 C6 25 DB AD DC ED
DCEE  D5 00     CMP $78,X @ 00F0 = 00           A:80 X:78 Y:19 P:A4 SP:F9 STACK: 00 00 C6 25 DB AD
DCF0  20 B5 F8  JSR $F8B5                       A:80 X:78 Y:19 P:A5 SP:F9 STACK: 00 00 C6 25 DB AD
F8B5  F0 05     BEQ $F8BC                       A:80 X:78 Y:19 P:A5 SP:F7 STACK: 00 00 C6 25 DB AD DC F2
F8B7  10 03     BPL $F8BC                       A:80 X:78 Y:19 P:A5 SP:F7 STACK: 00 00 C6 25 DB AD DC F2
F8B9  90 01     BCC $F8BC                       A:80 X:78 Y:19 P:A5 SP:F7 STACK: 00 00 C6 25 DB AD DC F2
F8BB  60        RTS                             A:80 X:78 Y:19 P:A5 SP:F7 STACK: 00 00 C6 25 DB AD DC F2
DCF3  C8        INY                             A:80 X:78 Y:19 P:A5 SP:F9 STACK: 00 00 C6 25 DB AD
DCF4  48        PHA                             A:80 X:78 Y:1A P:25 SP:F9 STACK: 00 00 C6 25 DB AD
DCF5  A9 80     LDA #$80                        A:80 X:78 Y:1A P:25 SP:F8 STACK: 00 00 C6 25 DB AD 80
DCF7  85 78     STA $78 = 00                    A:80 X:78 Y:1A P:A5 SP:F8 STACK: 00 00 C6 25 DB AD 80
DCF9  68        PLA                             A:80 X:78 Y:1A P:A5 SP:F8 STACK: 00 00 C6 25 DB AD 80
DCFA  D5 00     CMP $78,X @ 00F0 = 80           A:80 X:78 Y:1A P:A5 SP:F9 STACK: 00 00 C6 25 DB AD
DCFC  20 BF F8  JSR $F8BF                       A:80 X:78 Y:1A P:27 SP:F9 STACK: 00 00 C6 25 DB AD
F8BF  D0 05     BNE $F8C6                       A:80 X:78 Y:1A P:27 SP:F7 STACK: 00 00 C6 25 DB AD DC FE
F8C1  30 03     BMI $F8C6                       A:80 X:78 Y:1A P:27 SP:F7 STACK: 00 00 C6 25 DB AD DC FE
F8C3  90 01     BCC $F8C6                       A:80 X:78 Y:1A P:27 SP:F7 STACK: 00 00 C6 25 DB AD DC FE
F8C5  60        RTS                             A:80 X:78 Y:1A P:27 SP:F7 STACK: 00 00 C6 25 DB AD DC FE
DCFF  C8        INY                             A:80 X:78 Y:1A P:27 SP:F9 STACK: 00 00 C6 25 DB AD
DD00  48        PHA                             A:80 X:78 Y:1B P:25 SP:F9 STACK: 00 00 C6 25 DB AD
DD01  A9 81     LDA #$81                        A:80 X:78 Y:1B P:25 SP:F8 STACK: 00 00 C6 25 DB AD 80
DD03  85 78     STA $78 = 80                    A:81 X:78 Y:1B P:A5 SP:F8 STACK: 00 00 C6 25 DB AD 80
DD05  68        PLA                             A:81 X:78 Y:1B P:A5 SP:F8 STACK: 00 00 C6 25 DB AD 80
DD06  D5 00     CMP $78,X @ 00F0 = 81           A:80 X:78 Y:1B P:A5 SP:F9 STACK: 00 00 C6 25 DB AD
DD08  20 C9 F8  JSR $F8C9                       A:80 X:78 Y:1B P:A4 SP:F9 STACK: 00 00 C6 25 DB AD
F8C9  B0 05     BCS $F8D0                       A:80 X:78 Y:1B P:A4 SP:F7 STACK: 00 00 C6 25 DB AD DD 0A
F8CB  F0 03     BEQ $F8D0                       A:80 X:78 Y:1B P:A4 SP:F7 STACK: 00 00 C6 25 DB AD DD 0A
F8CD  10 01     BPL $F8D0                       A:80 X:78 Y:1B P:A4 SP:F7 STACK: 00 00 C6 25 DB AD DD 0A
F8CF  60        RTS                             A:80 X:78 Y:1B P:A4 SP:F7 STACK: 00 00 C6 25 DB AD DD 0A
DD0B  C8        INY                             A:80 X:78 Y:1B P:A4 SP:F9 STACK: 00 00 C6 25 DB AD
DD0C  48        PHA                             A:80 X:78 Y:1C P:24 SP:F9 STACK: 00 00 C6 25 DB AD
DD0D  A9 7F     LDA #$7F                        A:80 X:78 Y:1C P:24 SP:F8 STACK: 00 00 C6 25 DB AD 80
DD0F  85 78     STA $78 = 81                    A:7F X:78 Y:1C P:24 SP:F8 STACK: 00 00 C6 25 DB AD 80
DD11  68        PLA                             A:7F X:78 Y:1C P:24 SP:F8 STACK: 00 00 C6 25 DB AD 80
DD12  D5 00     CMP $78,X @ 00F0 = 7F           A:80 X:78 Y:1C P:A4 SP:F9 STACK: 00 00 C6 25 DB AD
DD14  20 D3 F8  JSR $F8D3                       A:80 X:78 Y:1C P:25 SP:F9 STACK: 00 00 C6 25 DB AD
F8D3  90 05     BCC $F8DA                       A:80 X:78 Y:1C P:25 SP:F7 STACK: 00 00 C6 25 DB AD DD 16
F8D5  F0 03     BEQ $F8DA                       A:80 X:78 Y:1C P:25 SP:F7 STACK: 00 00 C6 25 DB AD DD 16
F8D7  30 01     BMI $F8DA                       A:80 X:78 Y:1C P:25 SP:F7 STACK: 00 00 C6 25 DB AD DD 16
F8D9  60        RTS                             A:80 X:78 Y:1C P:25 SP:F7 STACK: 00 00 C6 25 DB AD DD 16
DD17  C8        INY                             A:80 X:78 Y:1C P:25 SP:F9 STACK: 00 00 C6 25 DB AD
DD18  A9 40     LDA #$40                        A:80 X:78 Y:1D P:25 SP:F9 STACK: 00 00 C6 25 DB AD
DD1A  85 78     STA $78 = 7F                    A:40 X:78 Y:1D P:25 SP:F9 STACK: 00 00 C6 25 DB AD
DD1C  20 31 F9  JSR $F931                       A:40 X:78 Y:1D P:25 SP:F9 STACK: 00 00 C6 25 DB AD
F931  24 01     BIT $01 = FF                    A:40 X:78 Y:1D P:25 SP:F7 STACK: 00 00 C6 25 DB AD DD 1E
F933  A9 40     LDA #$40                        A:40 X:78 Y:1D P:E5 SP:F7 STACK: 00 00 C6 25 DB AD DD 1E
F935  38        SEC                             A:40 X:78 Y:1D P:65 SP:F7 STACK: 00 00 C6 25 DB AD DD 1E
F936  60        RTS                             A:40 X:78 Y:1D P:65 SP:F7 STACK: 00 00 C6 25 DB AD DD 1E
DD1F  F5 00     SBC $78,X @ 00F0 = 40           A:40 X:78 Y:1D P:65 SP:F9 STACK: 00 00 C6 25 DB AD
DD21  20 37 F9  JSR $F937                       A:00 X:78 Y:1D P:27 SP:F9 STACK: 00 00 C6 25 DB AD
F937  30 0B     BMI $F944                       A:00 X:78 Y:1D P:27 SP:F7 STACK: 00 00 C6 25 DB AD DD 23
F939  90 09     BCC $F944                       A:00 X:78 Y:1D P:27 SP:F7 STACK: 00 00 C6 25 DB AD DD 23
F93B  D0 07     BNE $F944                       A:00 X:78 Y:1D P:27 SP:F7 STACK: 00 00 C6 25 DB AD DD 23
F93D  70 05     BVS $F944                       A:00 X:78 Y:1D P:27 SP:F7 STACK: 00 00 C6 25 DB AD DD 23
F93F  C9 00     CMP #$00                        A:00 X:78 Y:1D P:27 SP:F7 STACK: 00 00 C6 25 DB AD DD 23
F941  D0 01     BNE $F944                       A:00 X:78 Y:1D P:27 SP:F7 STACK: 00 00 C6 25 DB AD DD 23
F943  60        RTS                             A:00 X:78 Y:1D P:27 SP:F7 STACK: 00 00 C6 25 DB AD DD 23
DD24  C8        INY                             A:00 X:78 Y:1D P:27 SP:F9 STACK: 00 00 C6 25 DB AD
DD25  A9 3F     LDA #$3F                        A:00 X:78 Y:1E P:25 SP:F9 STACK: 00 00 C6 25 DB AD
DD27  85 78     STA $78 = 40                    A:3F X:78 Y:1E P:25 SP:F9 STACK: 00 00 C6 25 DB AD
DD29  20 47 F9  JSR $F947                       A:3F X:78 Y:1E P:25 SP:F9 STACK: 00 00 C6 25 DB AD
F947  B8        CLV                             A:3F X:78 Y:1E P:25 SP:F7 STACK: 00 00 C6 25 DB AD DD 2B
F948  38        SEC                             A:3F X:78 Y:1E P:25 SP:F7 STACK: 00 00 C6 25 DB AD DD 2B
F949  A9 40     LDA #$40                        A:3F X:78 Y:1E P:25 SP:F7 STACK: 00 00 C6 25 DB AD DD 2B
F94B  60        RTS                             A:40 X:78 Y:1E P:25 SP:F7 STACK: 00 00 C6 25 DB AD DD 2B
DD2C  F5 00     SBC $78,X @ 00F0 = 3F           A:40 X:78 Y:1E P:25 SP:F9 STACK: 00 00 C6 25 DB AD
DD2E  20 4C F9  JSR $F94C                       A:01 X:78 Y:1E P:25 SP:F9 STACK: 00 00 C6 25 DB AD
F94C  F0 0B     BEQ $F959                       A:01 X:78 Y:1E P:25 SP:F7 STACK: 00 00 C6 25 DB AD DD 30
F94E  30 09     BMI $F959                       A:01 X:78 Y:1E P:25 SP:F7 STACK: 00 00 C6 25 DB AD DD 30
F950  90 07     BCC $F959                       A:01 X:78 Y:1E P:25 SP:F7 STACK: 00 00 C6 25 DB AD DD 30
F952  70 05     BVS $F959                       A:01 X:78 Y:1E P:25 SP:F7 STACK: 00 00 C6 25 DB AD DD 30
F954  C9 01     CMP #$01                        A:01 X:78 Y:1E P:25 SP:F7 STACK: 00 00 C6 25 DB AD DD 30
F956  D0 01     BNE $F959                       A:01 X:78 Y:1E P:27 SP:F7 STACK: 00 00 C6 25 DB AD DD 30
F958  60        RTS                             A:01 X:78 Y:1E P:27 SP:F7 STACK: 00 00 C6 25 DB AD DD 30
DD31  C8        INY                             A:01 X:78 Y:1E P:27 SP:F9 STACK: 00 00 C6 25 DB AD
DD32  A9 41     LDA #$41                        A:01 X:78 Y:1F P:25 SP:F9 STACK: 00 00 C6 25 DB AD
DD34  85 78     STA $78 = 3F                    A:41 X:78 Y:1F P:25 SP:F9 STACK: 00 00 C6 25 DB AD
DD36  20 5C F9  JSR $F95C                       A:41 X:78 Y:1F P:25 SP:F9 STACK: 00 00 C6 25 DB AD
F95C  A9 40     LDA #$40                        A:41 X:78 Y:1F P:25 SP:F7 STACK: 00 00 C6 25 DB AD DD 38
F95E  38        SEC                             A:40 X:78 Y:1F P:25 SP:F7 STACK: 00 00 C6 25 DB AD DD 38
F95F  24 01     BIT $01 = FF                    A:40 X:78 Y:1F P:25 SP:F7 STACK: 00 00 C6 25 DB AD DD 38
F961  60        RTS                             A:40 X:78 Y:1F P:E5 SP:F7 STACK: 00 00 C6 25 DB AD DD 38
DD39  F5 00     SBC $78,X @ 00F0 = 41           A:40 X:78 Y:1F P:E5 SP:F9 STACK: 00 00 C6 25 DB AD
DD3B  20 62 F9  JSR $F962                       A:FF X:78 Y:1F P:A4 SP:F9 STACK: 00 00 C6 25 DB AD
F962  B0 0B     BCS $F96F                       A:FF X:78 Y:1F P:A4 SP:F7 STACK: 00 00 C6 25 DB AD DD 3D
F964  F0 09     BEQ $F96F                       A:FF X:78 Y:1F P:A4 SP:F7 STACK: 00 00 C6 25 DB AD DD 3D
F966  10 07     BPL $F96F                       A:FF X:78 Y:1F P:A4 SP:F7 STACK: 00 00 C6 25 DB AD DD 3D
F968  70 05     BVS $F96F                       A:FF X:78 Y:1F P:A4 SP:F7 STACK: 00 00 C6 25 DB AD DD 3D
F96A  C9 FF     CMP #$FF                        A:FF X:78 Y:1F P:A4 SP:F7 STACK: 00 00 C6 25 DB AD DD 3D
F96C  D0 01     BNE $F96F                       A:FF X:78 Y:1F P:27 SP:F7 STACK: 00 00 C6 25 DB AD DD 3D
F96E  60        RTS                             A:FF X:78 Y:1F P:27 SP:F7 STACK: 00 00 C6 25 DB AD DD 3D
DD3E  C8        INY                             A:FF X:78 Y:1F P:27 SP:F9 STACK: 00 00 C6 25 DB AD
DD3F  A9 00     LDA #$00                        A:FF X:78 Y:20 P:25 SP:F9 STACK: 00 00 C6 25 DB AD
DD41  85 78     STA $78 = 41                    A:00 X:78 Y:20 P:27 SP:F9 STACK: 00 00 C6 25 DB AD
DD43  20 72 F9  JSR $F972                       A:00 X:78 Y:20 P:27 SP:F9 STACK: 00 00 C6 25 DB AD
F972  18        CLC                             A:00 X:78 Y:20 P:27 SP:F7 STACK: 00 00 C6 25 DB AD DD 45
F973  A9 80     LDA #$80                        A:00 X:78 Y:20 P:26 SP:F7 STACK: 00 00 C6 25 DB AD DD 45
F975  60        RTS                             A:80 X:78 Y:20 P:A4 SP:F7 STACK: 00 00 C6 25 DB AD DD 45
DD46  F5 00     SBC $78,X @ 00F0 = 00           A:80 X:78 Y:20 P:A4 SP:F9 STACK: 00 00 C6 25 DB AD
DD48  20 76 F9  JSR $F976                       A:7F X:78 Y:20 P:65 SP:F9 STACK: 00 00 C6 25 DB AD
F976  90 05     BCC $F97D                       A:7F X:78 Y:20 P:65 SP:F7 STACK: 00 00 C6 25 DB AD DD 4A
F978  C9 7F     CMP #$7F                        A:7F X:78 Y:20 P:65 SP:F7 STACK: 00 00 C6 25 DB AD DD 4A
F97A  D0 01     BNE $F97D                       A:7F X:78 Y:20 P:67 SP:F7 STACK: 00 00 C6 25 DB AD DD 4A
F97C  60        RTS                             A:7F X:78 Y:20 P:67 SP:F7 STACK: 00 00 C6 25 DB AD DD 4A
DD4B  C8        INY                             A:7F X:78 Y:20 P:67 SP:F9 STACK: 00 00 C6 25 DB AD
DD4C  A9 7F     LDA #$7F                        A:7F X:78 Y:21 P:65 SP:F9 STACK: 00 00 C6 25 DB AD
DD4E  85 78     STA $78 = 00                    A:7F X:78 Y:21 P:65 SP:F9 STACK: 00 00 C6 25 DB AD
DD50  20 80 F9  JSR $F980                       A:7F X:78 Y:21 P:65 SP:F9 STACK: 00 00 C6 25 DB AD
F980  38        SEC                             A:7F X:78 Y:21 P:65 SP:F7 STACK: 00 00 C6 25 DB AD DD 52
F981  A9 81     LDA #$81                        A:7F X:78 Y:21 P:65 SP:F7 STACK: 00 00 C6 25 DB AD DD 52
F983  60        RTS                             A:81 X:78 Y:21 P:E5 SP:F7 STACK: 00 00 C6 25 DB AD DD 52
DD53  F5 00     SBC $78,X @ 00F0 = 7F           A:81 X:78 Y:21 P:E5 SP:F9 STACK: 00 00 C6 25 DB AD
DD55  20 84 F9  JSR $F984                       A:02 X:78 Y:21 P:65 SP:F9 STACK: 00 00 C6 25 DB AD
F984  50 07     BVC $F98D                       A:02 X:78 Y:21 P:65 SP:F7 STACK: 00 00 C6 25 DB AD DD 57
F986  90 05     BCC $F98D                       A:02 X:78 Y:21 P:65 SP:F7 STACK: 00 00 C6 25 DB AD DD 57
F988  C9 02     CMP #$02                        A:02 X:78 Y:21 P:65 SP:F7 STACK: 00 00 C6 25 DB AD DD 57
F98A  D0 01     BNE $F98D                       A:02 X:78 Y:21 P:67 SP:F7 STACK: 00 00 C6 25 DB AD DD 57
F98C  60        RTS                             A:02 X:78 Y:21 P:67 SP:F7 STACK: 00 00 C6 25 DB AD DD 57
DD58  A9 AA     LDA #$AA                        A:02 X:78 Y:21 P:67 SP:F9 STACK: 00 00 C6 25 DB AD
DD5A  85 33     STA $33 = 44                    A:AA X:78 Y:21 P:E5 SP:F9 STACK: 00 00 C6 25 DB AD
DD5C  A9 BB     LDA #$BB                        A:AA X:78 Y:21 P:E5 SP:F9 STACK: 00 00 C6 25 DB AD
DD5E  85 89     STA $89 = BB                    A:BB X:78 Y:21 P:E5 SP:F9 STACK: 00 00 C6 25 DB AD
DD60  A2 00     LDX #$00                        A:BB X:78 Y:21 P:E5 SP:F9 STACK: 00 00 C6 25 DB AD
DD62  A0 66     LDY #$66                        A:BB X:00 Y:21 P:67 SP:F9 STACK: 00 00 C6 25 DB AD
DD64  24 01     BIT $01 = FF                    A:BB X:00 Y:66 P:65 SP:F9 STACK: 00 00 C6 25 DB AD
DD66  38        SEC                             A:BB X:00 Y:66 P:E5 SP:F9 STACK: 00 00 C6 25 DB AD
DD67  A9 00     LDA #$00                        A:BB X:00 Y:66 P:E5 SP:F9 STACK: 00 00 C6 25 DB AD
DD69  B5 33     LDA $33,X @ 0033 = AA           A:00 X:00 Y:66 P:67 SP:F9 STACK: 00 00 C6 25 DB AD
DD6B  10 12     BPL $DD7F                       A:AA X:00 Y:66 P:E5 SP:F9 STACK: 00 00 C6 25 DB AD
DD6D  F0 10     BEQ $DD7F                       A:AA X:00 Y:66 P:E5 SP:F9 STACK: 00 00 C6 25 DB AD
DD6F  50 0E     BVC $DD7F                       A:AA X:00 Y:66 P:E5 SP:F9 STACK: 00 00 C6 25 DB AD
DD71  90 0C     BCC $DD7F                       A:AA X:00 Y:66 P:E5 SP:F9 STACK: 00 00 C6 25 DB AD
DD73  C0 66     CPY #$66                        A:AA X:00 Y:66 P:E5 SP:F9 STACK: 00 00 C6 25 DB AD
DD75  D0 08     BNE $DD7F                       A:AA X:00 Y:66 P:67 SP:F9 STACK: 00 00 C6 25 DB AD
DD77  E0 00     CPX #$00                        A:AA X:00 Y:66 P:67 SP:F9 STACK: 00 00 C6 25 DB AD
DD79  D0 04     BNE $DD7F                       A:AA X:00 Y:66 P:67 SP:F9 STACK: 00 00 C6 25 DB AD
DD7B  C9 AA     CMP #$AA                        A:AA X:00 Y:66 P:67 SP:F9 STACK: 00 00 C6 25 DB AD
DD7D  F0 04     BEQ $DD83                       A:AA X:00 Y:66 P:67 SP:F9 STACK: 00 00 C6 25 DB AD
DD83  A2 8A     LDX #$8A                        A:AA X:00 Y:66 P:67 SP:F9 STACK: 00 00 C6 25 DB AD
DD85  A0 66     LDY #$66                        A:AA X:8A Y:66 P:E5 SP:F9 STACK: 00 00 C6 25 DB AD
DD87  B8        CLV                             A:AA X:8A Y:66 P:65 SP:F9 STACK: 00 00 C6 25 DB AD
DD88  18        CLC                             A:AA X:8A Y:66 P:25 SP:F9 STACK: 00 00 C6 25 DB AD
DD89  A9 00     LDA #$00                        A:AA X:8A Y:66 P:24 SP:F9 STACK: 00 00 C6 25 DB AD
DD8B  B5 FF     LDA $89,X @ 0113 = BB           A:00 X:8A Y:66 P:26 SP:F9 STACK: 00 00 C6 25 DB AD
DD8D  10 12     BPL $DDA1                       A:BB X:8A Y:66 P:A4 SP:F9 STACK: 00 00 C6 25 DB AD
DD8F  F0 10     BEQ $DDA1                       A:BB X:8A Y:66 P:A4 SP:F9 STACK: 00 00 C6 25 DB AD
DD91  70 0E     BVS $DDA1                       A:BB X:8A Y:66 P:A4 SP:F9 STACK: 00 00 C6 25 DB AD
DD93  B0 0C     BCS $DDA1                       A:BB X:8A Y:66 P:A4 SP:F9 STACK: 00 00 C6 25 DB AD
DD95  C9 BB     CMP #$BB                        A:BB X:8A Y:66 P:A4 SP:F9 STACK: 00 00 C6 25 DB AD
DD97  D0 08     BNE $DDA1                       A:BB X:8A Y:66 P:27 SP:F9 STACK: 00 00 C6 25 DB AD
DD99  C0 66     CPY #$66                        A:BB X:8A Y:66 P:27 SP:F9 STACK: 00 00 C6 25 DB AD
DD9B  D0 04     BNE $DDA1                       A:BB X:8A Y:66 P:27 SP:F9 STACK: 00 00 C6 25 DB AD
DD9D  E0 8A     CPX #$8A                        A:BB X:8A Y:66 P:27 SP:F9 STACK: 00 00 C6 25 DB AD
DD9F  F0 04     BEQ $DDA5                       A:BB X:8A Y:66 P:27 SP:F9 STACK: 00 00 C6 25 DB AD
DDA5  24 01     BIT $01 = FF                    A:BB X:8A Y:66 P:27 SP:F9 STACK: 00 00 C6 25 DB AD
DDA7  38        SEC                             A:BB X:8A Y:66 P:E5 SP:F9 STACK: 00 00 C6 25 DB AD
DDA8  A9 44     LDA #$44                        A:BB X:8A Y:66 P:E5 SP:F9 STACK: 00 00 C6 25 DB AD
DDAA  A2 00     LDX #$00                        A:44 X:8A Y:66 P:65 SP:F9 STACK: 00 00 C6 25 DB AD
DDAC  95 33     STA $33,X @ 0033 = AA           A:44 X:00 Y:66 P:67 SP:F9 STACK: 00 00 C6 25 DB AD
DDAE  A5 33     LDA $33 = 44                    A:44 X:00 Y:66 P:67 SP:F9 STACK: 00 00 C6 25 DB AD
DDB0  90 18     BCC $DDCA                       A:44 X:00 Y:66 P:65 SP:F9 STACK: 00 00 C6 25 DB AD
DDB2  C9 44     CMP #$44                        A:44 X:00 Y:66 P:65 SP:F9 STACK: 00 00 C6 25 DB AD
DDB4  D0 14     BNE $DDCA                       A:44 X:00 Y:66 P:67 SP:F9 STACK: 00 00 C6 25 DB AD
DDB6  50 12     BVC $DDCA                       A:44 X:00 Y:66 P:67 SP:F9 STACK: 00 00 C6 25 DB AD
DDB8  18        CLC                             A:44 X:00 Y:66 P:67 SP:F9 STACK: 00 00 C6 25 DB AD
DDB9  B8        CLV                             A:44 X:00 Y:66 P:66 SP:F9 STACK: 00 00 C6 25 DB AD
DDBA  A9 99     LDA #$99                        A:44 X:00 Y:66 P:26 SP:F9 STACK: 00 00 C6 25 DB AD
DDBC  A2 80     LDX #$80                        A:99 X:00 Y:66 P:A4 SP:F9 STACK: 00 00 C6 25 DB AD
DDBE  95 85     STA $05,X @ 0085 = 99           A:99 X:80 Y:66 P:A4 SP:F9 STACK: 00 00 C6 25 DB AD
DDC0  A5 05     LDA $05 = 99                    A:99 X:80 Y:66 P:A4 SP:F9 STACK: 00 00 C6 25 DB AD
DDC2  B0 06     BCS $DDCA                       A:99 X:80 Y:66 P:A4 SP:F9 STACK: 00 00 C6 25 DB AD
DDC4  C9 99     CMP #$99                        A:99 X:80 Y:66 P:A4 SP:F9 STACK: 00 00 C6 25 DB AD
DDC6  D0 02     BNE $DDCA                       A:99 X:80 Y:66 P:27 SP:F9 STACK: 00 00 C6 25 DB AD
DDC8  50 04     BVC $DDCE                       A:99 X:80 Y:66 P:27 SP:F9 STACK: 00 00 C6 25 DB AD
DDCE  A0 25     LDY #$25                        A:99 X:80 Y:66 P:27 SP:F9 STACK: 00 00 C6 25 DB AD
DDD0  A2 78     LDX #$78                        A:99 X:80 Y:25 P:25 SP:F9 STACK: 00 00 C6 25 DB AD
DDD2  20 90 F9  JSR $F990                       A:99 X:78 Y:25 P:25 SP:F9 STACK: 00 00 C6 25 DB AD
F990  A2 55     LDX #$55                        A:99 X:78 Y:25 P:25 SP:F7 STACK: 00 00 C6 25 DB AD DD D4
F992  A9 FF     LDA #$FF                        A:99 X:55 Y:25 P:25 SP:F7 STACK: 00 00 C6 25 DB AD DD D4
F994  85 01     STA $01 = FF                    A:FF X:55 Y:25 P:A5 SP:F7 STACK: 00 00 C6 25 DB AD DD D4
F996  EA        NOP                             A:FF X:55 Y:25 P:A5 SP:F7 STACK: 00 00 C6 25 DB AD DD D4
F997  24 01     BIT $01 = FF                    A:FF X:55 Y:25 P:A5 SP:F7 STACK: 00 00 C6 25 DB AD DD D4
F999  38        SEC                             A:FF X:55 Y:25 P:E5 SP:F7 STACK: 00 00 C6 25 DB AD DD D4
F99A  A9 01     LDA #$01                        A:FF X:55 Y:25 P:E5 SP:F7 STACK: 00 00 C6 25 DB AD DD D4
F99C  60        RTS                             A:01 X:55 Y:25 P:65 SP:F7 STACK: 00 00 C6 25 DB AD DD D4
DDD5  95 00     STA $55,X @ 00AA = 00           A:01 X:55 Y:25 P:65 SP:F9 STACK: 00 00 C6 25 DB AD
DDD7  56 00     LSR $55,X @ 00AA = 01           A:01 X:55 Y:25 P:65 SP:F9 STACK: 00 00 C6 25 DB AD
DDD9  B5 00     LDA $55,X @ 00AA = 00           A:01 X:55 Y:25 P:65 SP:F9 STACK: 00 00 C6 25 DB AD
DDDB  20 9D F9  JSR $F99D                       A:00 X:55 Y:25 P:67 SP:F9 STACK: 00 00 C6 25 DB AD
F99D  90 1B     BCC $F9BA                       A:00 X:55 Y:25 P:67 SP:F7 STACK: 00 00 C6 25 DB AD DD DD
F99F  D0 19     BNE $F9BA                       A:00 X:55 Y:25 P:67 SP:F7 STACK: 00 00 C6 25 DB AD DD DD
F9A1  30 17     BMI $F9BA                       A:00 X:55 Y:25 P:67 SP:F7 STACK: 00 00 C6 25 DB AD DD DD
F9A3  50 15     BVC $F9BA                       A:00 X:55 Y:25 P:67 SP:F7 STACK: 00 00 C6 25 DB AD DD DD
F9A5  C9 00     CMP #$00                        A:00 X:55 Y:25 P:67 SP:F7 STACK: 00 00 C6 25 DB AD DD DD
F9A7  D0 11     BNE $F9BA                       A:00 X:55 Y:25 P:67 SP:F7 STACK: 00 00 C6 25 DB AD DD DD
F9A9  B8        CLV                             A:00 X:55 Y:25 P:67 SP:F7 STACK: 00 00 C6 25 DB AD DD DD
F9AA  A9 AA     LDA #$AA                        A:00 X:55 Y:25 P:27 SP:F7 STACK: 00 00 C6 25 DB AD DD DD
F9AC  60        RTS                             A:AA X:55 Y:25 P:A5 SP:F7 STACK: 00 00 C6 25 DB AD DD DD
DDDE  C8        INY                             A:AA X:55 Y:25 P:A5 SP:F9 STACK: 00 00 C6 25 DB AD
DDDF  95 00     STA $55,X @ 00AA = 00           A:AA X:55 Y:26 P:25 SP:F9 STACK: 00 00 C6 25 DB AD
DDE1  56 00     LSR $55,X @ 00AA = AA           A:AA X:55 Y:26 P:25 SP:F9 STACK: 00 00 C6 25 DB AD
DDE3  B5 00     LDA $55,X @ 00AA = 55           A:AA X:55 Y:26 P:24 SP:F9 STACK: 00 00 C6 25 DB AD
DDE5  20 AD F9  JSR $F9AD                       A:55 X:55 Y:26 P:24 SP:F9 STACK: 00 00 C6 25 DB AD
F9AD  B0 0B     BCS $F9BA                       A:55 X:55 Y:26 P:24 SP:F7 STACK: 00 00 C6 25 DB AD DD E7
F9AF  F0 09     BEQ $F9BA                       A:55 X:55 Y:26 P:24 SP:F7 STACK: 00 00 C6 25 DB AD DD E7
F9B1  30 07     BMI $F9BA                       A:55 X:55 Y:26 P:24 SP:F7 STACK: 00 00 C6 25 DB AD DD E7
F9B3  70 05     BVS $F9BA                       A:55 X:55 Y:26 P:24 SP:F7 STACK: 00 00 C6 25 DB AD DD E7
F9B5  C9 55     CMP #$55                        A:55 X:55 Y:26 P:24 SP:F7 STACK: 00 00 C6 25 DB AD DD E7
F9B7  D0 01     BNE $F9BA                       A:55 X:55 Y:26 P:27 SP:F7 STACK: 00 00 C6 25 DB AD DD E7
F9B9  60        RTS                             A:55 X:55 Y:26 P:27 SP:F7 STACK: 00 00 C6 25 DB AD DD E7
DDE8  C8        INY                             A:55 X:55 Y:26 P:27 SP:F9 STACK: 00 00 C6 25 DB AD
DDE9  20 BD F9  JSR $F9BD                       A:55 X:55 Y:27 P:25 SP:F9 STACK: 00 00 C6 25 DB AD
F9BD  24 01     BIT $01 = FF                    A:55 X:55 Y:27 P:25 SP:F7 STACK: 00 00 C6 25 DB AD DD EB
F9BF  38        SEC                             A:55 X:55 Y:27 P:E5 SP:F7 STACK: 00 00 C6 25 DB AD DD EB
F9C0  A9 80     LDA #$80                        A:55 X:55 Y:27 P:E5 SP:F7 STACK: 00 00 C6 25 DB AD DD EB
F9C2  60        RTS                             A:80 X:55 Y:27 P:E5 SP:F7 STACK: 00 00 C6 25 DB AD DD EB
DDEC  95 00     STA $55,X @ 00AA = 55           A:80 X:55 Y:27 P:E5 SP:F9 STACK: 00 00 C6 25 DB AD
DDEE  16 00     ASL $55,X @ 00AA = 80           A:80 X:55 Y:27 P:E5 SP:F9 STACK: 00 00 C6 25 DB AD
DDF0  B5 00     LDA $55,X @ 00AA = 00           A:80 X:55 Y:27 P:65 SP:F9 STACK: 00 00 C6 25 DB AD
DDF2  20 C3 F9  JSR $F9C3                       A:00 X:55 Y:27 P:67 SP:F9 STACK: 00 00 C6 25 DB AD
F9C3  90 1C     BCC $F9E1                       A:00 X:55 Y:27 P:67 SP:F7 STACK: 00 00 C6 25 DB AD DD F4
F9C5  D0 1A     BNE $F9E1                       A:00 X:55 Y:27 P:67 SP:F7 STACK: 00 00 C6 25 DB AD DD F4
F9C7  30 18     BMI $F9E1                       A:00 X:55 Y:27 P:67 SP:F7 STACK: 00 00 C6 25 DB AD DD F4
F9C9  50 16     BVC $F9E1                       A:00 X:55 Y:27 P:67 SP:F7 STACK: 00 00 C6 25 DB AD DD F4
F9CB  C9 00     CMP #$00                        A:00 X:55 Y:27 P:67 SP:F7 STACK: 00 00 C6 25 DB AD DD F4
F9CD  D0 12     BNE $F9E1                       A:00 X:55 Y:27 P:67 SP:F7 STACK: 00 00 C6 25 DB AD DD F4
F9CF  B8        CLV                             A:00 X:55 Y:27 P:67 SP:F7 STACK: 00 00 C6 25 DB AD DD F4
F9D0  A9 55     LDA #$55                        A:00 X:55 Y:27 P:27 SP:F7 STACK: 00 00 C6 25 DB AD DD F4
F9D2  38        SEC                             A:55 X:55 Y:27 P:25 SP:F7 STACK: 00 00 C6 25 DB AD DD F4
F9D3  60        RTS                             A:55 X:55 Y:27 P:25 SP:F7 STACK: 00 00 C6 25 DB AD DD F4
DDF5  C8        INY                             A:55 X:55 Y:27 P:25 SP:F9 STACK: 00 00 C6 25 DB AD
DDF6  95 00     STA $55,X @ 00AA = 00           A:55 X:55 Y:28 P:25 SP:F9 STACK: 00 00 C6 25 DB AD
DDF8  16 00     ASL $55,X @ 00AA = 55           A:55 X:55 Y:28 P:25 SP:F9 STACK: 00 00 C6 25 DB AD
DDFA  B5 00     LDA $55,X @ 00AA = AA           A:55 X:55 Y:28 P:A4 SP:F9 STACK: 00 00 C6 25 DB AD
DDFC  20 D4 F9  JSR $F9D4                       A:AA X:55 Y:28 P:A4 SP:F9 STACK: 00 00 C6 25 DB AD
F9D4  B0 0B     BCS $F9E1                       A:AA X:55 Y:28 P:A4 SP:F7 STACK: 00 00 C6 25 DB AD DD FE
F9D6  F0 09     BEQ $F9E1                       A:AA X:55 Y:28 P:A4 SP:F7 STACK: 00 00 C6 25 DB AD DD FE
F9D8  10 07     BPL $F9E1                       A:AA X:55 Y:28 P:A4 SP:F7 STACK: 00 00 C6 25 DB AD DD FE
F9DA  70 05     BVS $F9E1                       A:AA X:55 Y:28 P:A4 SP:F7 STACK: 00 00 C6 25 DB AD DD FE
F9DC  C9 AA     CMP #$AA                        A:AA X:55 Y:28 P:A4 SP:F7 STACK: 00 00 C6 25 DB AD DD FE
F9DE  D0 01     BNE $F9E1                       A:AA X:55 Y:28 P:27 SP:F7 STACK: 00 00 C6 25 DB AD DD FE
F9E0  60        RTS                             A:AA X:55 Y:28 P:27 SP:F7 STACK: 00 00 C6 25 DB AD DD FE
DDFF  C8        INY                             A:AA X:55 Y:28 P:27 SP:F9 STACK: 00 00 C6 25 DB AD
DE00  20 E4 F9  JSR $F9E4                       A:AA X:55 Y:29 P:25 SP:F9 STACK: 00 00 C6 25 DB AD
F9E4  24 01     BIT $01 = FF                    A:AA X:55 Y:29 P:25 SP:F7 STACK: 00 00 C6 25 DB AD DE 02
F9E6  38        SEC                             A:AA X:55 Y:29 P:E5 SP:F7 STACK: 00 00 C6 25 DB AD DE 02
F9E7  A9 01     LDA #$01                        A:AA X:55 Y:29 P:E5 SP:F7 STACK: 00 00 C6 25 DB AD DE 02
F9E9  60        RTS                             A:01 X:55 Y:29 P:65 SP:F7 STACK: 00 00 C6 25 DB AD DE 02
DE03  95 00     STA $55,X @ 00AA = AA           A:01 X:55 Y:29 P:65 SP:F9 STACK: 00 00 C6 25 DB AD
DE05  76 00     ROR $55,X @ 00AA = 01           A:01 X:55 Y:29 P:65 SP:F9 STACK: 00 00 C6 25 DB AD
DE07  B5 00     LDA $55,X @ 00AA = 80           A:01 X:55 Y:29 P:E5 SP:F9 STACK: 00 00 C6 25 DB AD
DE09  20 EA F9  JSR $F9EA                       A:80 X:55 Y:29 P:E5 SP:F9 STACK: 00 00 C6 25 DB AD
F9EA  90 1C     BCC $FA08                       A:80 X:55 Y:29 P:E5 SP:F7 STACK: 00 00 C6 25 DB AD DE 0B
F9EC  F0 1A     BEQ $FA08                       A:80 X:55 Y:29 P:E5 SP:F7 STACK: 00 00 C6 25 DB AD DE 0B
F9EE  10 18     BPL $FA08                       A:80 X:55 Y:29 P:E5 SP:F7 STACK: 00 00 C6 25 DB AD DE 0B
F9F0  50 16     BVC $FA08                       A:80 X:55 Y:29 P:E5 SP:F7 STACK: 00 00 C6 25 DB AD DE 0B
F9F2  C9 80     CMP #$80                        A:80 X:55 Y:29 P:E5 SP:F7 STACK: 00 00 C6 25 DB AD DE 0B
F9F4  D0 12     BNE $FA08                       A:80 X:55 Y:29 P:67 SP:F7 STACK: 00 00 C6 25 DB AD DE 0B
F9F6  B8        CLV                             A:80 X:55 Y:29 P:67 SP:F7 STACK: 00 00 C6 25 DB AD DE 0B
F9F7  18        CLC                             A:80 X:55 Y:29 P:27 SP:F7 STACK: 00 00 C6 25 DB AD DE 0B
F9F8  A9 55     LDA #$55                        A:80 X:55 Y:29 P:26 SP:F7 STACK: 00 00 C6 25 DB AD DE 0B
F9FA  60        RTS                             A:55 X:55 Y:29 P:24 SP:F7 STACK: 00 00 C6 25 DB AD DE 0B
DE0C  C8        INY                             A:55 X:55 Y:29 P:24 SP:F9 STACK: 00 00 C6 25 DB AD
DE0D  95 00     STA $55,X @ 00AA = 80           A:55 X:55 Y:2A P:24 SP:F9 STACK: 00 00 C6 25 DB AD
DE0F  76 00     ROR $55,X @ 00AA = 55           A:55 X:55 Y:2A P:24 SP:F9 STACK: 00 00 C6 25 DB AD
DE11  B5 00     LDA $55,X @ 00AA = 2A           A:55 X:55 Y:2A P:25 SP:F9 STACK: 00 00 C6 25 DB AD
DE13  20 FB F9  JSR $F9FB                       A:2A X:55 Y:2A P:25 SP:F9 STACK: 00 00 C6 25 DB AD
F9FB  90 0B     BCC $FA08                       A:2A X:55 Y:2A P:25 SP:F7 STACK: 00 00 C6 25 DB AD DE 15
F9FD  F0 09     BEQ $FA08                       A:2A X:55 Y:2A P:25 SP:F7 STACK: 00 00 C6 25 DB AD DE 15
F9FF  30 07     BMI $FA08                       A:2A X:55 Y:2A P:25 SP:F7 STACK: 00 00 C6 25 DB AD DE 15
FA01  70 05     BVS $FA08                       A:2A X:55 Y:2A P:25 SP:F7 STACK: 00 00 C6 25 DB AD DE 15
FA03  C9 2A     CMP #$2A                        A:2A X:55 Y:2A P:25 SP:F7 STACK: 00 00 C6 25 DB AD DE 15
FA05  D0 01     BNE $FA08                       A:2A X:55 Y:2A P:27 SP:F7 STACK: 00 00 C6 25 DB AD DE 15
FA07  60        RTS                             A:2A X:55 Y:2A P:27 SP:F7 STACK: 00 00 C6 25 DB AD DE 15
DE16  C8        INY                             A:2A X:55 Y:2A P:27 SP:F9 STACK: 00 00 C6 25 DB AD
DE17  20 0A FA  JSR $FA0A                       A:2A X:55 Y:2B P:25 SP:F9 STACK: 00 00 C6 25 DB AD
FA0A  24 01     BIT $01 = FF                    A:2A X:55 Y:2B P:25 SP:F7 STACK: 00 00 C6 25 DB AD DE 19
FA0C  38        SEC                             A:2A X:55 Y:2B P:E5 SP:F7 STACK: 00 00 C6 25 DB AD DE 19
FA0D  A9 80     LDA #$80                        A:2A X:55 Y:2B P:E5 SP:F7 STACK: 00 00 C6 25 DB AD DE 19
FA0F  60        RTS                             A:80 X:55 Y:2B P:E5 SP:F7 STACK: 00 00 C6 25 DB AD DE 19
DE1A  95 00     STA $55,X @ 00AA = 2A           A:80 X:55 Y:2B P:E5 SP:F9 STACK: 00 00 C6 25 DB AD
DE1C  36 00     ROL $55,X @ 00AA = 80           A:80 X:55 Y:2B P:E5 SP:F9 STACK: 00 00 C6 25 DB AD
DE1E  B5 00     LDA $55,X @ 00AA = 01           A:80 X:55 Y:2B P:65 SP:F9 STACK: 00 00 C6 25 DB AD
DE20  20 10 FA  JSR $FA10                       A:01 X:55 Y:2B P:65 SP:F9 STACK: 00 00 C6 25 DB AD
FA10  90 1C     BCC $FA2E                       A:01 X:55 Y:2B P:65 SP:F7 STACK: 00 00 C6 25 DB AD DE 22
FA12  F0 1A     BEQ $FA2E                       A:01 X:55 Y:2B P:65 SP:F7 STACK: 00 00 C6 25 DB AD DE 22
FA14  30 18     BMI $FA2E                       A:01 X:55 Y:2B P:65 SP:F7 STACK: 00 00 C6 25 DB AD DE 22
FA16  50 16     BVC $FA2E                       A:01 X:55 Y:2B P:65 SP:F7 STACK: 00 00 C6 25 DB AD DE 22
FA18  C9 01     CMP #$01                        A:01 X:55 Y:2B P:65 SP:F7 STACK: 00 00 C6 25 DB AD DE 22
FA1A  D0 12     BNE $FA2E                       A:01 X:55 Y:2B P:67 SP:F7 STACK: 00 00 C6 25 DB AD DE 22
FA1C  B8        CLV                             A:01 X:55 Y:2B P:67 SP:F7 STACK: 00 00 C6 25 DB AD DE 22
FA1D  18        CLC                             A:01 X:55 Y:2B P:27 SP:F7 STACK: 00 00 C6 25 DB AD DE 22
FA1E  A9 55     LDA #$55                        A:01 X:55 Y:2B P:26 SP:F7 STACK: 00 00 C6 25 DB AD DE 22
FA20  60        RTS                             A:55 X:55 Y:2B P:24 SP:F7 STACK: 00 00 C6 25 DB AD DE 22
DE23  C8        INY                             A:55 X:55 Y:2B P:24 SP:F9 STACK: 00 00 C6 25 DB AD
DE24  95 00     STA $55,X @ 00AA = 01           A:55 X:55 Y:2C P:24 SP:F9 STACK: 00 00 C6 25 DB AD
DE26  36 00     ROL $55,X @ 00AA = 55           A:55 X:55 Y:2C P:24 SP:F9 STACK: 00 00 C6 25 DB AD
DE28  B5 00     LDA $55,X @ 00AA = AA           A:55 X:55 Y:2C P:A4 SP:F9 STACK: 00 00 C6 25 DB AD
DE2A  20 21 FA  JSR $FA21                       A:AA X:55 Y:2C P:A4 SP:F9 STACK: 00 00 C6 25 DB AD
FA21  B0 0B     BCS $FA2E                       A:AA X:55 Y:2C P:A4 SP:F7 STACK: 00 00 C6 25 DB AD DE 2C
FA23  F0 09     BEQ $FA2E                       A:AA X:55 Y:2C P:A4 SP:F7 STACK: 00 00 C6 25 DB AD DE 2C
FA25  10 07     BPL $FA2E                       A:AA X:55 Y:2C P:A4 SP:F7 STACK: 00 00 C6 25 DB AD DE 2C
FA27  70 05     BVS $FA2E                       A:AA X:55 Y:2C P:A4 SP:F7 STACK: 00 00 C6 25 DB AD DE 2C
FA29  C9 AA     CMP #$AA                        A:AA X:55 Y:2C P:A4 SP:F7 STACK: 00 00 C6 25 DB AD DE 2C
FA2B  D0 01     BNE $FA2E                       A:AA X:55 Y:2C P:27 SP:F7 STACK: 00 00 C6 25 DB AD DE 2C
FA2D  60        RTS                             A:AA X:55 Y:2C P:27 SP:F7 STACK: 00 00 C6 25 DB AD DE 2C
DE2D  A9 FF     LDA #$FF                        A:AA X:55 Y:2C P:27 SP:F9 STACK: 00 00 C6 25 DB AD
DE2F  95 00     STA $55,X @ 00AA = AA           A:FF X:55 Y:2C P:A5 SP:F9 STACK: 00 00 C6 25 DB AD
DE31  85 01     STA $01 = FF                    A:FF X:55 Y:2C P:A5 SP:F9 STACK: 00 00 C6 25 DB AD
DE33  24 01     BIT $01 = FF                    A:FF X:55 Y:2C P:A5 SP:F9 STACK: 00 00 C6 25 DB AD
DE35  38        SEC                             A:FF X:55 Y:2C P:E5 SP:F9 STACK: 00 00 C6 25 DB AD
DE36  F6 00     INC $55,X @ 00AA = FF           A:FF X:55 Y:2C P:E5 SP:F9 STACK: 00 00 C6 25 DB AD
DE38  D0 0C     BNE $DE46                       A:FF X:55 Y:2C P:67 SP:F9 STACK: 00 00 C6 25 DB AD
DE3A  30 0A     BMI $DE46                       A:FF X:55 Y:2C P:67 SP:F9 STACK: 00 00 C6 25 DB AD
DE3C  50 08     BVC $DE46                       A:FF X:55 Y:2C P:67 SP:F9 STACK: 00 00 C6 25 DB AD
DE3E  90 06     BCC $DE46                       A:FF X:55 Y:2C P:67 SP:F9 STACK: 00 00 C6 25 DB AD
DE40  B5 00     LDA $55,X @ 00AA = 00           A:FF X:55 Y:2C P:67 SP:F9 STACK: 00 00 C6 25 DB AD
DE42  C9 00     CMP #$00                        A:00 X:55 Y:2C P:67 SP:F9 STACK: 00 00 C6 25 DB AD
DE44  F0 04     BEQ $DE4A                       A:00 X:55 Y:2C P:67 SP:F9 STACK: 00 00 C6 25 DB AD
DE4A  A9 7F     LDA #$7F                        A:00 X:55 Y:2C P:67 SP:F9 STACK: 00 00 C6 25 DB AD
DE4C  95 00     STA $55,X @ 00AA = 00           A:7F X:55 Y:2C P:65 SP:F9 STACK: 00 00 C6 25 DB AD
DE4E  B8        CLV                             A:7F X:55 Y:2C P:65 SP:F9 STACK: 00 00 C6 25 DB AD
DE4F  18        CLC                             A:7F X:55 Y:2C P:25 SP:F9 STACK: 00 00 C6 25 DB AD
DE50  F6 00     INC $55,X @ 00AA = 7F           A:7F X:55 Y:2C P:24 SP:F9 STACK: 00 00 C6 25 DB AD
DE52  F0 0C     BEQ $DE60                       A:7F X:55 Y:2C P:A4 SP:F9 STACK: 00 00 C6 25 DB AD
DE54  10 0A     BPL $DE60                       A:7F X:55 Y:2C P:A4 SP:F9 STACK: 00 00 C6 25 DB AD
DE56  70 08     BVS $DE60                       A:7F X:55 Y:2C P:A4 SP:F9 STACK: 00 00 C6 25 DB AD
DE58  B0 06     BCS $DE60                       A:7F X:55 Y:2C P:A4 SP:F9 STACK: 00 00 C6 25 DB AD
DE5A  B5 00     LDA $55,X @ 00AA = 80           A:7F X:55 Y:2C P:A4 SP:F9 STACK: 00 00 C6 25 DB AD
DE5C  C9 80     CMP #$80                        A:80 X:55 Y:2C P:A4 SP:F9 STACK: 00 00 C6 25 DB AD
DE5E  F0 04     BEQ $DE64                       A:80 X:55 Y:2C P:27 SP:F9 STACK: 00 00 C6 25 DB AD
DE64  A9 00     LDA #$00                        A:80 X:55 Y:2C P:27 SP:F9 STACK: 00 00 C6 25 DB AD
DE66  95 00     STA $55,X @ 00AA = 80           A:00 X:55 Y:2C P:27 SP:F9 STACK: 00 00 C6 25 DB AD
DE68  24 01     BIT $01 = FF                    A:00 X:55 Y:2C P:27 SP:F9 STACK: 00 00 C6 25 DB AD
DE6A  38        SEC                             A:00 X:55 Y:2C P:E7 SP:F9 STACK: 00 00 C6 25 DB AD
DE6B  D6 00     DEC $55,X @ 00AA = 00           A:00 X:55 Y:2C P:E7 SP:F9 STACK: 00 00 C6 25 DB AD
DE6D  F0 0C     BEQ $DE7B                       A:00 X:55 Y:2C P:E5 SP:F9 STACK: 00 00 C6 25 DB AD
DE6F  10 0A     BPL $DE7B                       A:00 X:55 Y:2C P:E5 SP:F9 STACK: 00 00 C6 25 DB AD
DE71  50 08     BVC $DE7B                       A:00 X:55 Y:2C P:E5 SP:F9 STACK: 00 00 C6 25 DB AD
DE73  90 06     BCC $DE7B                       A:00 X:55 Y:2C P:E5 SP:F9 STACK: 00 00 C6 25 DB AD
DE75  B5 00     LDA $55,X @ 00AA = FF           A:00 X:55 Y:2C P:E5 SP:F9 STACK: 00 00 C6 25 DB AD
DE77  C9 FF     CMP #$FF                        A:FF X:55 Y:2C P:E5 SP:F9 STACK: 00 00 C6 25 DB AD
DE79  F0 04     BEQ $DE7F                       A:FF X:55 Y:2C P:67 SP:F9 STACK: 00 00 C6 25 DB AD
DE7F  A9 80     LDA #$80                        A:FF X:55 Y:2C P:67 SP:F9 STACK: 00 00 C6 25 DB AD
DE81  95 00     STA $55,X @ 00AA = FF           A:80 X:55 Y:2C P:E5 SP:F9 STACK: 00 00 C6 25 DB AD
DE83  B8        CLV                             A:80 X:55 Y:2C P:E5 SP:F9 STACK: 00 00 C6 25 DB AD
DE84  18        CLC                             A:80 X:55 Y:2C P:A5 SP:F9 STACK: 00 00 C6 25 DB AD
DE85  D6 00     DEC $55,X @ 00AA = 80           A:80 X:55 Y:2C P:A4 SP:F9 STACK: 00 00 C6 25 DB AD
DE87  F0 0C     BEQ $DE95                       A:80 X:55 Y:2C P:24 SP:F9 STACK: 00 00 C6 25 DB AD
DE89  30 0A     BMI $DE95                       A:80 X:55 Y:2C P:24 SP:F9 STACK: 00 00 C6 25 DB AD
DE8B  70 08     BVS $DE95                       A:80 X:55 Y:2C P:24 SP:F9 STACK: 00 00 C6 25 DB AD
DE8D  B0 06     BCS $DE95                       A:80 X:55 Y:2C P:24 SP:F9 STACK: 00 00 C6 25 DB AD
DE8F  B5 00     LDA $55,X @ 00AA = 7F           A:80 X:55 Y:2C P:24 SP:F9 STACK: 00 00 C6 25 DB AD
DE91  C9 7F     CMP #$7F                        A:7F X:55 Y:2C P:24 SP:F9 STACK: 00 00 C6 25 DB AD
DE93  F0 04     BEQ $DE99                       A:7F X:55 Y:2C P:27 SP:F9 STACK: 00 00 C6 25 DB AD
DE99  A9 01     LDA #$01                        A:7F X:55 Y:2C P:27 SP:F9 STACK: 00 00 C6 25 DB AD
DE9B  95 00     STA $55,X @ 00AA = 7F           A:01 X:55 Y:2C P:25 SP:F9 STACK: 00 00 C6 25 DB AD
DE9D  D6 00     DEC $55,X @ 00AA = 01           A:01 X:55 Y:2C P:25 SP:F9 STACK: 00 00 C6 25 DB AD
DE9F  F0 04     BEQ $DEA5                       A:01 X:55 Y:2C P:27 SP:F9 STACK: 00 00 C6 25 DB AD
DEA5  A9 33     LDA #$33                        A:01 X:55 Y:2C P:27 SP:F9 STACK: 00 00 C6 25 DB AD
DEA7  85 78     STA $78 = 7F                    A:33 X:55 Y:2C P:25 SP:F9 STACK: 00 00 C6 25 DB AD
DEA9  A9 44     LDA #$44                        A:33 X:55 Y:2C P:25 SP:F9 STACK: 00 00 C6 25 DB AD
DEAB  A0 78     LDY #$78                        A:44 X:55 Y:2C P:25 SP:F9 STACK: 00 00 C6 25 DB AD
DEAD  A2 00     LDX #$00                        A:44 X:55 Y:78 P:25 SP:F9 STACK: 00 00 C6 25 DB AD
DEAF  38        SEC                             A:44 X:00 Y:78 P:27 SP:F9 STACK: 00 00 C6 25 DB AD
DEB0  24 01     BIT $01 = FF                    A:44 X:00 Y:78 P:27 SP:F9 STACK: 00 00 C6 25 DB AD
DEB2  B6 00     LDX $78,Y @ 00F0 = 33           A:44 X:00 Y:78 P:E5 SP:F9 STACK: 00 00 C6 25 DB AD
DEB4  90 12     BCC $DEC8                       A:44 X:33 Y:78 P:65 SP:F9 STACK: 00 00 C6 25 DB AD
DEB6  50 10     BVC $DEC8                       A:44 X:33 Y:78 P:65 SP:F9 STACK: 00 00 C6 25 DB AD
DEB8  30 0E     BMI $DEC8                       A:44 X:33 Y:78 P:65 SP:F9 STACK: 00 00 C6 25 DB AD
DEBA  F0 0C     BEQ $DEC8                       A:44 X:33 Y:78 P:65 SP:F9 STACK: 00 00 C6 25 DB AD
DEBC  E0 33     CPX #$33                        A:44 X:33 Y:78 P:65 SP:F9 STACK: 00 00 C6 25 DB AD
DEBE  D0 08     BNE $DEC8                       A:44 X:33 Y:78 P:67 SP:F9 STACK: 00 00 C6 25 DB AD
DEC0  C0 78     CPY #$78                        A:44 X:33 Y:78 P:67 SP:F9 STACK: 00 00 C6 25 DB AD
DEC2  D0 04     BNE $DEC8                       A:44 X:33 Y:78 P:67 SP:F9 STACK: 00 00 C6 25 DB AD
DEC4  C9 44     CMP #$44                        A:44 X:33 Y:78 P:67 SP:F9 STACK: 00 00 C6 25 DB AD
DEC6  F0 04     BEQ $DECC                       A:44 X:33 Y:78 P:67 SP:F9 STACK: 00 00 C6 25 DB AD
DECC  A9 97     LDA #$97                        A:44 X:33 Y:78 P:67 SP:F9 STACK: 00 00 C6 25 DB AD
DECE  85 7F     STA $7F = 00                    A:97 X:33 Y:78 P:E5 SP:F9 STACK: 00 00 C6 25 DB AD
DED0  A9 47     LDA #$47                        A:97 X:33 Y:78 P:E5 SP:F9 STACK: 00 00 C6 25 DB AD
DED2  A0 FF     LDY #$FF                        A:47 X:33 Y:78 P:65 SP:F9 STACK: 00 00 C6 25 DB AD
DED4  A2 00     LDX #$00                        A:47 X:33 Y:FF P:E5 SP:F9 STACK: 00 00 C6 25 DB AD
DED6  18        CLC                             A:47 X:00 Y:FF P:67 SP:F9 STACK: 00 00 C6 25 DB AD
DED7  B8        CLV                             A:47 X:00 Y:FF P:66 SP:F9 STACK: 00 00 C6 25 DB AD
DED8  B6 80     LDX $7F,Y @ 017E = 97           A:47 X:00 Y:FF P:26 SP:F9 STACK: 00 00 C6 25 DB AD
DEDA  B0 12     BCS $DEEE                       A:47 X:97 Y:FF P:A4 SP:F9 STACK: 00 00 C6 25 DB AD
DEDC  70 10     BVS $DEEE                       A:47 X:97 Y:FF P:A4 SP:F9 STACK: 00 00 C6 25 DB AD
DEDE  10 0E     BPL $DEEE                       A:47 X:97 Y:FF P:A4 SP:F9 STACK: 00 00 C6 25 DB AD
DEE0  F0 0C     BEQ $DEEE                       A:47 X:97 Y:FF P:A4 SP:F9 STACK: 00 00 C6 25 DB AD
DEE2  E0 97     CPX #$97                        A:47 X:97 Y:FF P:A4 SP:F9 STACK: 00 00 C6 25 DB AD
DEE4  D0 08     BNE $DEEE                       A:47 X:97 Y:FF P:27 SP:F9 STACK: 00 00 C6 25 DB AD
DEE6  C0 FF     CPY #$FF                        A:47 X:97 Y:FF P:27 SP:F9 STACK: 00 00 C6 25 DB AD
DEE8  D0 04     BNE $DEEE                       A:47 X:97 Y:FF P:27 SP:F9 STACK: 00 00 C6 25 DB AD
DEEA  C9 47     CMP #$47                        A:47 X:97 Y:FF P:27 SP:F9 STACK: 00 00 C6 25 DB AD
DEEC  F0 04     BEQ $DEF2                       A:47 X:97 Y:FF P:27 SP:F9 STACK: 00 00 C6 25 DB AD
DEF2  A9 00     LDA #$00                        A:47 X:97 Y:FF P:27 SP:F9 STACK: 00 00 C6 25 DB AD
DEF4  85 7F     STA $7F = 97                    A:00 X:97 Y:FF P:27 SP:F9 STACK: 00 00 C6 25 DB AD
DEF6  A9 47     LDA #$47                        A:00 X:97 Y:FF P:27 SP:F9 STACK: 00 00 C6 25 DB AD
DEF8  A0 FF     LDY #$FF                        A:47 X:97 Y:FF P:25 SP:F9 STACK: 00 00 C6 25 DB AD
DEFA  A2 69     LDX #$69                        A:47 X:97 Y:FF P:A5 SP:F9 STACK: 00 00 C6 25 DB AD
DEFC  18        CLC                             A:47 X:69 Y:FF P:25 SP:F9 STACK: 00 00 C6 25 DB AD
DEFD  B8        CLV                             A:47 X:69 Y:FF P:24 SP:F9 STACK: 00 00 C6 25 DB AD
DEFE  96 80     STX $7F,Y @ 017E = 00           A:47 X:69 Y:FF P:24 SP:F9 STACK: 00 00 C6 25 DB AD
DF00  B0 18     BCS $DF1A                       A:47 X:69 Y:FF P:24 SP:F9 STACK: 00 00 C6 25 DB AD
DF02  70 16     BVS $DF1A                       A:47 X:69 Y:FF P:24 SP:F9 STACK: 00 00 C6 25 DB AD
DF04  30 14     BMI $DF1A                       A:47 X:69 Y:FF P:24 SP:F9 STACK: 00 00 C6 25 DB AD
DF06  F0 12     BEQ $DF1A                       A:47 X:69 Y:FF P:24 SP:F9 STACK: 00 00 C6 25 DB AD
DF08  E0 69     CPX #$69                        A:47 X:69 Y:FF P:24 SP:F9 STACK: 00 00 C6 25 DB AD
DF0A  D0 0E     BNE $DF1A                       A:47 X:69 Y:FF P:27 SP:F9 STACK: 00 00 C6 25 DB AD
DF0C  C0 FF     CPY #$FF                        A:47 X:69 Y:FF P:27 SP:F9 STACK: 00 00 C6 25 DB AD
DF0E  D0 0A     BNE $DF1A                       A:47 X:69 Y:FF P:27 SP:F9 STACK: 00 00 C6 25 DB AD
DF10  C9 47     CMP #$47                        A:47 X:69 Y:FF P:27 SP:F9 STACK: 00 00 C6 25 DB AD
DF12  D0 06     BNE $DF1A                       A:47 X:69 Y:FF P:27 SP:F9 STACK: 00 00 C6 25 DB AD
DF14  A5 7F     LDA $7F = 69                    A:47 X:69 Y:FF P:27 SP:F9 STACK: 00 00 C6 25 DB AD
DF16  C9 69     CMP #$69                        A:69 X:69 Y:FF P:25 SP:F9 STACK: 00 00 C6 25 DB AD
DF18  F0 04     BEQ $DF1E                       A:69 X:69 Y:FF P:27 SP:F9 STACK: 00 00 C6 25 DB AD
DF1E  A9 F5     LDA #$F5                        A:69 X:69 Y:FF P:27 SP:F9 STACK: 00 00 C6 25 DB AD
DF20  85 4F     STA $4F = 00                    A:F5 X:69 Y:FF P:A5 SP:F9 STACK: 00 00 C6 25 DB AD
DF22  A9 47     LDA #$47                        A:F5 X:69 Y:FF P:A5 SP:F9 STACK: 00 00 C6 25 DB AD
DF24  A0 4F     LDY #$4F                        A:47 X:69 Y:FF P:25 SP:F9 STACK: 00 00 C6 25 DB AD
DF26  24 01     BIT $01 = FF                    A:47 X:69 Y:4F P:25 SP:F9 STACK: 00 00 C6 25 DB AD
DF28  A2 00     LDX #$00                        A:47 X:69 Y:4F P:E5 SP:F9 STACK: 00 00 C6 25 DB AD
DF2A  38        SEC                             A:47 X:00 Y:4F P:67 SP:F9 STACK: 00 00 C6 25 DB AD
DF2B  96 00     STX $4F,Y @ 009E = F5           A:47 X:00 Y:4F P:67 SP:F9 STACK: 00 00 C6 25 DB AD
DF2D  90 16     BCC $DF45                       A:47 X:00 Y:4F P:67 SP:F9 STACK: 00 00 C6 25 DB AD
DF2F  50 14     BVC $DF45                       A:47 X:00 Y:4F P:67 SP:F9 STACK: 00 00 C6 25 DB AD
DF31  30 12     BMI $DF45                       A:47 X:00 Y:4F P:67 SP:F9 STACK: 00 00 C6 25 DB AD
DF33  D0 10     BNE $DF45                       A:47 X:00 Y:4F P:67 SP:F9 STACK: 00 00 C6 25 DB AD
DF35  E0 00     CPX #$00                        A:47 X:00 Y:4F P:67 SP:F9 STACK: 00 00 C6 25 DB AD
DF37  D0 0C     BNE $DF45                       A:47 X:00 Y:4F P:67 SP:F9 STACK: 00 00 C6 25 DB AD
DF39  C0 4F     CPY #$4F                        A:47 X:00 Y:4F P:67 SP:F9 STACK: 00 00 C6 25 DB AD
DF3B  D0 08     BNE $DF45                       A:47 X:00 Y:4F P:67 SP:F9 STACK: 00 00 C6 25 DB AD
DF3D  C9 47     CMP #$47                        A:47 X:00 Y:4F P:67 SP:F9 STACK: 00 00 C6 25 DB AD
DF3F  D0 04     BNE $DF45                       A:47 X:00 Y:4F P:67 SP:F9 STACK: 00 00 C6 25 DB AD
DF41  A5 4F     LDA $4F = 00                    A:47 X:00 Y:4F P:67 SP:F9 STACK: 00 00 C6 25 DB AD
DF43  F0 04     BEQ $DF49                       A:00 X:00 Y:4F P:67 SP:F9 STACK: 00 00 C6 25 DB AD
DF49  60        RTS                             A:00 X:00 Y:4F P:67 SP:F9 STACK: 00 00 C6 25 DB AD
DBAE  C9 AA     CMP #$AA                        A:00 X:00 Y:4F P:67 SP:FB STACK: 00 00 C6 25
DBB0  F0 02     BEQ $DBB4                       A:00 X:00 Y:4F P:64 SP:FB STACK: 00 00 C6 25
DBB2  86 00     STX $00 = 00                    A:00 X:00 Y:4F P:64 SP:FB STACK: 00 00 C6 25
DBB4  60        RTS                             A:00 X:00 Y:4F P:64 SP:FB STACK: 00 00 C6 25
C626  20 4A DF  JSR $DF4A                       A:00 X:00 Y:4F P:64 SP:FD STACK: 00 00
DF4A  A9 89     LDA #$89                        A:00 X:00 Y:4F P:64 SP:FB STACK: 00 00 C6 28
DF4C  8D 00 03  STA $0300 = A9                  A:89 X:00 Y:4F P:E4 SP:FB STACK: 00 00 C6 28
DF4F  A9 A3     LDA #$A3                        A:89 X:00 Y:4F P:E4 SP:FB STACK: 00 00 C6 28
DF51  85 33     STA $33 = 44                    A:A3 X:00 Y:4F P:E4 SP:FB STACK: 00 00 C6 28
DF53  A9 12     LDA #$12                        A:A3 X:00 Y:4F P:E4 SP:FB STACK: 00 00 C6 28
DF55  8D 45 02  STA $0245 = 12                  A:12 X:00 Y:4F P:64 SP:FB STACK: 00 00 C6 28
DF58  A2 65     LDX #$65                        A:12 X:00 Y:4F P:64 SP:FB STACK: 00 00 C6 28
DF5A  A0 00     LDY #$00                        A:12 X:65 Y:4F P:64 SP:FB STACK: 00 00 C6 28
DF5C  38        SEC                             A:12 X:65 Y:00 P:66 SP:FB STACK: 00 00 C6 28
DF5D  A9 00     LDA #$00                        A:12 X:65 Y:00 P:67 SP:FB STACK: 00 00 C6 28
DF5F  B8        CLV                             A:00 X:65 Y:00 P:67 SP:FB STACK: 00 00 C6 28
DF60  B9 00 03  LDA $0300,Y @ 0300 = 89         A:00 X:65 Y:00 P:27 SP:FB STACK: 00 00 C6 28
DF63  F0 0C     BEQ $DF71                       A:89 X:65 Y:00 P:A5 SP:FB STACK: 00 00 C6 28
DF65  90 0A     BCC $DF71                       A:89 X:65 Y:00 P:A5 SP:FB STACK: 00 00 C6 28
DF67  70 08     BVS $DF71                       A:89 X:65 Y:00 P:A5 SP:FB STACK: 00 00 C6 28
DF69  C9 89     CMP #$89                        A:89 X:65 Y:00 P:A5 SP:FB STACK: 00 00 C6 28
DF6B  D0 04     BNE $DF71                       A:89 X:65 Y:00 P:27 SP:FB STACK: 00 00 C6 28
DF6D  E0 65     CPX #$65                        A:89 X:65 Y:00 P:27 SP:FB STACK: 00 00 C6 28
DF6F  F0 04     BEQ $DF75                       A:89 X:65 Y:00 P:27 SP:FB STACK: 00 00 C6 28
DF75  A9 FF     LDA #$FF                        A:89 X:65 Y:00 P:27 SP:FB STACK: 00 00 C6 28
DF77  85 01     STA $01 = FF                    A:FF X:65 Y:00 P:A5 SP:FB STACK: 00 00 C6 28
DF79  24 01     BIT $01 = FF                    A:FF X:65 Y:00 P:A5 SP:FB STACK: 00 00 C6 28
DF7B  A0 34     LDY #$34                        A:FF X:65 Y:00 P:E5 SP:FB STACK: 00 00 C6 28
DF7D  B9 FF FF  LDA $0033,Y @ 0067 = A3         A:FF X:65 Y:34 P:65 SP:FB STACK: 00 00 C6 28
DF80  C9 A3     CMP #$A3                        A:A3 X:65 Y:34 P:E5 SP:FB STACK: 00 00 C6 28
DF82  D0 02     BNE $DF86                       A:A3 X:65 Y:34 P:67 SP:FB STACK: 00 00 C6 28
DF84  B0 04     BCS $DF8A                       A:A3 X:65 Y:34 P:67 SP:FB STACK: 00 00 C6 28
DF8A  A9 46     LDA #$46                        A:A3 X:65 Y:34 P:67 SP:FB STACK: 00 00 C6 28
DF8C  85 FF     STA $FF = 46                    A:46 X:65 Y:34 P:65 SP:FB STACK: 00 00 C6 28
DF8E  A0 FF     LDY #$FF                        A:46 X:65 Y:34 P:65 SP:FB STACK: 00 00 C6 28
DF90  B9 46 01  LDA $0245,Y @ 0344 = 12         A:46 X:65 Y:FF P:E5 SP:FB STACK: 00 00 C6 28
DF93  C9 12     CMP #$12                        A:12 X:65 Y:FF P:65 SP:FB STACK: 00 00 C6 28
DF95  F0 04     BEQ $DF9B                       A:12 X:65 Y:FF P:67 SP:FB STACK: 00 00 C6 28
DF9B  A2 39     LDX #$39                        A:12 X:65 Y:FF P:67 SP:FB STACK: 00 00 C6 28
DF9D  18        CLC                             A:12 X:39 Y:FF P:65 SP:FB STACK: 00 00 C6 28
DF9E  A9 FF     LDA #$FF                        A:12 X:39 Y:FF P:64 SP:FB STACK: 00 00 C6 28
DFA0  85 01     STA $01 = FF                    A:FF X:39 Y:FF P:E4 SP:FB STACK: 00 00 C6 28
DFA2  24 01     BIT $01 = FF                    A:FF X:39 Y:FF P:E4 SP:FB STACK: 00 00 C6 28
DFA4  A9 AA     LDA #$AA                        A:FF X:39 Y:FF P:E4 SP:FB STACK: 00 00 C6 28
DFA6  8D 00 04  STA $0400 = 87                  A:AA X:39 Y:FF P:E4 SP:FB STACK: 00 00 C6 28
DFA9  A9 55     LDA #$55                        A:AA X:39 Y:FF P:E4 SP:FB STACK: 00 00 C6 28
DFAB  A0 00     LDY #$00                        A:55 X:39 Y:FF P:64 SP:FB STACK: 00 00 C6 28
DFAD  19 00 04  ORA $0400,Y @ 0400 = AA         A:55 X:39 Y:00 P:66 SP:FB STACK: 00 00 C6 28
DFB0  B0 08     BCS $DFBA                       A:FF X:39 Y:00 P:E4 SP:FB STACK: 00 00 C6 28
DFB2  10 06     BPL $DFBA                       A:FF X:39 Y:00 P:E4 SP:FB STACK: 00 00 C6 28
DFB4  C9 FF     CMP #$FF                        A:FF X:39 Y:00 P:E4 SP:FB STACK: 00 00 C6 28
DFB6  D0 02     BNE $DFBA                       A:FF X:39 Y:00 P:67 SP:FB STACK: 00 00 C6 28
DFB8  70 02     BVS $DFBC                       A:FF X:39 Y:00 P:67 SP:FB STACK: 00 00 C6 28
DFBC  E8        INX                             A:FF X:39 Y:00 P:67 SP:FB STACK: 00 00 C6 28
DFBD  38        SEC                             A:FF X:3A Y:00 P:65 SP:FB STACK: 00 00 C6 28
DFBE  B8        CLV                             A:FF X:3A Y:00 P:65 SP:FB STACK: 00 00 C6 28
DFBF  A9 00     LDA #$00                        A:FF X:3A Y:00 P:25 SP:FB STACK: 00 00 C6 28
DFC1  19 00 04  ORA $0400,Y @ 0400 = AA         A:00 X:3A Y:00 P:27 SP:FB STACK: 00 00 C6 28
DFC4  F0 06     BEQ $DFCC                       A:AA X:3A Y:00 P:A5 SP:FB STACK: 00 00 C6 28
DFC6  70 04     BVS $DFCC                       A:AA X:3A Y:00 P:A5 SP:FB STACK: 00 00 C6 28
DFC8  90 02     BCC $DFCC                       A:AA X:3A Y:00 P:A5 SP:FB STACK: 00 00 C6 28
DFCA  30 02     BMI $DFCE                       A:AA X:3A Y:00 P:A5 SP:FB STACK: 00 00 C6 28
DFCE  E8        INX                             A:AA X:3A Y:00 P:A5 SP:FB STACK: 00 00 C6 28
DFCF  18        CLC                             A:AA X:3B Y:00 P:25 SP:FB STACK: 00 00 C6 28
DFD0  24 01     BIT $01 = FF                    A:AA X:3B Y:00 P:24 SP:FB STACK: 00 00 C6 28
DFD2  A9 55     LDA #$55                        A:AA X:3B Y:00 P:E4 SP:FB STACK: 00 00 C6 28
DFD4  39 00 04  AND $0400,Y @ 0400 = AA         A:55 X:3B Y:00 P:64 SP:FB STACK: 00 00 C6 28
DFD7  D0 06     BNE $DFDF                       A:00 X:3B Y:00 P:66 SP:FB STACK: 00 00 C6 28
DFD9  50 04     BVC $DFDF                       A:00 X:3B Y:00 P:66 SP:FB STACK: 00 00 C6 28
DFDB  B0 02     BCS $DFDF                       A:00 X:3B Y:00 P:66 SP:FB STACK: 00 00 C6 28
DFDD  10 02     BPL $DFE1                       A:00 X:3B Y:00 P:66 SP:FB STACK: 00 00 C6 28
DFE1  E8        INX                             A:00 X:3B Y:00 P:66 SP:FB STACK: 00 00 C6 28
DFE2  38        SEC                             A:00 X:3C Y:00 P:64 SP:FB STACK: 00 00 C6 28
DFE3  B8        CLV                             A:00 X:3C Y:00 P:65 SP:FB STACK: 00 00 C6 28
DFE4  A9 EF     LDA #$EF                        A:00 X:3C Y:00 P:25 SP:FB STACK: 00 00 C6 28
DFE6  8D 00 04  STA $0400 = AA                  A:EF X:3C Y:00 P:A5 SP:FB STACK: 00 00 C6 28
DFE9  A9 F8     LDA #$F8                        A:EF X:3C Y:00 P:A5 SP:FB STACK: 00 00 C6 28
DFEB  39 00 04  AND $0400,Y @ 0400 = EF         A:F8 X:3C Y:00 P:A5 SP:FB STACK: 00 00 C6 28
DFEE  90 08     BCC $DFF8                       A:E8 X:3C Y:00 P:A5 SP:FB STACK: 00 00 C6 28
DFF0  10 06     BPL $DFF8                       A:E8 X:3C Y:00 P:A5 SP:FB STACK: 00 00 C6 28
DFF2  C9 E8     CMP #$E8                        A:E8 X:3C Y:00 P:A5 SP:FB STACK: 00 00 C6 28
DFF4  D0 02     BNE $DFF8                       A:E8 X:3C Y:00 P:27 SP:FB STACK: 00 00 C6 28
DFF6  50 02     BVC $DFFA                       A:E8 X:3C Y:00 P:27 SP:FB STACK: 00 00 C6 28
DFFA  E8        INX                             A:E8 X:3C Y:00 P:27 SP:FB STACK: 00 00 C6 28
DFFB  18        CLC                             A:E8 X:3D Y:00 P:25 SP:FB STACK: 00 00 C6 28
DFFC  24 01     BIT $01 = FF                    A:E8 X:3D Y:00 P:24 SP:FB STACK: 00 00 C6 28
DFFE  A9 AA     LDA #$AA                        A:E8 X:3D Y:00 P:E4 SP:FB STACK: 00 00 C6 28
E000  8D 00 04  STA $0400 = EF                  A:AA X:3D Y:00 P:E4 SP:FB STACK: 00 00 C6 28
E003  A9 5F     LDA #$5F                        A:AA X:3D Y:00 P:E4 SP:FB STACK: 00 00 C6 28
E005  59 00 04  EOR $0400,Y @ 0400 = AA         A:5F X:3D Y:00 P:64 SP:FB STACK: 00 00 C6 28
E008  B0 08     BCS $E012                       A:F5 X:3D Y:00 P:E4 SP:FB STACK: 00 00 C6 28
E00A  10 06     BPL $E012                       A:F5 X:3D Y:00 P:E4 SP:FB STACK: 00 00 C6 28
E00C  C9 F5     CMP #$F5                        A:F5 X:3D Y:00 P:E4 SP:FB STACK: 00 00 C6 28
E00E  D0 02     BNE $E012                       A:F5 X:3D Y:00 P:67 SP:FB STACK: 00 00 C6 28
E010  70 02     BVS $E014                       A:F5 X:3D Y:00 P:67 SP:FB STACK: 00 00 C6 28
E014  E8        INX                             A:F5 X:3D Y:00 P:67 SP:FB STACK: 00 00 C6 28
E015  38        SEC                             A:F5 X:3E Y:00 P:65 SP:FB STACK: 00 00 C6 28
E016  B8        CLV                             A:F5 X:3E Y:00 P:65 SP:FB STACK: 00 00 C6 28
E017  A9 70     LDA #$70                        A:F5 X:3E Y:00 P:25 SP:FB STACK: 00 00 C6 28
E019  8D 00 04  STA $0400 = AA                  A:70 X:3E Y:00 P:25 SP:FB STACK: 00 00 C6 28
E01C  59 00 04  EOR $0400,Y @ 0400 = 70         A:70 X:3E Y:00 P:25 SP:FB STACK: 00 00 C6 28
E01F  D0 06     BNE $E027                       A:00 X:3E Y:00 P:27 SP:FB STACK: 00 00 C6 28
E021  70 04     BVS $E027                       A:00 X:3E Y:00 P:27 SP:FB STACK: 00 00 C6 28
E023  90 02     BCC $E027                       A:00 X:3E Y:00 P:27 SP:FB STACK: 00 00 C6 28
E025  10 02     BPL $E029                       A:00 X:3E Y:00 P:27 SP:FB STACK: 00 00 C6 28
E029  E8        INX                             A:00 X:3E Y:00 P:27 SP:FB STACK: 00 00 C6 28
E02A  18        CLC                             A:00 X:3F Y:00 P:25 SP:FB STACK: 00 00 C6 28
E02B  24 01     BIT $01 = FF                    A:00 X:3F Y:00 P:24 SP:FB STACK: 00 00 C6 28
E02D  A9 69     LDA #$69                        A:00 X:3F Y:00 P:E6 SP:FB STACK: 00 00 C6 28
E02F  8D 00 04  STA $0400 = 70                  A:69 X:3F Y:00 P:64 SP:FB STACK: 00 00 C6 28
E032  A9 00     LDA #$00                        A:69 X:3F Y:00 P:64 SP:FB STACK: 00 00 C6 28
E034  79 00 04  ADC $0400,Y @ 0400 = 69         A:00 X:3F Y:00 P:66 SP:FB STACK: 00 00 C6 28
E037  30 08     BMI $E041                       A:69 X:3F Y:00 P:24 SP:FB STACK: 00 00 C6 28
E039  B0 06     BCS $E041                       A:69 X:3F Y:00 P:24 SP:FB STACK: 00 00 C6 28
E03B  C9 69     CMP #$69                        A:69 X:3F Y:00 P:24 SP:FB STACK: 00 00 C6 28
E03D  D0 02     BNE $E041                       A:69 X:3F Y:00 P:27 SP:FB STACK: 00 00 C6 28
E03F  50 02     BVC $E043                       A:69 X:3F Y:00 P:27 SP:FB STACK: 00 00 C6 28
E043  E8        INX                             A:69 X:3F Y:00 P:27 SP:FB STACK: 00 00 C6 28
E044  38        SEC                             A:69 X:40 Y:00 P:25 SP:FB STACK: 00 00 C6 28
E045  24 01     BIT $01 = FF                    A:69 X:40 Y:00 P:25 SP:FB STACK: 00 00 C6 28
E047  A9 00     LDA #$00                        A:69 X:40 Y:00 P:E5 SP:FB STACK: 00 00 C6 28
E049  79 00 04  ADC $0400,Y @ 0400 = 69         A:00 X:40 Y:00 P:67 SP:FB STACK: 00 00 C6 28
E04C  30 08     BMI $E056                       A:6A X:40 Y:00 P:24 SP:FB STACK: 00 00 C6 28
E04E  B0 06     BCS $E056                       A:6A X:40 Y:00 P:24 SP:FB STACK: 00 00 C6 28
E050  C9 6A     CMP #$6A                        A:6A X:40 Y:00 P:24 SP:FB STACK: 00 00 C6 28
E052  D0 02     BNE $E056                       A:6A X:40 Y:00 P:27 SP:FB STACK: 00 00 C6 28
E054  50 02     BVC $E058                       A:6A X:40 Y:00 P:27 SP:FB STACK: 00 00 C6 28
E058  E8        INX                             A:6A X:40 Y:00 P:27 SP:FB STACK: 00 00 C6 28
E059  38        SEC                             A:6A X:41 Y:00 P:25 SP:FB STACK: 00 00 C6 28
E05A  B8        CLV                             A:6A X:41 Y:00 P:25 SP:FB STACK: 00 00 C6 28
E05B  A9 7F     LDA #$7F                        A:6A X:41 Y:00 P:25 SP:FB STACK: 00 00 C6 28
E05D  8D 00 04  STA $0400 = 69                  A:7F X:41 Y:00 P:25 SP:FB STACK: 00 00 C6 28
E060  79 00 04  ADC $0400,Y @ 0400 = 7F         A:7F X:41 Y:00 P:25 SP:FB STACK: 00 00 C6 28
E063  10 08     BPL $E06D                       A:FF X:41 Y:00 P:E4 SP:FB STACK: 00 00 C6 28
E065  B0 06     BCS $E06D                       A:FF X:41 Y:00 P:E4 SP:FB STACK: 00 00 C6 28
E067  C9 FF     CMP #$FF                        A:FF X:41 Y:00 P:E4 SP:FB STACK: 00 00 C6 28
E069  D0 02     BNE $E06D                       A:FF X:41 Y:00 P:67 SP:FB STACK: 00 00 C6 28
E06B  70 02     BVS $E06F                       A:FF X:41 Y:00 P:67 SP:FB STACK: 00 00 C6 28
E06F  E8        INX                             A:FF X:41 Y:00 P:67 SP:FB STACK: 00 00 C6 28
E070  18        CLC                             A:FF X:42 Y:00 P:65 SP:FB STACK: 00 00 C6 28
E071  24 01     BIT $01 = FF                    A:FF X:42 Y:00 P:64 SP:FB STACK: 00 00 C6 28
E073  A9 80     LDA #$80                        A:FF X:42 Y:00 P:E4 SP:FB STACK: 00 00 C6 28
E075  8D 00 04  STA $0400 = 7F                  A:80 X:42 Y:00 P:E4 SP:FB STACK: 00 00 C6 28
E078  A9 7F     LDA #$7F                        A:80 X:42 Y:00 P:E4 SP:FB STACK: 00 00 C6 28
E07A  79 00 04  ADC $0400,Y @ 0400 = 80         A:7F X:42 Y:00 P:64 SP:FB STACK: 00 00 C6 28
E07D  10 08     BPL $E087                       A:FF X:42 Y:00 P:A4 SP:FB STACK: 00 00 C6 28
E07F  B0 06     BCS $E087                       A:FF X:42 Y:00 P:A4 SP:FB STACK: 00 00 C6 28
E081  C9 FF     CMP #$FF                        A:FF X:42 Y:00 P:A4 SP:FB STACK: 00 00 C6 28
E083  D0 02     BNE $E087                       A:FF X:42 Y:00 P:27 SP:FB STACK: 00 00 C6 28
E085  50 02     BVC $E089                       A:FF X:42 Y:00 P:27 SP:FB STACK: 00 00 C6 28
E089  E8        INX                             A:FF X:42 Y:00 P:27 SP:FB STACK: 00 00 C6 28
E08A  38        SEC                             A:FF X:43 Y:00 P:25 SP:FB STACK: 00 00 C6 28
E08B  B8        CLV                             A:FF X:43 Y:00 P:25 SP:FB STACK: 00 00 C6 28
E08C  A9 80     LDA #$80                        A:FF X:43 Y:00 P:25 SP:FB STACK: 00 00 C6 28
E08E  8D 00 04  STA $0400 = 80                  A:80 X:43 Y:00 P:A5 SP:FB STACK: 00 00 C6 28
E091  A9 7F     LDA #$7F                        A:80 X:43 Y:00 P:A5 SP:FB STACK: 00 00 C6 28
E093  79 00 04  ADC $0400,Y @ 0400 = 80         A:7F X:43 Y:00 P:25 SP:FB STACK: 00 00 C6 28
E096  D0 06     BNE $E09E                       A:00 X:43 Y:00 P:27 SP:FB STACK: 00 00 C6 28
E098  30 04     BMI $E09E                       A:00 X:43 Y:00 P:27 SP:FB STACK: 00 00 C6 28
E09A  70 02     BVS $E09E                       A:00 X:43 Y:00 P:27 SP:FB STACK: 00 00 C6 28
E09C  B0 02     BCS $E0A0                       A:00 X:43 Y:00 P:27 SP:FB STACK: 00 00 C6 28
E0A0  E8        INX                             A:00 X:43 Y:00 P:27 SP:FB STACK: 00 00 C6 28
E0A1  24 01     BIT $01 = FF                    A:00 X:44 Y:00 P:25 SP:FB STACK: 00 00 C6 28
E0A3  A9 40     LDA #$40                        A:00 X:44 Y:00 P:E7 SP:FB STACK: 00 00 C6 28
E0A5  8D 00 04  STA $0400 = 80                  A:40 X:44 Y:00 P:65 SP:FB STACK: 00 00 C6 28
E0A8  D9 00 04  CMP $0400,Y @ 0400 = 40         A:40 X:44 Y:00 P:65 SP:FB STACK: 00 00 C6 28
E0AB  30 06     BMI $E0B3                       A:40 X:44 Y:00 P:67 SP:FB STACK: 00 00 C6 28
E0AD  90 04     BCC $E0B3                       A:40 X:44 Y:00 P:67 SP:FB STACK: 00 00 C6 28
E0AF  D0 02     BNE $E0B3                       A:40 X:44 Y:00 P:67 SP:FB STACK: 00 00 C6 28
E0B1  70 02     BVS $E0B5                       A:40 X:44 Y:00 P:67 SP:FB STACK: 00 00 C6 28
E0B5  E8        INX                             A:40 X:44 Y:00 P:67 SP:FB STACK: 00 00 C6 28
E0B6  B8        CLV                             A:40 X:45 Y:00 P:65 SP:FB STACK: 00 00 C6 28
E0B7  CE 00 04  DEC $0400 = 40                  A:40 X:45 Y:00 P:25 SP:FB STACK: 00 00 C6 28
E0BA  D9 00 04  CMP $0400,Y @ 0400 = 3F         A:40 X:45 Y:00 P:25 SP:FB STACK: 00 00 C6 28
E0BD  F0 06     BEQ $E0C5                       A:40 X:45 Y:00 P:25 SP:FB STACK: 00 00 C6 28
E0BF  30 04     BMI $E0C5                       A:40 X:45 Y:00 P:25 SP:FB STACK: 00 00 C6 28
E0C1  90 02     BCC $E0C5                       A:40 X:45 Y:00 P:25 SP:FB STACK: 00 00 C6 28
E0C3  50 02     BVC $E0C7                       A:40 X:45 Y:00 P:25 SP:FB STACK: 00 00 C6 28
E0C7  E8        INX                             A:40 X:45 Y:00 P:25 SP:FB STACK: 00 00 C6 28
E0C8  EE 00 04  INC $0400 = 3F                  A:40 X:46 Y:00 P:25 SP:FB STACK: 00 00 C6 28
E0CB  EE 00 04  INC $0400 = 40                  A:40 X:46 Y:00 P:25 SP:FB STACK: 00 00 C6 28
E0CE  D9 00 04  CMP $0400,Y @ 0400 = 41         A:40 X:46 Y:00 P:25 SP:FB STACK: 00 00 C6 28
E0D1  F0 02     BEQ $E0D5                       A:40 X:46 Y:00 P:A4 SP:FB STACK: 00 00 C6 28
E0D3  30 02     BMI $E0D7                       A:40 X:46 Y:00 P:A4 SP:FB STACK: 00 00 C6 28
E0D7  E8        INX                             A:40 X:46 Y:00 P:A4 SP:FB STACK: 00 00 C6 28
E0D8  A9 00     LDA #$00                        A:40 X:47 Y:00 P:24 SP:FB STACK: 00 00 C6 28
E0DA  8D 00 04  STA $0400 = 41                  A:00 X:47 Y:00 P:26 SP:FB STACK: 00 00 C6 28
E0DD  A9 80     LDA #$80                        A:00 X:47 Y:00 P:26 SP:FB STACK: 00 00 C6 28
E0DF  D9 00 04  CMP $0400,Y @ 0400 = 00         A:80 X:47 Y:00 P:A4 SP:FB STACK: 00 00 C6 28
E0E2  F0 04     BEQ $E0E8                       A:80 X:47 Y:00 P:A5 SP:FB STACK: 00 00 C6 28
E0E4  10 02     BPL $E0E8                       A:80 X:47 Y:00 P:A5 SP:FB STACK: 00 00 C6 28
E0E6  B0 02     BCS $E0EA                       A:80 X:47 Y:00 P:A5 SP:FB STACK: 00 00 C6 28
E0EA  E8        INX                             A:80 X:47 Y:00 P:A5 SP:FB STACK: 00 00 C6 28
E0EB  A0 80     LDY #$80                        A:80 X:48 Y:00 P:25 SP:FB STACK: 00 00 C6 28
E0ED  8C 00 04  STY $0400 = 00                  A:80 X:48 Y:80 P:A5 SP:FB STACK: 00 00 C6 28
E0F0  A0 00     LDY #$00                        A:80 X:48 Y:80 P:A5 SP:FB STACK: 00 00 C6 28
E0F2  D9 00 04  CMP $0400,Y @ 0400 = 80         A:80 X:48 Y:00 P:27 SP:FB STACK: 00 00 C6 28
E0F5  D0 04     BNE $E0FB                       A:80 X:48 Y:00 P:27 SP:FB STACK: 00 00 C6 28
E0F7  30 02     BMI $E0FB                       A:80 X:48 Y:00 P:27 SP:FB STACK: 00 00 C6 28
E0F9  B0 02     BCS $E0FD                       A:80 X:48 Y:00 P:27 SP:FB STACK: 00 00 C6 28
E0FD  E8        INX                             A:80 X:48 Y:00 P:27 SP:FB STACK: 00 00 C6 28
E0FE  EE 00 04  INC $0400 = 80                  A:80 X:49 Y:00 P:25 SP:FB STACK: 00 00 C6 28
E101  D9 00 04  CMP $0400,Y @ 0400 = 81         A:80 X:49 Y:00 P:A5 SP:FB STACK: 00 00 C6 28
E104  B0 04     BCS $E10A                       A:80 X:49 Y:00 P:A4 SP:FB STACK: 00 00 C6 28
E106  F0 02     BEQ $E10A                       A:80 X:49 Y:00 P:A4 SP:FB STACK: 00 00 C6 28
E108  30 02     BMI $E10C                       A:80 X:49 Y:00 P:A4 SP:FB STACK: 00 00 C6 28
E10C  E8        INX                             A:80 X:49 Y:00 P:A4 SP:FB STACK: 00 00 C6 28
E10D  CE 00 04  DEC $0400 = 81                  A:80 X:4A Y:00 P:24 SP:FB STACK: 00 00 C6 28
E110  CE 00 04  DEC $0400 = 80                  A:80 X:4A Y:00 P:A4 SP:FB STACK: 00 00 C6 28
E113  D9 00 04  CMP $0400,Y @ 0400 = 7F         A:80 X:4A Y:00 P:24 SP:FB STACK: 00 00 C6 28
E116  90 04     BCC $E11C                       A:80 X:4A Y:00 P:25 SP:FB STACK: 00 00 C6 28
E118  F0 02     BEQ $E11C                       A:80 X:4A Y:00 P:25 SP:FB STACK: 00 00 C6 28
E11A  10 02     BPL $E11E                       A:80 X:4A Y:00 P:25 SP:FB STACK: 00 00 C6 28
E11E  E8        INX                             A:80 X:4A Y:00 P:25 SP:FB STACK: 00 00 C6 28
E11F  24 01     BIT $01 = FF                    A:80 X:4B Y:00 P:25 SP:FB STACK: 00 00 C6 28
E121  A9 40     LDA #$40                        A:80 X:4B Y:00 P:E5 SP:FB STACK: 00 00 C6 28
E123  8D 00 04  STA $0400 = 7F                  A:40 X:4B Y:00 P:65 SP:FB STACK: 00 00 C6 28
E126  38        SEC                             A:40 X:4B Y:00 P:65 SP:FB STACK: 00 00 C6 28
E127  F9 00 04  SBC $0400,Y @ 0400 = 40         A:40 X:4B Y:00 P:65 SP:FB STACK: 00 00 C6 28
E12A  30 0A     BMI $E136                       A:00 X:4B Y:00 P:27 SP:FB STACK: 00 00 C6 28
E12C  90 08     BCC $E136                       A:00 X:4B Y:00 P:27 SP:FB STACK: 00 00 C6 28
E12E  D0 06     BNE $E136                       A:00 X:4B Y:00 P:27 SP:FB STACK: 00 00 C6 28
E130  70 04     BVS $E136                       A:00 X:4B Y:00 P:27 SP:FB STACK: 00 00 C6 28
E132  C9 00     CMP #$00                        A:00 X:4B Y:00 P:27 SP:FB STACK: 00 00 C6 28
E134  F0 02     BEQ $E138                       A:00 X:4B Y:00 P:27 SP:FB STACK: 00 00 C6 28
E138  E8        INX                             A:00 X:4B Y:00 P:27 SP:FB STACK: 00 00 C6 28
E139  B8        CLV                             A:00 X:4C Y:00 P:25 SP:FB STACK: 00 00 C6 28
E13A  38        SEC                             A:00 X:4C Y:00 P:25 SP:FB STACK: 00 00 C6 28
E13B  A9 40     LDA #$40                        A:00 X:4C Y:00 P:25 SP:FB STACK: 00 00 C6 28
E13D  CE 00 04  DEC $0400 = 40                  A:40 X:4C Y:00 P:25 SP:FB STACK: 00 00 C6 28
E140  F9 00 04  SBC $0400,Y @ 0400 = 3F         A:40 X:4C Y:00 P:25 SP:FB STACK: 00 00 C6 28
E143  F0 0A     BEQ $E14F                       A:01 X:4C Y:00 P:25 SP:FB STACK: 00 00 C6 28
E145  30 08     BMI $E14F                       A:01 X:4C Y:00 P:25 SP:FB STACK: 00 00 C6 28
E147  90 06     BCC $E14F                       A:01 X:4C Y:00 P:25 SP:FB STACK: 00 00 C6 28
E149  70 04     BVS $E14F                       A:01 X:4C Y:00 P:25 SP:FB STACK: 00 00 C6 28
E14B  C9 01     CMP #$01                        A:01 X:4C Y:00 P:25 SP:FB STACK: 00 00 C6 28
E14D  F0 02     BEQ $E151                       A:01 X:4C Y:00 P:27 SP:FB STACK: 00 00 C6 28
E151  E8        INX                             A:01 X:4C Y:00 P:27 SP:FB STACK: 00 00 C6 28
E152  A9 40     LDA #$40                        A:01 X:4D Y:00 P:25 SP:FB STACK: 00 00 C6 28
E154  38        SEC                             A:40 X:4D Y:00 P:25 SP:FB STACK: 00 00 C6 28
E155  24 01     BIT $01 = FF                    A:40 X:4D Y:00 P:25 SP:FB STACK: 00 00 C6 28
E157  EE 00 04  INC $0400 = 3F                  A:40 X:4D Y:00 P:E5 SP:FB STACK: 00 00 C6 28
E15A  EE 00 04  INC $0400 = 40                  A:40 X:4D Y:00 P:65 SP:FB STACK: 00 00 C6 28
E15D  F9 00 04  SBC $0400,Y @ 0400 = 41         A:40 X:4D Y:00 P:65 SP:FB STACK: 00 00 C6 28
E160  B0 0A     BCS $E16C                       A:FF X:4D Y:00 P:A4 SP:FB STACK: 00 00 C6 28
E162  F0 08     BEQ $E16C                       A:FF X:4D Y:00 P:A4 SP:FB STACK: 00 00 C6 28
E164  10 06     BPL $E16C                       A:FF X:4D Y:00 P:A4 SP:FB STACK: 00 00 C6 28
E166  70 04     BVS $E16C                       A:FF X:4D Y:00 P:A4 SP:FB STACK: 00 00 C6 28
E168  C9 FF     CMP #$FF                        A:FF X:4D Y:00 P:A4 SP:FB STACK: 00 00 C6 28
E16A  F0 02     BEQ $E16E                       A:FF X:4D Y:00 P:27 SP:FB STACK: 00 00 C6 28
E16E  E8        INX                             A:FF X:4D Y:00 P:27 SP:FB STACK: 00 00 C6 28
E16F  18        CLC                             A:FF X:4E Y:00 P:25 SP:FB STACK: 00 00 C6 28
E170  A9 00     LDA #$00                        A:FF X:4E Y:00 P:24 SP:FB STACK: 00 00 C6 28
E172  8D 00 04  STA $0400 = 41                  A:00 X:4E Y:00 P:26 SP:FB STACK: 00 00 C6 28
E175  A9 80     LDA #$80                        A:00 X:4E Y:00 P:26 SP:FB STACK: 00 00 C6 28
E177  F9 00 04  SBC $0400,Y @ 0400 = 00         A:80 X:4E Y:00 P:A4 SP:FB STACK: 00 00 C6 28
E17A  90 04     BCC $E180                       A:7F X:4E Y:00 P:65 SP:FB STACK: 00 00 C6 28
E17C  C9 7F     CMP #$7F                        A:7F X:4E Y:00 P:65 SP:FB STACK: 00 00 C6 28
E17E  F0 02     BEQ $E182                       A:7F X:4E Y:00 P:67 SP:FB STACK: 00 00 C6 28
E182  E8        INX                             A:7F X:4E Y:00 P:67 SP:FB STACK: 00 00 C6 28
E183  38        SEC                             A:7F X:4F Y:00 P:65 SP:FB STACK: 00 00 C6 28
E184  A9 7F     LDA #$7F                        A:7F X:4F Y:00 P:65 SP:FB STACK: 00 00 C6 28
E186  8D 00 04  STA $0400 = 00                  A:7F X:4F Y:00 P:65 SP:FB STACK: 00 00 C6 28
E189  A9 81     LDA #$81                        A:7F X:4F Y:00 P:65 SP:FB STACK: 00 00 C6 28
E18B  F9 00 04  SBC $0400,Y @ 0400 = 7F         A:81 X:4F Y:00 P:E5 SP:FB STACK: 00 00 C6 28
E18E  50 06     BVC $E196                       A:02 X:4F Y:00 P:65 SP:FB STACK: 00 00 C6 28
E190  90 04     BCC $E196                       A:02 X:4F Y:00 P:65 SP:FB STACK: 00 00 C6 28
E192  C9 02     CMP #$02                        A:02 X:4F Y:00 P:65 SP:FB STACK: 00 00 C6 28
E194  F0 02     BEQ $E198                       A:02 X:4F Y:00 P:67 SP:FB STACK: 00 00 C6 28
E198  E8        INX                             A:02 X:4F Y:00 P:67 SP:FB STACK: 00 00 C6 28
E199  A9 00     LDA #$00                        A:02 X:50 Y:00 P:65 SP:FB STACK: 00 00 C6 28
E19B  A9 87     LDA #$87                        A:00 X:50 Y:00 P:67 SP:FB STACK: 00 00 C6 28
E19D  99 00 04  STA $0400,Y @ 0400 = 7F         A:87 X:50 Y:00 P:E5 SP:FB STACK: 00 00 C6 28
E1A0  AD 00 04  LDA $0400 = 87                  A:87 X:50 Y:00 P:E5 SP:FB STACK: 00 00 C6 28
E1A3  C9 87     CMP #$87                        A:87 X:50 Y:00 P:E5 SP:FB STACK: 00 00 C6 28
E1A5  F0 02     BEQ $E1A9                       A:87 X:50 Y:00 P:67 SP:FB STACK: 00 00 C6 28
E1A9  60        RTS                             A:87 X:50 Y:00 P:67 SP:FB STACK: 00 00 C6 28
C629  20 B8 DB  JSR $DBB8                       A:87 X:50 Y:00 P:67 SP:FD STACK: 00 00
DBB8  A9 FF     LDA #$FF                        A:87 X:50 Y:00 P:67 SP:FB STACK: 00 00 C6 2B
DBBA  85 01     STA $01 = FF                    A:FF X:50 Y:00 P:E5 SP:FB STACK: 00 00 C6 2B
DBBC  A9 AA     LDA #$AA                        A:FF X:50 Y:00 P:E5 SP:FB STACK: 00 00 C6 2B
DBBE  85 33     STA $33 = A3                    A:AA X:50 Y:00 P:E5 SP:FB STACK: 00 00 C6 2B
DBC0  A9 BB     LDA #$BB                        A:AA X:50 Y:00 P:E5 SP:FB STACK: 00 00 C6 2B
DBC2  85 89     STA $89 = BB                    A:BB X:50 Y:00 P:E5 SP:FB STACK: 00 00 C6 2B
DBC4  A2 00     LDX #$00                        A:BB X:50 Y:00 P:E5 SP:FB STACK: 00 00 C6 2B
DBC6  A9 66     LDA #$66                        A:BB X:00 Y:00 P:67 SP:FB STACK: 00 00 C6 2B
DBC8  24 01     BIT $01 = FF                    A:66 X:00 Y:00 P:65 SP:FB STACK: 00 00 C6 2B
DBCA  38        SEC                             A:66 X:00 Y:00 P:E5 SP:FB STACK: 00 00 C6 2B
DBCB  A0 00     LDY #$00                        A:66 X:00 Y:00 P:E5 SP:FB STACK: 00 00 C6 2B
DBCD  B4 33     LDY $33,X @ 0033 = AA           A:66 X:00 Y:00 P:67 SP:FB STACK: 00 00 C6 2B
DBCF  10 12     BPL $DBE3                       A:66 X:00 Y:AA P:E5 SP:FB STACK: 00 00 C6 2B
DBD1  F0 10     BEQ $DBE3                       A:66 X:00 Y:AA P:E5 SP:FB STACK: 00 00 C6 2B
DBD3  50 0E     BVC $DBE3                       A:66 X:00 Y:AA P:E5 SP:FB STACK: 00 00 C6 2B
DBD5  90 0C     BCC $DBE3                       A:66 X:00 Y:AA P:E5 SP:FB STACK: 00 00 C6 2B
DBD7  C9 66     CMP #$66                        A:66 X:00 Y:AA P:E5 SP:FB STACK: 00 00 C6 2B
DBD9  D0 08     BNE $DBE3                       A:66 X:00 Y:AA P:67 SP:FB STACK: 00 00 C6 2B
DBDB  E0 00     CPX #$00                        A:66 X:00 Y:AA P:67 SP:FB STACK: 00 00 C6 2B
DBDD  D0 04     BNE $DBE3                       A:66 X:00 Y:AA P:67 SP:FB STACK: 00 00 C6 2B
DBDF  C0 AA     CPY #$AA                        A:66 X:00 Y:AA P:67 SP:FB STACK: 00 00 C6 2B
DBE1  F0 04     BEQ $DBE7                       A:66 X:00 Y:AA P:67 SP:FB STACK: 00 00 C6 2B
DBE7  A2 8A     LDX #$8A                        A:66 X:00 Y:AA P:67 SP:FB STACK: 00 00 C6 2B
DBE9  A9 66     LDA #$66                        A:66 X:8A Y:AA P:E5 SP:FB STACK: 00 00 C6 2B
DBEB  B8        CLV                             A:66 X:8A Y:AA P:65 SP:FB STACK: 00 00 C6 2B
DBEC  18        CLC                             A:66 X:8A Y:AA P:25 SP:FB STACK: 00 00 C6 2B
DBED  A0 00     LDY #$00                        A:66 X:8A Y:AA P:24 SP:FB STACK: 00 00 C6 2B
DBEF  B4 FF     LDY $89,X @ 0113 = BB           A:66 X:8A Y:00 P:26 SP:FB STACK: 00 00 C6 2B
DBF1  10 12     BPL $DC05                       A:66 X:8A Y:BB P:A4 SP:FB STACK: 00 00 C6 2B
DBF3  F0 10     BEQ $DC05                       A:66 X:8A Y:BB P:A4 SP:FB STACK: 00 00 C6 2B
DBF5  70 0E     BVS $DC05                       A:66 X:8A Y:BB P:A4 SP:FB STACK: 00 00 C6 2B
DBF7  B0 0C     BCS $DC05                       A:66 X:8A Y:BB P:A4 SP:FB STACK: 00 00 C6 2B
DBF9  C0 BB     CPY #$BB                        A:66 X:8A Y:BB P:A4 SP:FB STACK: 00 00 C6 2B
DBFB  D0 08     BNE $DC05                       A:66 X:8A Y:BB P:27 SP:FB STACK: 00 00 C6 2B
DBFD  C9 66     CMP #$66                        A:66 X:8A Y:BB P:27 SP:FB STACK: 00 00 C6 2B
DBFF  D0 04     BNE $DC05                       A:66 X:8A Y:BB P:27 SP:FB STACK: 00 00 C6 2B
DC01  E0 8A     CPX #$8A                        A:66 X:8A Y:BB P:27 SP:FB STACK: 00 00 C6 2B
DC03  F0 04     BEQ $DC09                       A:66 X:8A Y:BB P:27 SP:FB STACK: 00 00 C6 2B
DC09  24 01     BIT $01 = FF                    A:66 X:8A Y:BB P:27 SP:FB STACK: 00 00 C6 2B
DC0B  38        SEC                             A:66 X:8A Y:BB P:E5 SP:FB STACK: 00 00 C6 2B
DC0C  A0 44     LDY #$44                        A:66 X:8A Y:BB P:E5 SP:FB STACK: 00 00 C6 2B
DC0E  A2 00     LDX #$00                        A:66 X:8A Y:44 P:65 SP:FB STACK: 00 00 C6 2B
DC10  94 33     STY $33,X @ 0033 = AA           A:66 X:00 Y:44 P:67 SP:FB STACK: 00 00 C6 2B
DC12  A5 33     LDA $33 = 44                    A:66 X:00 Y:44 P:67 SP:FB STACK: 00 00 C6 2B
DC14  90 18     BCC $DC2E                       A:44 X:00 Y:44 P:65 SP:FB STACK: 00 00 C6 2B
DC16  C9 44     CMP #$44                        A:44 X:00 Y:44 P:65 SP:FB STACK: 00 00 C6 2B
DC18  D0 14     BNE $DC2E                       A:44 X:00 Y:44 P:67 SP:FB STACK: 00 00 C6 2B
DC1A  50 12     BVC $DC2E                       A:44 X:00 Y:44 P:67 SP:FB STACK: 00 00 C6 2B
DC1C  18        CLC                             A:44 X:00 Y:44 P:67 SP:FB STACK: 00 00 C6 2B
DC1D  B8        CLV                             A:44 X:00 Y:44 P:66 SP:FB STACK: 00 00 C6 2B
DC1E  A0 99     LDY #$99                        A:44 X:00 Y:44 P:26 SP:FB STACK: 00 00 C6 2B
DC20  A2 80     LDX #$80                        A:44 X:00 Y:99 P:A4 SP:FB STACK: 00 00 C6 2B
DC22  94 85     STY $05,X @ 0085 = 99           A:44 X:80 Y:99 P:A4 SP:FB STACK: 00 00 C6 2B
DC24  A5 05     LDA $05 = 99                    A:44 X:80 Y:99 P:A4 SP:FB STACK: 00 00 C6 2B
DC26  B0 06     BCS $DC2E                       A:99 X:80 Y:99 P:A4 SP:FB STACK: 00 00 C6 2B
DC28  C9 99     CMP #$99                        A:99 X:80 Y:99 P:A4 SP:FB STACK: 00 00 C6 2B
DC2A  D0 02     BNE $DC2E                       A:99 X:80 Y:99 P:27 SP:FB STACK: 00 00 C6 2B
DC2C  50 04     BVC $DC32                       A:99 X:80 Y:99 P:27 SP:FB STACK: 00 00 C6 2B
DC32  A0 0B     LDY #$0B                        A:99 X:80 Y:99 P:27 SP:FB STACK: 00 00 C6 2B
DC34  A9 AA     LDA #$AA                        A:99 X:80 Y:0B P:25 SP:FB STACK: 00 00 C6 2B
DC36  A2 78     LDX #$78                        A:AA X:80 Y:0B P:A5 SP:FB STACK: 00 00 C6 2B
DC38  85 78     STA $78 = 33                    A:AA X:78 Y:0B P:25 SP:FB STACK: 00 00 C6 2B
DC3A  20 B6 F7  JSR $F7B6                       A:AA X:78 Y:0B P:25 SP:FB STACK: 00 00 C6 2B
F7B6  18        CLC                             A:AA X:78 Y:0B P:25 SP:F9 STACK: 00 00 C6 2B DC 3C
F7B7  A9 FF     LDA #$FF                        A:AA X:78 Y:0B P:24 SP:F9 STACK: 00 00 C6 2B DC 3C
F7B9  85 01     STA $01 = FF                    A:FF X:78 Y:0B P:A4 SP:F9 STACK: 00 00 C6 2B DC 3C
F7BB  24 01     BIT $01 = FF                    A:FF X:78 Y:0B P:A4 SP:F9 STACK: 00 00 C6 2B DC 3C
F7BD  A9 55     LDA #$55                        A:FF X:78 Y:0B P:E4 SP:F9 STACK: 00 00 C6 2B DC 3C
F7BF  60        RTS                             A:55 X:78 Y:0B P:64 SP:F9 STACK: 00 00 C6 2B DC 3C
DC3D  15 00     ORA $78,X @ 00F0 = AA           A:55 X:78 Y:0B P:64 SP:FB STACK: 00 00 C6 2B
DC3F  20 C0 F7  JSR $F7C0                       A:FF X:78 Y:0B P:E4 SP:FB STACK: 00 00 C6 2B
F7C0  B0 09     BCS $F7CB                       A:FF X:78 Y:0B P:E4 SP:F9 STACK: 00 00 C6 2B DC 41
F7C2  10 07     BPL $F7CB                       A:FF X:78 Y:0B P:E4 SP:F9 STACK: 00 00 C6 2B DC 41
F7C4  C9 FF     CMP #$FF                        A:FF X:78 Y:0B P:E4 SP:F9 STACK: 00 00 C6 2B DC 41
F7C6  D0 03     BNE $F7CB                       A:FF X:78 Y:0B P:67 SP:F9 STACK: 00 00 C6 2B DC 41
F7C8  50 01     BVC $F7CB                       A:FF X:78 Y:0B P:67 SP:F9 STACK: 00 00 C6 2B DC 41
F7CA  60        RTS                             A:FF X:78 Y:0B P:67 SP:F9 STACK: 00 00 C6 2B DC 41
DC42  C8        INY                             A:FF X:78 Y:0B P:67 SP:FB STACK: 00 00 C6 2B
DC43  A9 00     LDA #$00                        A:FF X:78 Y:0C P:65 SP:FB STACK: 00 00 C6 2B
DC45  85 78     STA $78 = AA                    A:00 X:78 Y:0C P:67 SP:FB STACK: 00 00 C6 2B
DC47  20 CE F7  JSR $F7CE                       A:00 X:78 Y:0C P:67 SP:FB STACK: 00 00 C6 2B
F7CE  38        SEC                             A:00 X:78 Y:0C P:67 SP:F9 STACK: 00 00 C6 2B DC 49
F7CF  B8        CLV                             A:00 X:78 Y:0C P:67 SP:F9 STACK: 00 00 C6 2B DC 49
F7D0  A9 00     LDA #$00                        A:00 X:78 Y:0C P:27 SP:F9 STACK: 00 00 C6 2B DC 49
F7D2  60        RTS                             A:00 X:78 Y:0C P:27 SP:F9 STACK: 00 00 C6 2B DC 49
DC4A  15 00     ORA $78,X @ 00F0 = 00           A:00 X:78 Y:0C P:27 SP:FB STACK: 00 00 C6 2B
DC4C  20 D3 F7  JSR $F7D3                       A:00 X:78 Y:0C P:27 SP:FB STACK: 00 00 C6 2B
F7D3  D0 07     BNE $F7DC                       A:00 X:78 Y:0C P:27 SP:F9 STACK: 00 00 C6 2B DC 4E
F7D5  70 05     BVS $F7DC                       A:00 X:78 Y:0C P:27 SP:F9 STACK: 00 00 C6 2B DC 4E
F7D7  90 03     BCC $F7DC                       A:00 X:78 Y:0C P:27 SP:F9 STACK: 00 00 C6 2B DC 4E
F7D9  30 01     BMI $F7DC                       A:00 X:78 Y:0C P:27 SP:F9 STACK: 00 00 C6 2B DC 4E
F7DB  60        RTS                             A:00 X:78 Y:0C P:27 SP:F9 STACK: 00 00 C6 2B DC 4E
DC4F  C8        INY                             A:00 X:78 Y:0C P:27 SP:FB STACK: 00 00 C6 2B
DC50  A9 AA     LDA #$AA                        A:00 X:78 Y:0D P:25 SP:FB STACK: 00 00 C6 2B
DC52  85 78     STA $78 = 00                    A:AA X:78 Y:0D P:A5 SP:FB STACK: 00 00 C6 2B
DC54  20 DF F7  JSR $F7DF                       A:AA X:78 Y:0D P:A5 SP:FB STACK: 00 00 C6 2B
F7DF  18        CLC                             A:AA X:78 Y:0D P:A5 SP:F9 STACK: 00 00 C6 2B DC 56
F7E0  24 01     BIT $01 = FF                    A:AA X:78 Y:0D P:A4 SP:F9 STACK: 00 00 C6 2B DC 56
F7E2  A9 55     LDA #$55                        A:AA X:78 Y:0D P:E4 SP:F9 STACK: 00 00 C6 2B DC 56
F7E4  60        RTS                             A:55 X:78 Y:0D P:64 SP:F9 STACK: 00 00 C6 2B DC 56
DC57  35 00     AND $78,X @ 00F0 = AA           A:55 X:78 Y:0D P:64 SP:FB STACK: 00 00 C6 2B
DC59  20 E5 F7  JSR $F7E5                       A:00 X:78 Y:0D P:66 SP:FB STACK: 00 00 C6 2B
F7E5  D0 07     BNE $F7EE                       A:00 X:78 Y:0D P:66 SP:F9 STACK: 00 00 C6 2B DC 5B
F7E7  50 05     BVC $F7EE                       A:00 X:78 Y:0D P:66 SP:F9 STACK: 00 00 C6 2B DC 5B
F7E9  B0 03     BCS $F7EE                       A:00 X:78 Y:0D P:66 SP:F9 STACK: 00 00 C6 2B DC 5B
F7EB  30 01     BMI $F7EE                       A:00 X:78 Y:0D P:66 SP:F9 STACK: 00 00 C6 2B DC 5B
F7ED  60        RTS                             A:00 X:78 Y:0D P:66 SP:F9 STACK: 00 00 C6 2B DC 5B
DC5C  C8        INY                             A:00 X:78 Y:0D P:66 SP:FB STACK: 00 00 C6 2B
DC5D  A9 EF     LDA #$EF                        A:00 X:78 Y:0E P:64 SP:FB STACK: 00 00 C6 2B
DC5F  85 78     STA $78 = AA                    A:EF X:78 Y:0E P:E4 SP:FB STACK: 00 00 C6 2B
DC61  20 F1 F7  JSR $F7F1                       A:EF X:78 Y:0E P:E4 SP:FB STACK: 00 00 C6 2B
F7F1  38        SEC                             A:EF X:78 Y:0E P:E4 SP:F9 STACK: 00 00 C6 2B DC 63
F7F2  B8        CLV                             A:EF X:78 Y:0E P:E5 SP:F9 STACK: 00 00 C6 2B DC 63
F7F3  A9 F8     LDA #$F8                        A:EF X:78 Y:0E P:A5 SP:F9 STACK: 00 00 C6 2B DC 63
F7F5  60        RTS                             A:F8 X:78 Y:0E P:A5 SP:F9 STACK: 00 00 C6 2B DC 63
DC64  35 00     AND $78,X @ 00F0 = EF           A:F8 X:78 Y:0E P:A5 SP:FB STACK: 00 00 C6 2B
DC66  20 F6 F7  JSR $F7F6                       A:E8 X:78 Y:0E P:A5 SP:FB STACK: 00 00 C6 2B
F7F6  90 09     BCC $F801                       A:E8 X:78 Y:0E P:A5 SP:F9 STACK: 00 00 C6 2B DC 68
F7F8  10 07     BPL $F801                       A:E8 X:78 Y:0E P:A5 SP:F9 STACK: 00 00 C6 2B DC 68
F7FA  C9 E8     CMP #$E8                        A:E8 X:78 Y:0E P:A5 SP:F9 STACK: 00 00 C6 2B DC 68
F7FC  D0 03     BNE $F801                       A:E8 X:78 Y:0E P:27 SP:F9 STACK: 00 00 C6 2B DC 68
F7FE  70 01     BVS $F801                       A:E8 X:78 Y:0E P:27 SP:F9 STACK: 00 00 C6 2B DC 68
F800  60        RTS                             A:E8 X:78 Y:0E P:27 SP:F9 STACK: 00 00 C6 2B DC 68
DC69  C8        INY                             A:E8 X:78 Y:0E P:27 SP:FB STACK: 00 00 C6 2B
DC6A  A9 AA     LDA #$AA                        A:E8 X:78 Y:0F P:25 SP:FB STACK: 00 00 C6 2B
DC6C  85 78     STA $78 = EF                    A:AA X:78 Y:0F P:A5 SP:FB STACK: 00 00 C6 2B
DC6E  20 04 F8  JSR $F804                       A:AA X:78 Y:0F P:A5 SP:FB STACK: 00 00 C6 2B
F804  18        CLC                             A:AA X:78 Y:0F P:A5 SP:F9 STACK: 00 00 C6 2B DC 70
F805  24 01     BIT $01 = FF                    A:AA X:78 Y:0F P:A4 SP:F9 STACK: 00 00 C6 2B DC 70
F807  A9 5F     LDA #$5F                        A:AA X:78 Y:0F P:E4 SP:F9 STACK: 00 00 C6 2B DC 70
F809  60        RTS                             A:5F X:78 Y:0F P:64 SP:F9 STACK: 00 00 C6 2B DC 70
DC71  55 00     EOR $78,X @ 00F0 = AA           A:5F X:78 Y:0F P:64 SP:FB STACK: 00 00 C6 2B
DC73  20 0A F8  JSR $F80A                       A:F5 X:78 Y:0F P:E4 SP:FB STACK: 00 00 C6 2B
F80A  B0 09     BCS $F815                       A:F5 X:78 Y:0F P:E4 SP:F9 STACK: 00 00 C6 2B DC 75
F80C  10 07     BPL $F815                       A:F5 X:78 Y:0F P:E4 SP:F9 STACK: 00 00 C6 2B DC 75
F80E  C9 F5     CMP #$F5                        A:F5 X:78 Y:0F P:E4 SP:F9 STACK: 00 00 C6 2B DC 75
F810  D0 03     BNE $F815                       A:F5 X:78 Y:0F P:67 SP:F9 STACK: 00 00 C6 2B DC 75
F812  50 01     BVC $F815                       A:F5 X:78 Y:0F P:67 SP:F9 STACK: 00 00 C6 2B DC 75
F814  60        RTS                             A:F5 X:78 Y:0F P:67 SP:F9 STACK: 00 00 C6 2B DC 75
DC76  C8        INY                             A:F5 X:78 Y:0F P:67 SP:FB STACK: 00 00 C6 2B
DC77  A9 70     LDA #$70                        A:F5 X:78 Y:10 P:65 SP:FB STACK: 00 00 C6 2B
DC79  85 78     STA $78 = AA                    A:70 X:78 Y:10 P:65 SP:FB STACK: 00 00 C6 2B
DC7B  20 18 F8  JSR $F818                       A:70 X:78 Y:10 P:65 SP:FB STACK: 00 00 C6 2B
F818  38        SEC                             A:70 X:78 Y:10 P:65 SP:F9 STACK: 00 00 C6 2B DC 7D
F819  B8        CLV                             A:70 X:78 Y:10 P:65 SP:F9 STACK: 00 00 C6 2B DC 7D
F81A  A9 70     LDA #$70                        A:70 X:78 Y:10 P:25 SP:F9 STACK: 00 00 C6 2B DC 7D
F81C  60        RTS                             A:70 X:78 Y:10 P:25 SP:F9 STACK: 00 00 C6 2B DC 7D
DC7E  55 00     EOR $78,X @ 00F0 = 70           A:70 X:78 Y:10 P:25 SP:FB STACK: 00 00 C6 2B
DC80  20 1D F8  JSR $F81D                       A:00 X:78 Y:10 P:27 SP:FB STACK: 00 00 C6 2B
F81D  D0 07     BNE $F826                       A:00 X:78 Y:10 P:27 SP:F9 STACK: 00 00 C6 2B DC 82
F81F  70 05     BVS $F826                       A:00 X:78 Y:10 P:27 SP:F9 STACK: 00 00 C6 2B DC 82
F821  90 03     BCC $F826                       A:00 X:78 Y:10 P:27 SP:F9 STACK: 00 00 C6 2B DC 82
F823  30 01     BMI $F826                       A:00 X:78 Y:10 P:27 SP:F9 STACK: 00 00 C6 2B DC 82
F825  60        RTS                             A:00 X:78 Y:10 P:27 SP:F9 STACK: 00 00 C6 2B DC 82
DC83  C8        INY                             A:00 X:78 Y:10 P:27 SP:FB STACK: 00 00 C6 2B
DC84  A9 69     LDA #$69                        A:00 X:78 Y:11 P:25 SP:FB STACK: 00 00 C6 2B
DC86  85 78     STA $78 = 70                    A:69 X:78 Y:11 P:25 SP:FB STACK: 00 00 C6 2B
DC88  20 29 F8  JSR $F829                       A:69 X:78 Y:11 P:25 SP:FB STACK: 00 00 C6 2B
F829  18        CLC                             A:69 X:78 Y:11 P:25 SP:F9 STACK: 00 00 C6 2B DC 8A
F82A  24 01     BIT $01 = FF                    A:69 X:78 Y:11 P:24 SP:F9 STACK: 00 00 C6 2B DC 8A
F82C  A9 00     LDA #$00                        A:69 X:78 Y:11 P:E4 SP:F9 STACK: 00 00 C6 2B DC 8A
F82E  60        RTS                             A:00 X:78 Y:11 P:66 SP:F9 STACK: 00 00 C6 2B DC 8A
DC8B  75 00     ADC $78,X @ 00F0 = 69           A:00 X:78 Y:11 P:66 SP:FB STACK: 00 00 C6 2B
DC8D  20 2F F8  JSR $F82F                       A:69 X:78 Y:11 P:24 SP:FB STACK: 00 00 C6 2B
F82F  30 09     BMI $F83A                       A:69 X:78 Y:11 P:24 SP:F9 STACK: 00 00 C6 2B DC 8F
F831  B0 07     BCS $F83A                       A:69 X:78 Y:11 P:24 SP:F9 STACK: 00 00 C6 2B DC 8F
F833  C9 69     CMP #$69                        A:69 X:78 Y:11 P:24 SP:F9 STACK: 00 00 C6 2B DC 8F
F835  D0 03     BNE $F83A                       A:69 X:78 Y:11 P:27 SP:F9 STACK: 00 00 C6 2B DC 8F
F837  70 01     BVS $F83A                       A:69 X:78 Y:11 P:27 SP:F9 STACK: 00 00 C6 2B DC 8F
F839  60        RTS                             A:69 X:78 Y:11 P:27 SP:F9 STACK: 00 00 C6 2B DC 8F
DC90  C8        INY                             A:69 X:78 Y:11 P:27 SP:FB STACK: 00 00 C6 2B
DC91  20 3D F8  JSR $F83D                       A:69 X:78 Y:12 P:25 SP:FB STACK: 00 00 C6 2B
F83D  38        SEC                             A:69 X:78 Y:12 P:25 SP:F9 STACK: 00 00 C6 2B DC 93
F83E  24 01     BIT $01 = FF                    A:69 X:78 Y:12 P:25 SP:F9 STACK: 00 00 C6 2B DC 93
F840  A9 00     LDA #$00                        A:69 X:78 Y:12 P:E5 SP:F9 STACK: 00 00 C6 2B DC 93
F842  60        RTS                             A:00 X:78 Y:12 P:67 SP:F9 STACK: 00 00 C6 2B DC 93
DC94  75 00     ADC $78,X @ 00F0 = 69           A:00 X:78 Y:12 P:67 SP:FB STACK: 00 00 C6 2B
DC96  20 43 F8  JSR $F843                       A:6A X:78 Y:12 P:24 SP:FB STACK: 00 00 C6 2B
F843  30 09     BMI $F84E                       A:6A X:78 Y:12 P:24 SP:F9 STACK: 00 00 C6 2B DC 98
F845  B0 07     BCS $F84E                       A:6A X:78 Y:12 P:24 SP:F9 STACK: 00 00 C6 2B DC 98
F847  C9 6A     CMP #$6A                        A:6A X:78 Y:12 P:24 SP:F9 STACK: 00 00 C6 2B DC 98
F849  D0 03     BNE $F84E                       A:6A X:78 Y:12 P:27 SP:F9 STACK: 00 00 C6 2B DC 98
F84B  70 01     BVS $F84E                       A:6A X:78 Y:12 P:27 SP:F9 STACK: 00 00 C6 2B DC 98
F84D  60        RTS                             A:6A X:78 Y:12 P:27 SP:F9 STACK: 00 00 C6 2B DC 98
DC99  C8        INY                             A:6A X:78 Y:12 P:27 SP:FB STACK: 00 00 C6 2B
DC9A  A9 7F     LDA #$7F                        A:6A X:78 Y:13 P:25 SP:FB STACK: 00 00 C6 2B
DC9C  85 78     STA $78 = 69                    A:7F X:78 Y:13 P:25 SP:FB STACK: 00 00 C6 2B
DC9E  20 51 F8  JSR $F851                       A:7F X:78 Y:13 P:25 SP:FB STACK: 00 00 C6 2B
F851  38        SEC                             A:7F X:78 Y:13 P:25 SP:F9 STACK: 00 00 C6 2B DC A0
F852  B8        CLV                             A:7F X:78 Y:13 P:25 SP:F9 STACK: 00 00 C6 2B DC A0
F853  A9 7F     LDA #$7F                        A:7F X:78 Y:13 P:25 SP:F9 STACK: 00 00 C6 2B DC A0
F855  60        RTS                             A:7F X:78 Y:13 P:25 SP:F9 STACK: 00 00 C6 2B DC A0
DCA1  75 00     ADC $78,X @ 00F0 = 7F           A:7F X:78 Y:13 P:25 SP:FB STACK: 00 00 C6 2B
DCA3  20 56 F8  JSR $F856                       A:FF X:78 Y:13 P:E4 SP:FB STACK: 00 00 C6 2B
F856  10 09     BPL $F861                       A:FF X:78 Y:13 P:E4 SP:F9 STACK: 00 00 C6 2B DC A5
F858  B0 07     BCS $F861                       A:FF X:78 Y:13 P:E4 SP:F9 STACK: 00 00 C6 2B DC A5
F85A  C9 FF     CMP #$FF                        A:FF X:78 Y:13 P:E4 SP:F9 STACK: 00 00 C6 2B DC A5
F85C  D0 03     BNE $F861                       A:FF X:78 Y:13 P:67 SP:F9 STACK: 00 00 C6 2B DC A5
F85E  50 01     BVC $F861                       A:FF X:78 Y:13 P:67 SP:F9 STACK: 00 00 C6 2B DC A5
F860  60        RTS                             A:FF X:78 Y:13 P:67 SP:F9 STACK: 00 00 C6 2B DC A5
DCA6  C8        INY                             A:FF X:78 Y:13 P:67 SP:FB STACK: 00 00 C6 2B
DCA7  A9 80     LDA #$80                        A:FF X:78 Y:14 P:65 SP:FB STACK: 00 00 C6 2B
DCA9  85 78     STA $78 = 7F                    A:80 X:78 Y:14 P:E5 SP:FB STACK: 00 00 C6 2B
DCAB  20 64 F8  JSR $F864                       A:80 X:78 Y:14 P:E5 SP:FB STACK: 00 00 C6 2B
F864  18        CLC                             A:80 X:78 Y:14 P:E5 SP:F9 STACK: 00 00 C6 2B DC AD
F865  24 01     BIT $01 = FF                    A:80 X:78 Y:14 P:E4 SP:F9 STACK: 00 00 C6 2B DC AD
F867  A9 7F     LDA #$7F                        A:80 X:78 Y:14 P:E4 SP:F9 STACK: 00 00 C6 2B DC AD
F869  60        RTS                             A:7F X:78 Y:14 P:64 SP:F9 STACK: 00 00 C6 2B DC AD
DCAE  75 00     ADC $78,X @ 00F0 = 80           A:7F X:78 Y:14 P:64 SP:FB STACK: 00 00 C6 2B
DCB0  20 6A F8  JSR $F86A                       A:FF X:78 Y:14 P:A4 SP:FB STACK: 00 00 C6 2B
F86A  10 09     BPL $F875                       A:FF X:78 Y:14 P:A4 SP:F9 STACK: 00 00 C6 2B DC B2
F86C  B0 07     BCS $F875                       A:FF X:78 Y:14 P:A4 SP:F9 STACK: 00 00 C6 2B DC B2
F86E  C9 FF     CMP #$FF                        A:FF X:78 Y:14 P:A4 SP:F9 STACK: 00 00 C6 2B DC B2
F870  D0 03     BNE $F875                       A:FF X:78 Y:14 P:27 SP:F9 STACK: 00 00 C6 2B DC B2
F872  70 01     BVS $F875                       A:FF X:78 Y:14 P:27 SP:F9 STACK: 00 00 C6 2B DC B2
F874  60        RTS                             A:FF X:78 Y:14 P:27 SP:F9 STACK: 00 00 C6 2B DC B2
DCB3  C8        INY                             A:FF X:78 Y:14 P:27 SP:FB STACK: 00 00 C6 2B
DCB4  20 78 F8  JSR $F878                       A:FF X:78 Y:15 P:25 SP:FB STACK: 00 00 C6 2B
F878  38        SEC                             A:FF X:78 Y:15 P:25 SP:F9 STACK: 00 00 C6 2B DC B6
F879  B8        CLV                             A:FF X:78 Y:15 P:25 SP:F9 STACK: 00 00 C6 2B DC B6
F87A  A9 7F     LDA #$7F                        A:FF X:78 Y:15 P:25 SP:F9 STACK: 00 00 C6 2B DC B6
F87C  60        RTS                             A:7F X:78 Y:15 P:25 SP:F9 STACK: 00 00 C6 2B DC B6
DCB7  75 00     ADC $78,X @ 00F0 = 80           A:7F X:78 Y:15 P:25 SP:FB STACK: 00 00 C6 2B
DCB9  20 7D F8  JSR $F87D                       A:00 X:78 Y:15 P:27 SP:FB STACK: 00 00 C6 2B
F87D  D0 07     BNE $F886                       A:00 X:78 Y:15 P:27 SP:F9 STACK: 00 00 C6 2B DC BB
F87F  30 05     BMI $F886                       A:00 X:78 Y:15 P:27 SP:F9 STACK: 00 00 C6 2B DC BB
F881  70 03     BVS $F886                       A:00 X:78 Y:15 P:27 SP:F9 STACK: 00 00 C6 2B DC BB
F883  90 01     BCC $F886                       A:00 X:78 Y:15 P:27 SP:F9 STACK: 00 00 C6 2B DC BB
F885  60        RTS                             A:00 X:78 Y:15 P:27 SP:F9 STACK: 00 00 C6 2B DC BB
DCBC  C8        INY                             A:00 X:78 Y:15 P:27 SP:FB STACK: 00 00 C6 2B
DCBD  A9 40     LDA #$40                        A:00 X:78 Y:16 P:25 SP:FB STACK: 00 00 C6 2B
DCBF  85 78     STA $78 = 80                    A:40 X:78 Y:16 P:25 SP:FB STACK: 00 00 C6 2B
DCC1  20 89 F8  JSR $F889                       A:40 X:78 Y:16 P:25 SP:FB STACK: 00 00 C6 2B
F889  24 01     BIT $01 = FF                    A:40 X:78 Y:16 P:25 SP:F9 STACK: 00 00 C6 2B DC C3
F88B  A9 40     LDA #$40                        A:40 X:78 Y:16 P:E5 SP:F9 STACK: 00 00 C6 2B DC C3
F88D  60        RTS                             A:40 X:78 Y:16 P:65 SP:F9 STACK: 00 00 C6 2B DC C3
DCC4  D5 00     CMP $78,X @ 00F0 = 40           A:40 X:78 Y:16 P:65 SP:FB STACK: 00 00 C6 2B
DCC6  20 8E F8  JSR $F88E                       A:40 X:78 Y:16 P:67 SP:FB STACK: 00 00 C6 2B
F88E  30 07     BMI $F897                       A:40 X:78 Y:16 P:67 SP:F9 STACK: 00 00 C6 2B DC C8
F890  90 05     BCC $F897                       A:40 X:78 Y:16 P:67 SP:F9 STACK: 00 00 C6 2B DC C8
F892  D0 03     BNE $F897                       A:40 X:78 Y:16 P:67 SP:F9 STACK: 00 00 C6 2B DC C8
F894  50 01     BVC $F897                       A:40 X:78 Y:16 P:67 SP:F9 STACK: 00 00 C6 2B DC C8
F896  60        RTS                             A:40 X:78 Y:16 P:67 SP:F9 STACK: 00 00 C6 2B DC C8
DCC9  C8        INY                             A:40 X:78 Y:16 P:67 SP:FB STACK: 00 00 C6 2B
DCCA  48        PHA                             A:40 X:78 Y:17 P:65 SP:FB STACK: 00 00 C6 2B
DCCB  A9 3F     LDA #$3F                        A:40 X:78 Y:17 P:65 SP:FA STACK: 00 00 C6 2B 40
DCCD  85 78     STA $78 = 40                    A:3F X:78 Y:17 P:65 SP:FA STACK: 00 00 C6 2B 40
DCCF  68        PLA                             A:3F X:78 Y:17 P:65 SP:FA STACK: 00 00 C6 2B 40
DCD0  20 9A F8  JSR $F89A                       A:40 X:78 Y:17 P:65 SP:FB STACK: 00 00 C6 2B
F89A  B8        CLV                             A:40 X:78 Y:17 P:65 SP:F9 STACK: 00 00 C6 2B DC D2
F89B  60        RTS                             A:40 X:78 Y:17 P:25 SP:F9 STACK: 00 00 C6 2B DC D2
DCD3  D5 00     CMP $78,X @ 00F0 = 3F           A:40 X:78 Y:17 P:25 SP:FB STACK: 00 00 C6 2B
DCD5  20 9C F8  JSR $F89C                       A:40 X:78 Y:17 P:25 SP:FB STACK: 00 00 C6 2B
F89C  F0 07     BEQ $F8A5                       A:40 X:78 Y:17 P:25 SP:F9 STACK: 00 00 C6 2B DC D7
F89E  30 05     BMI $F8A5                       A:40 X:78 Y:17 P:25 SP:F9 STACK: 00 00 C6 2B DC D7
F8A0  90 03     BCC $F8A5                       A:40 X:78 Y:17 P:25 SP:F9 STACK: 00 00 C6 2B DC D7
F8A2  70 01     BVS $F8A5                       A:40 X:78 Y:17 P:25 SP:F9 STACK: 00 00 C6 2B DC D7
F8A4  60        RTS                             A:40 X:78 Y:17 P:25 SP:F9 STACK: 00 00 C6 2B DC D7
DCD8  C8        INY                             A:40 X:78 Y:17 P:25 SP:FB STACK: 00 00 C6 2B
DCD9  48        PHA                             A:40 X:78 Y:18 P:25 SP:FB STACK: 00 00 C6 2B
DCDA  A9 41     LDA #$41                        A:40 X:78 Y:18 P:25 SP:FA STACK: 00 00 C6 2B 40
DCDC  85 78     STA $78 = 3F                    A:41 X:78 Y:18 P:25 SP:FA STACK: 00 00 C6 2B 40
DCDE  68        PLA                             A:41 X:78 Y:18 P:25 SP:FA STACK: 00 00 C6 2B 40
DCDF  D5 00     CMP $78,X @ 00F0 = 41           A:40 X:78 Y:18 P:25 SP:FB STACK: 00 00 C6 2B
DCE1  20 A8 F8  JSR $F8A8                       A:40 X:78 Y:18 P:A4 SP:FB STACK: 00 00 C6 2B
F8A8  F0 05     BEQ $F8AF                       A:40 X:78 Y:18 P:A4 SP:F9 STACK: 00 00 C6 2B DC E3
F8AA  10 03     BPL $F8AF                       A:40 X:78 Y:18 P:A4 SP:F9 STACK: 00 00 C6 2B DC E3
F8AC  10 01     BPL $F8AF                       A:40 X:78 Y:18 P:A4 SP:F9 STACK: 00 00 C6 2B DC E3
F8AE  60        RTS                             A:40 X:78 Y:18 P:A4 SP:F9 STACK: 00 00 C6 2B DC E3
DCE4  C8        INY                             A:40 X:78 Y:18 P:A4 SP:FB STACK: 00 00 C6 2B
DCE5  48        PHA                             A:40 X:78 Y:19 P:24 SP:FB STACK: 00 00 C6 2B
DCE6  A9 00     LDA #$00                        A:40 X:78 Y:19 P:24 SP:FA STACK: 00 00 C6 2B 40
DCE8  85 78     STA $78 = 41                    A:00 X:78 Y:19 P:26 SP:FA STACK: 00 00 C6 2B 40
DCEA  68        PLA                             A:00 X:78 Y:19 P:26 SP:FA STACK: 00 00 C6 2B 40
DCEB  20 B2 F8  JSR $F8B2                       A:40 X:78 Y:19 P:24 SP:FB STACK: 00 00 C6 2B
F8B2  A9 80     LDA #$80                        A:40 X:78 Y:19 P:24 SP:F9 STACK: 00 00 C6 2B DC ED
F8B4  60        RTS                             A:80 X:78 Y:19 P:A4 SP:F9 STACK: 00 00 C6 2B DC ED
DCEE  D5 00     CMP $78,X @ 00F0 = 00           A:80 X:78 Y:19 P:A4 SP:FB STACK: 00 00 C6 2B
DCF0  20 B5 F8  JSR $F8B5                       A:80 X:78 Y:19 P:A5 SP:FB STACK: 00 00 C6 2B
F8B5  F0 05     BEQ $F8BC                       A:80 X:78 Y:19 P:A5 SP:F9 STACK: 00 00 C6 2B DC F2
F8B7  10 03     BPL $F8BC                       A:80 X:78 Y:19 P:A5 SP:F9 STACK: 00 00 C6 2B DC F2
F8B9  90 01     BCC $F8BC                       A:80 X:78 Y:19 P:A5 SP:F9 STACK: 00 00 C6 2B DC F2
F8BB  60        RTS                             A:80 X:78 Y:19 P:A5 SP:F9 STACK: 00 00 C6 2B DC F2
DCF3  C8        INY                             A:80 X:78 Y:19 P:A5 SP:FB STACK: 00 00 C6 2B
DCF4  48        PHA                             A:80 X:78 Y:1A P:25 SP:FB STACK: 00 00 C6 2B
DCF5  A9 80     LDA #$80                        A:80 X:78 Y:1A P:25 SP:FA STACK: 00 00 C6 2B 80
DCF7  85 78     STA $78 = 00                    A:80 X:78 Y:1A P:A5 SP:FA STACK: 00 00 C6 2B 80
DCF9  68        PLA                             A:80 X:78 Y:1A P:A5 SP:FA STACK: 00 00 C6 2B 80
DCFA  D5 00     CMP $78,X @ 00F0 = 80           A:80 X:78 Y:1A P:A5 SP:FB STACK: 00 00 C6 2B
DCFC  20 BF F8  JSR $F8BF                       A:80 X:78 Y:1A P:27 SP:FB STACK: 00 00 C6 2B
F8BF  D0 05     BNE $F8C6                       A:80 X:78 Y:1A P:27 SP:F9 STACK: 00 00 C6 2B DC FE
F8C1  30 03     BMI $F8C6                       A:80 X:78 Y:1A P:27 SP:F9 STACK: 00 00 C6 2B DC FE
F8C3  90 01     BCC $F8C6                       A:80 X:78 Y:1A P:27 SP:F9 STACK: 00 00 C6 2B DC FE
F8C5  60        RTS                             A:80 X:78 Y:1A P:27 SP:F9 STACK: 00 00 C6 2B DC FE
DCFF  C8        INY                             A:80 X:78 Y:1A P:27 SP:FB STACK: 00 00 C6 2B
DD00  48        PHA                             A:80 X:78 Y:1B P:25 SP:FB STACK: 00 00 C6 2B
DD01  A9 81     LDA #$81                        A:80 X:78 Y:1B P:25 SP:FA STACK: 00 00 C6 2B 80
DD03  85 78     STA $78 = 80                    A:81 X:78 Y:1B P:A5 SP:FA STACK: 00 00 C6 2B 80
DD05  68        PLA                             A:81 X:78 Y:1B P:A5 SP:FA STACK: 00 00 C6 2B 80
DD06  D5 00     CMP $78,X @ 00F0 = 81           A:80 X:78 Y:1B P:A5 SP:FB STACK: 00 00 C6 2B
DD08  20 C9 F8  JSR $F8C9                       A:80 X:78 Y:1B P:A4 SP:FB STACK: 00 00 C6 2B
F8C9  B0 05     BCS $F8D0                       A:80 X:78 Y:1B P:A4 SP:F9 STACK: 00 00 C6 2B DD 0A
F8CB  F0 03     BEQ $F8D0                       A:80 X:78 Y:1B P:A4 SP:F9 STACK: 00 00 C6 2B DD 0A
F8CD  10 01     BPL $F8D0                       A:80 X:78 Y:1B P:A4 SP:F9 STACK: 00 00 C6 2B DD 0A
F8CF  60        RTS                             A:80 X:78 Y:1B P:A4 SP:F9 STACK: 00 00 C6 2B DD 0A
DD0B  C8        INY                             A:80 X:78 Y:1B P:A4 SP:FB STACK: 00 00 C6 2B
DD0C  48        PHA                             A:80 X:78 Y:1C P:24 SP:FB STACK: 00 00 C6 2B
DD0D  A9 7F     LDA #$7F                        A:80 X:78 Y:1C P:24 SP:FA STACK: 00 00 C6 2B 80
DD0F  85 78     STA $78 = 81                    A:7F X:78 Y:1C P:24 SP:FA STACK: 00 00 C6 2B 80
DD11  68        PLA                             A:7F X:78 Y:1C P:24 SP:FA STACK: 00 00 C6 2B 80
DD12  D5 00     CMP $78,X @ 00F0 = 7F           A:80 X:78 Y:1C P:A4 SP:FB STACK: 00 00 C6 2B
DD14  20 D3 F8  JSR $F8D3                       A:80 X:78 Y:1C P:25 SP:FB STACK: 00 00 C6 2B
F8D3  90 05     BCC $F8DA                       A:80 X:78 Y:1C P:25 SP:F9 STACK: 00 00 C6 2B DD 16
F8D5  F0 03     BEQ $F8DA                       A:80 X:78 Y:1C P:25 SP:F9 STACK: 00 00 C6 2B DD 16
F8D7  30 01     BMI $F8DA                       A:80 X:78 Y:1C P:25 SP:F9 STACK: 00 00 C6 2B DD 16
F8D9  60        RTS                             A:80 X:78 Y:1C P:25 SP:F9 STACK: 00 00 C6 2B DD 16
DD17  C8        INY                             A:80 X:78 Y:1C P:25 SP:FB STACK: 00 00 C6 2B
DD18  A9 40     LDA #$40                        A:80 X:78 Y:1D P:25 SP:FB STACK: 00 00 C6 2B
DD1A  85 78     STA $78 = 7F                    A:40 X:78 Y:1D P:25 SP:FB STACK: 00 00 C6 2B
DD1C  20 31 F9  JSR $F931                       A:40 X:78 Y:1D P:25 SP:FB STACK: 00 00 C6 2B
F931  24 01     BIT $01 = FF                    A:40 X:78 Y:1D P:25 SP:F9 STACK: 00 00 C6 2B DD 1E
F933  A9 40     LDA #$40                        A:40 X:78 Y:1D P:E5 SP:F9 STACK: 00 00 C6 2B DD 1E
F935  38        SEC                             A:40 X:78 Y:1D P:65 SP:F9 STACK: 00 00 C6 2B DD 1E
F936  60        RTS                             A:40 X:78 Y:1D P:65 SP:F9 STACK: 00 00 C6 2B DD 1E
DD1F  F5 00     SBC $78,X @ 00F0 = 40           A:40 X:78 Y:1D P:65 SP:FB STACK: 00 00 C6 2B
DD21  20 37 F9  JSR $F937                       A:00 X:78 Y:1D P:27 SP:FB STACK: 00 00 C6 2B
F937  30 0B     BMI $F944                       A:00 X:78 Y:1D P:27 SP:F9 STACK: 00 00 C6 2B DD 23
F939  90 09     BCC $F944                       A:00 X:78 Y:1D P:27 SP:F9 STACK: 00 00 C6 2B DD 23
F93B  D0 07     BNE $F944                       A:00 X:78 Y:1D P:27 SP:F9 STACK: 00 00 C6 2B DD 23
F93D  70 05     BVS $F944                       A:00 X:78 Y:1D P:27 SP:F9 STACK: 00 00 C6 2B DD 23
F93F  C9 00     CMP #$00                        A:00 X:78 Y:1D P:27 SP:F9 STACK: 00 00 C6 2B DD 23
F941  D0 01     BNE $F944                       A:00 X:78 Y:1D P:27 SP:F9 STACK: 00 00 C6 2B DD 23
F943  60        RTS                             A:00 X:78 Y:1D P:27 SP:F9 STACK: 00 00 C6 2B DD 23
DD24  C8        INY                             A:00 X:78 Y:1D P:27 SP:FB STACK: 00 00 C6 2B
DD25  A9 3F     LDA #$3F                        A:00 X:78 Y:1E P:25 SP:FB STACK: 00 00 C6 2B
DD27  85 78     STA $78 = 40                    A:3F X:78 Y:1E P:25 SP:FB STACK: 00 00 C6 2B
DD29  20 47 F9  JSR $F947                       A:3F X:78 Y:1E P:25 SP:FB STACK: 00 00 C6 2B
F947  B8        CLV                             A:3F X:78 Y:1E P:25 SP:F9 STACK: 00 00 C6 2B DD 2B
F948  38        SEC                             A:3F X:78 Y:1E P:25 SP:F9 STACK: 00 00 C6 2B DD 2B
F949  A9 40     LDA #$40                        A:3F X:78 Y:1E P:25 SP:F9 STACK: 00 00 C6 2B DD 2B
F94B  60        RTS                             A:40 X:78 Y:1E P:25 SP:F9 STACK: 00 00 C6 2B DD 2B
DD2C  F5 00     SBC $78,X @ 00F0 = 3F           A:40 X:78 Y:1E P:25 SP:FB STACK: 00 00 C6 2B
DD2E  20 4C F9  JSR $F94C                       A:01 X:78 Y:1E P:25 SP:FB STACK: 00 00 C6 2B
F94C  F0 0B     BEQ $F959                       A:01 X:78 Y:1E P:25 SP:F9 STACK: 00 00 C6 2B DD 30
F94E  30 09     BMI $F959                       A:01 X:78 Y:1E P:25 SP:F9 STACK: 00 00 C6 2B DD 30
F950  90 07     BCC $F959                       A:01 X:78 Y:1E P:25 SP:F9 STACK: 00 00 C6 2B DD 30
F952  70 05     BVS $F959                       A:01 X:78 Y:1E P:25 SP:F9 STACK: 00 00 C6 2B DD 30
F954  C9 01     CMP #$01                        A:01 X:78 Y:1E P:25 SP:F9 STACK: 00 00 C6 2B DD 30
F956  D0 01     BNE $F959                       A:01 X:78 Y:1E P:27 SP:F9 STACK: 00 00 C6 2B DD 30
F958  60        RTS                             A:01 X:78 Y:1E P:27 SP:F9 STACK: 00 00 C6 2B DD 30
DD31  C8        INY                             A:01 X:78 Y:1E P:27 SP:FB STACK: 00 00 C6 2B
DD32  A9 41     LDA #$41                        A:01 X:78 Y:1F P:25 SP:FB STACK: 00 00 C6 2B
DD34  85 78     STA $78 = 3F                    A:41 X:78 Y:1F P:25 SP:FB STACK: 00 00 C6 2B
DD36  20 5C F9  JSR $F95C                       A:41 X:78 Y:1F P:25 SP:FB STACK: 00 00 C6 2B
F95C  A9 40     LDA #$40                        A:41 X:78 Y:1F P:25 SP:F9 STACK: 00 00 C6 2B DD 38
F95E  38        SEC                             A:40 X:78 Y:1F P:25 SP:F9 STACK: 00 00 C6 2B DD 38
F95F  24 01     BIT $01 = FF                    A:40 X:78 Y:1F P:25 SP:F9 STACK: 00 00 C6 2B DD 38
F961  60        RTS                             A:40 X:78 Y:1F P:E5 SP:F9 STACK: 00 00 C6 2B DD 38
DD39  F5 00     SBC $78,X @ 00F0 = 41           A:40 X:78 Y:1F P:E5 SP:FB STACK: 00 00 C6 2B
DD3B  20 62 F9  JSR $F962                       A:FF X:78 Y:1F P:A4 SP:FB STACK: 00 00 C6 2B
F962  B0 0B     BCS $F96F                       A:FF X:78 Y:1F P:A4 SP:F9 STACK: 00 00 C6 2B DD 3D
F964  F0 09     BEQ $F96F                       A:FF X:78 Y:1F P:A4 SP:F9 STACK: 00 00 C6 2B DD 3D
F966  10 07     BPL $F96F                       A:FF X:78 Y:1F P:A4 SP:F9 STACK: 00 00 C6 2B DD 3D
F968  70 05     BVS $F96F                       A:FF X:78 Y:1F P:A4 SP:F9 STACK: 00 00 C6 2B DD 3D
F96A  C9 FF     CMP #$FF                        A:FF X:78 Y:1F P:A4 SP:F9 STACK: 00 00 C6 2B DD 3D
F96C  D0 01     BNE $F96F                       A:FF X:78 Y:1F P:27 SP:F9 STACK: 00 00 C6 2B DD 3D
F96E  60        RTS                             A:FF X:78 Y:1F P:27 SP:F9 STACK: 00 00 C6 2B DD 3D
DD3E  C8        INY                             A:FF X:78 Y:1F P:27 SP:FB STACK: 00 00 C6 2B
DD3F  A9 00     LDA #$00                        A:FF X:78 Y:20 P:25 SP:FB STACK: 00 00 C6 2B
DD41  85 78     STA $78 = 41                    A:00 X:78 Y:20 P:27 SP:FB STACK: 00 00 C6 2B
DD43  20 72 F9  JSR $F972                       A:00 X:78 Y:20 P:27 SP:FB STACK: 00 00 C6 2B
F972  18        CLC                             A:00 X:78 Y:20 P:27 SP:F9 STACK: 00 00 C6 2B DD 45
F973  A9 80     LDA #$80                        A:00 X:78 Y:20 P:26 SP:F9 STACK: 00 00 C6 2B DD 45
F975  60        RTS                             A:80 X:78 Y:20 P:A4 SP:F9 STACK: 00 00 C6 2B DD 45
DD46  F5 00     SBC $78,X @ 00F0 = 00           A:80 X:78 Y:20 P:A4 SP:FB STACK: 00 00 C6 2B
DD48  20 76 F9  JSR $F976                       A:7F X:78 Y:20 P:65 SP:FB STACK: 00 00 C6 2B
F976  90 05     BCC $F97D                       A:7F X:78 Y:20 P:65 SP:F9 STACK: 00 00 C6 2B DD 4A
F978  C9 7F     CMP #$7F                        A:7F X:78 Y:20 P:65 SP:F9 STACK: 00 00 C6 2B DD 4A
F97A  D0 01     BNE $F97D                       A:7F X:78 Y:20 P:67 SP:F9 STACK: 00 00 C6 2B DD 4A
F97C  60        RTS                             A:7F X:78 Y:20 P:67 SP:F9 STACK: 00 00 C6 2B DD 4A
DD4B  C8        INY                             A:7F X:78 Y:20 P:67 SP:FB STACK: 00 00 C6 2B
DD4C  A9 7F     LDA #$7F                        A:7F X:78 Y:21 P:65 SP:FB STACK: 00 00 C6 2B
DD4E  85 78     STA $78 = 00                    A:7F X:78 Y:21 P:65 SP:FB STACK: 00 00 C6 2B
DD50  20 80 F9  JSR $F980                       A:7F X:78 Y:21 P:65 SP:FB STACK: 00 00 C6 2B
F980  38        SEC                             A:7F X:78 Y:21 P:65 SP:F9 STACK: 00 00 C6 2B DD 52
F981  A9 81     LDA #$81                        A:7F X:78 Y:21 P:65 SP:F9 STACK: 00 00 C6 2B DD 52
F983  60        RTS                             A:81 X:78 Y:21 P:E5 SP:F9 STACK: 00 00 C6 2B DD 52
DD53  F5 00     SBC $78,X @ 00F0 = 7F           A:81 X:78 Y:21 P:E5 SP:FB STACK: 00 00 C6 2B
DD55  20 84 F9  JSR $F984                       A:02 X:78 Y:21 P:65 SP:FB STACK: 00 00 C6 2B
F984  50 07     BVC $F98D                       A:02 X:78 Y:21 P:65 SP:F9 STACK: 00 00 C6 2B DD 57
F986  90 05     BCC $F98D                       A:02 X:78 Y:21 P:65 SP:F9 STACK: 00 00 C6 2B DD 57
F988  C9 02     CMP #$02                        A:02 X:78 Y:21 P:65 SP:F9 STACK: 00 00 C6 2B DD 57
F98A  D0 01     BNE $F98D                       A:02 X:78 Y:21 P:67 SP:F9 STACK: 00 00 C6 2B DD 57
F98C  60        RTS                             A:02 X:78 Y:21 P:67 SP:F9 STACK: 00 00 C6 2B DD 57
DD58  A9 AA     LDA #$AA                        A:02 X:78 Y:21 P:67 SP:FB STACK: 00 00 C6 2B
DD5A  85 33     STA $33 = 44                    A:AA X:78 Y:21 P:E5 SP:FB STACK: 00 00 C6 2B
DD5C  A9 BB     LDA #$BB                        A:AA X:78 Y:21 P:E5 SP:FB STACK: 00 00 C6 2B
DD5E  85 89     STA $89 = BB                    A:BB X:78 Y:21 P:E5 SP:FB STACK: 00 00 C6 2B
DD60  A2 00     LDX #$00                        A:BB X:78 Y:21 P:E5 SP:FB STACK: 00 00 C6 2B
DD62  A0 66     LDY #$66                        A:BB X:00 Y:21 P:67 SP:FB STACK: 00 00 C6 2B
DD64  24 01     BIT $01 = FF                    A:BB X:00 Y:66 P:65 SP:FB STACK: 00 00 C6 2B
DD66  38        SEC                             A:BB X:00 Y:66 P:E5 SP:FB STACK: 00 00 C6 2B
DD67  A9 00     LDA #$00                        A:BB X:00 Y:66 P:E5 SP:FB STACK: 00 00 C6 2B
DD69  B5 33     LDA $33,X @ 0033 = AA           A:00 X:00 Y:66 P:67 SP:FB STACK: 00 00 C6 2B
DD6B  10 12     BPL $DD7F                       A:AA X:00 Y:66 P:E5 SP:FB STACK: 00 00 C6 2B
DD6D  F0 10     BEQ $DD7F                       A:AA X:00 Y:66 P:E5 SP:FB STACK: 00 00 C6 2B
DD6F  50 0E     BVC $DD7F                       A:AA X:00 Y:66 P:E5 SP:FB STACK: 00 00 C6 2B
DD71  90 0C     BCC $DD7F                       A:AA X:00 Y:66 P:E5 SP:FB STACK: 00 00 C6 2B
DD73  C0 66     CPY #$66                        A:AA X:00 Y:66 P:E5 SP:FB STACK: 00 00 C6 2B
DD75  D0 08     BNE $DD7F                       A:AA X:00 Y:66 P:67 SP:FB STACK: 00 00 C6 2B
DD77  E0 00     CPX #$00                        A:AA X:00 Y:66 P:67 SP:FB STACK: 00 00 C6 2B
DD79  D0 04     BNE $DD7F                       A:AA X:00 Y:66 P:67 SP:FB STACK: 00 00 C6 2B
DD7B  C9 AA     CMP #$AA                        A:AA X:00 Y:66 P:67 SP:FB STACK: 00 00 C6 2B
DD7D  F0 04     BEQ $DD83                       A:AA X:00 Y:66 P:67 SP:FB STACK: 00 00 C6 2B
DD83  A2 8A     LDX #$8A                        A:AA X:00 Y:66 P:67 SP:FB STACK: 00 00 C6 2B
DD85  A0 66     LDY #$66                        A:AA X:8A Y:66 P:E5 SP:FB STACK: 00 00 C6 2B
DD87  B8        CLV                             A:AA X:8A Y:66 P:65 SP:FB STACK: 00 00 C6 2B
DD88  18        CLC                             A:AA X:8A Y:66 P:25 SP:FB STACK: 00 00 C6 2B
DD89  A9 00     LDA #$00                        A:AA X:8A Y:66 P:24 SP:FB STACK: 00 00 C6 2B
DD8B  B5 FF     LDA $89,X @ 0113 = BB           A:00 X:8A Y:66 P:26 SP:FB STACK: 00 00 C6 2B
DD8D  10 12     BPL $DDA1                       A:BB X:8A Y:66 P:A4 SP:FB STACK: 00 00 C6 2B
DD8F  F0 10     BEQ $DDA1                       A:BB X:8A Y:66 P:A4 SP:FB STACK: 00 00 C6 2B
DD91  70 0E     BVS $DDA1                       A:BB X:8A Y:66 P:A4 SP:FB STACK: 00 00 C6 2B
DD93  B0 0C     BCS $DDA1                       A:BB X:8A Y:66 P:A4 SP:FB STACK: 00 00 C6 2B
DD95  C9 BB     CMP #$BB                        A:BB X:8A Y:66 P:A4 SP:FB STACK: 00 00 C6 2B
DD97  D0 08     BNE $DDA1                       A:BB X:8A Y:66 P:27 SP:FB STACK: 00 00 C6 2B
DD99  C0 66     CPY #$66                        A:BB X:8A Y:66 P:27 SP:FB STACK: 00 00 C6 2B
DD9B  D0 04     BNE $DDA1                       A:BB X:8A Y:66 P:27 SP:FB STACK: 00 00 C6 2B
DD9D  E0 8A     CPX #$8A                        A:BB X:8A Y:66 P:27 SP:FB STACK: 00 00 C6 2B
DD9F  F0 04     BEQ $DDA5                       A:BB X:8A Y:66 P:27 SP:FB STACK: 00 00 C6 2B
DDA5  24 01     BIT $01 = FF                    A:BB X:8A Y:66 P:27 SP:FB STACK: 00 00 C6 2B
DDA7  38        SEC                             A:BB X:8A Y:66 P:E5 SP:FB STACK: 00 00 C6 2B
DDA8  A9 44     LDA #$44                        A:BB X:8A Y:66 P:E5 SP:FB STACK: 00 00 C6 2B
DDAA  A2 00     LDX #$00                        A:44 X:8A Y:66 P:65 SP:FB STACK: 00 00 C6 2B
DDAC  95 33     STA $33,X @ 0033 = AA           A:44 X:00 Y:66 P:67 SP:FB STACK: 00 00 C6 2B
DDAE  A5 33     LDA $33 = 44                    A:44 X:00 Y:66 P:67 SP:FB STACK: 00 00 C6 2B
DDB0  90 18     BCC $DDCA                       A:44 X:00 Y:66 P:65 SP:FB STACK: 00 00 C6 2B
DDB2  C9 44     CMP #$44                        A:44 X:00 Y:66 P:65 SP:FB STACK: 00 00 C6 2B
DDB4  D0 14     BNE $DDCA                       A:44 X:00 Y:66 P:67 SP:FB STACK: 00 00 C6 2B
DDB6  50 12     BVC $DDCA                       A:44 X:00 Y:66 P:67 SP:FB STACK: 00 00 C6 2B
DDB8  18        CLC                             A:44 X:00 Y:66 P:67 SP:FB STACK: 00 00 C6 2B
DDB9  B8        CLV                             A:44 X:00 Y:66 P:66 SP:FB STACK: 00 00 C6 2B
DDBA  A9 99     LDA #$99                        A:44 X:00 Y:66 P:26 SP:FB STACK: 00 00 C6 2B
DDBC  A2 80     LDX #$80                        A:99 X:00 Y:66 P:A4 SP:FB STACK: 00 00 C6 2B
DDBE  95 85     STA $05,X @ 0085 = 99           A:99 X:80 Y:66 P:A4 SP:FB STACK: 00 00 C6 2B
DDC0  A5 05     LDA $05 = 99                    A:99 X:80 Y:66 P:A4 SP:FB STACK: 00 00 C6 2B
DDC2  B0 06     BCS $DDCA                       A:99 X:80 Y:66 P:A4 SP:FB STACK: 00 00 C6 2B
DDC4  C9 99     CMP #$99                        A:99 X:80 Y:66 P:A4 SP:FB STACK: 00 00 C6 2B
DDC6  D0 02     BNE $DDCA                       A:99 X:80 Y:66 P:27 SP:FB STACK: 00 00 C6 2B
DDC8  50 04     BVC $DDCE                       A:99 X:80 Y:66 P:27 SP:FB STACK: 00 00 C6 2B
DDCE  A0 25     LDY #$25                        A:99 X:80 Y:66 P:27 SP:FB STACK: 00 00 C6 2B
DDD0  A2 78     LDX #$78                        A:99 X:80 Y:25 P:25 SP:FB STACK: 00 00 C6 2B
DDD2  20 90 F9  JSR $F990                       A:99 X:78 Y:25 P:25 SP:FB STACK: 00 00 C6 2B
F990  A2 55     LDX #$55                        A:99 X:78 Y:25 P:25 SP:F9 STACK: 00 00 C6 2B DD D4
F992  A9 FF     LDA #$FF                        A:99 X:55 Y:25 P:25 SP:F9 STACK: 00 00 C6 2B DD D4
F994  85 01     STA $01 = FF                    A:FF X:55 Y:25 P:A5 SP:F9 STACK: 00 00 C6 2B DD D4
F996  EA        NOP                             A:FF X:55 Y:25 P:A5 SP:F9 STACK: 00 00 C6 2B DD D4
F997  24 01     BIT $01 = FF                    A:FF X:55 Y:25 P:A5 SP:F9 STACK: 00 00 C6 2B DD D4
F999  38        SEC                             A:FF X:55 Y:25 P:E5 SP:F9 STACK: 00 00 C6 2B DD D4
F99A  A9 01     LDA #$01                        A:FF X:55 Y:25 P:E5 SP:F9 STACK: 00 00 C6 2B DD D4
F99C  60        RTS                             A:01 X:55 Y:25 P:65 SP:F9 STACK: 00 00 C6 2B DD D4
DDD5  95 00     STA $55,X @ 00AA = 00           A:01 X:55 Y:25 P:65 SP:FB STACK: 00 00 C6 2B
DDD7  56 00     LSR $55,X @ 00AA = 01           A:01 X:55 Y:25 P:65 SP:FB STACK: 00 00 C6 2B
DDD9  B5 00     LDA $55,X @ 00AA = 00           A:01 X:55 Y:25 P:65 SP:FB STACK: 00 00 C6 2B
DDDB  20 9D F9  JSR $F99D                       A:00 X:55 Y:25 P:67 SP:FB STACK: 00 00 C6 2B
F99D  90 1B     BCC $F9BA                       A:00 X:55 Y:25 P:67 SP:F9 STACK: 00 00 C6 2B DD DD
F99F  D0 19     BNE $F9BA                       A:00 X:55 Y:25 P:67 SP:F9 STACK: 00 00 C6 2B DD DD
F9A1  30 17     BMI $F9BA                       A:00 X:55 Y:25 P:67 SP:F9 STACK: 00 00 C6 2B DD DD
F9A3  50 15     BVC $F9BA                       A:00 X:55 Y:25 P:67 SP:F9 STACK: 00 00 C6 2B DD DD
F9A5  C9 00     CMP #$00                        A:00 X:55 Y:25 P:67 SP:F9 STACK: 00 00 C6 2B DD DD
F9A7  D0 11     BNE $F9BA                       A:00 X:55 Y:25 P:67 SP:F9 STACK: 00 00 C6 2B DD DD
F9A9  B8        CLV                             A:00 X:55 Y:25 P:67 SP:F9 STACK: 00 00 C6 2B DD DD
F9AA  A9 AA     LDA #$AA                        A:00 X:55 Y:25 P:27 SP:F9 STACK: 00 00 C6 2B DD DD
F9AC  60        RTS                             A:AA X:55 Y:25 P:A5 SP:F9 STACK: 00 00 C6 2B DD DD
DDDE  C8        INY                             A:AA X:55 Y:25 P:A5 SP:FB STACK: 00 00 C6 2B
DDDF  95 00     STA $55,X @ 00AA = 00           A:AA X:55 Y:26 P:25 SP:FB STACK: 00 00 C6 2B
DDE1  56 00     LSR $55,X @ 00AA = AA           A:AA X:55 Y:26 P:25 SP:FB STACK: 00 00 C6 2B
DDE3  B5 00     LDA $55,X @ 00AA = 55           A:AA X:55 Y:26 P:24 SP:FB STACK: 00 00 C6 2B
DDE5  20 AD F9  JSR $F9AD                       A:55 X:55 Y:26 P:24 SP:FB STACK: 00 00 C6 2B
F9AD  B0 0B     BCS $F9BA                       A:55 X:55 Y:26 P:24 SP:F9 STACK: 00 00 C6 2B DD E7
F9AF  F0 09     BEQ $F9BA                       A:55 X:55 Y:26 P:24 SP:F9 STACK: 00 00 C6 2B DD E7
F9B1  30 07     BMI $F9BA                       A:55 X:55 Y:26 P:24 SP:F9 STACK: 00 00 C6 2B DD E7
F9B3  70 05     BVS $F9BA                       A:55 X:55 Y:26 P:24 SP:F9 STACK: 00 00 C6 2B DD E7
F9B5  C9 55     CMP #$55                        A:55 X:55 Y:26 P:24 SP:F9 STACK: 00 00 C6 2B DD E7
F9B7  D0 01     BNE $F9BA                       A:55 X:55 Y:26 P:27 SP:F9 STACK: 00 00 C6 2B DD E7
F9B9  60        RTS                             A:55 X:55 Y:26 P:27 SP:F9 STACK: 00 00 C6 2B DD E7
DDE8  C8        INY                             A:55 X:55 Y:26 P:27 SP:FB STACK: 00 00 C6 2B
DDE9  20 BD F9  JSR $F9BD                       A:55 X:55 Y:27 P:25 SP:FB STACK: 00 00 C6 2B
F9BD  24 01     BIT $01 = FF                    A:55 X:55 Y:27 P:25 SP:F9 STACK: 00 00 C6 2B DD EB
F9BF  38        SEC                             A:55 X:55 Y:27 P:E5 SP:F9 STACK: 00 00 C6 2B DD EB
F9C0  A9 80     LDA #$80                        A:55 X:55 Y:27 P:E5 SP:F9 STACK: 00 00 C6 2B DD EB
F9C2  60        RTS                             A:80 X:55 Y:27 P:E5 SP:F9 STACK: 00 00 C6 2B DD EB
DDEC  95 00     STA $55,X @ 00AA = 55           A:80 X:55 Y:27 P:E5 SP:FB STACK: 00 00 C6 2B
DDEE  16 00     ASL $55,X @ 00AA = 80           A:80 X:55 Y:27 P:E5 SP:FB STACK: 00 00 C6 2B
DDF0  B5 00     LDA $55,X @ 00AA = 00           A:80 X:55 Y:27 P:65 SP:FB STACK: 00 00 C6 2B
DDF2  20 C3 F9  JSR $F9C3                       A:00 X:55 Y:27 P:67 SP:FB STACK: 00 00 C6 2B
F9C3  90 1C     BCC $F9E1                       A:00 X:55 Y:27 P:67 SP:F9 STACK: 00 00 C6 2B DD F4
F9C5  D0 1A     BNE $F9E1                       A:00 X:55 Y:27 P:67 SP:F9 STACK: 00 00 C6 2B DD F4
F9C7  30 18     BMI $F9E1                       A:00 X:55 Y:27 P:67 SP:F9 STACK: 00 00 C6 2B DD F4
F9C9  50 16     BVC $F9E1                       A:00 X:55 Y:27 P:67 SP:F9 STACK: 00 00 C6 2B DD F4
F9CB  C9 00     CMP #$00                        A:00 X:55 Y:27 P:67 SP:F9 STACK: 00 00 C6 2B DD F4
F9CD  D0 12     BNE $F9E1                       A:00 X:55 Y:27 P:67 SP:F9 STACK: 00 00 C6 2B DD F4
F9CF  B8        CLV                             A:00 X:55 Y:27 P:67 SP:F9 STACK: 00 00 C6 2B DD F4
F9D0  A9 55     LDA #$55                        A:00 X:55 Y:27 P:27 SP:F9 STACK: 00 00 C6 2B DD F4
F9D2  38        SEC                             A:55 X:55 Y:27 P:25 SP:F9 STACK: 00 00 C6 2B DD F4
F9D3  60        RTS                             A:55 X:55 Y:27 P:25 SP:F9 STACK: 00 00 C6 2B DD F4
DDF5  C8        INY                             A:55 X:55 Y:27 P:25 SP:FB STACK: 00 00 C6 2B
DDF6  95 00     STA $55,X @ 00AA = 00           A:55 X:55 Y:28 P:25 SP:FB STACK: 00 00 C6 2B
DDF8  16 00     ASL $55,X @ 00AA = 55           A:55 X:55 Y:28 P:25 SP:FB STACK: 00 00 C6 2B
DDFA  B5 00     LDA $55,X @ 00AA = AA           A:55 X:55 Y:28 P:A4 SP:FB STACK: 00 00 C6 2B
DDFC  20 D4 F9  JSR $F9D4                       A:AA X:55 Y:28 P:A4 SP:FB STACK: 00 00 C6 2B
F9D4  B0 0B     BCS $F9E1                       A:AA X:55 Y:28 P:A4 SP:F9 STACK: 00 00 C6 2B DD FE
F9D6  F0 09     BEQ $F9E1                       A:AA X:55 Y:28 P:A4 SP:F9 STACK: 00 00 C6 2B DD FE
F9D8  10 07     BPL $F9E1                       A:AA X:55 Y:28 P:A4 SP:F9 STACK: 00 00 C6 2B DD FE
F9DA  70 05     BVS $F9E1                       A:AA X:55 Y:28 P:A4 SP:F9 STACK: 00 00 C6 2B DD FE
F9DC  C9 AA     CMP #$AA                        A:AA X:55 Y:28 P:A4 SP:F9 STACK: 00 00 C6 2B DD FE
F9DE  D0 01     BNE $F9E1                       A:AA X:55 Y:28 P:27 SP:F9 STACK: 00 00 C6 2B DD FE
F9E0  60        RTS                             A:AA X:55 Y:28 P:27 SP:F9 STACK: 00 00 C6 2B DD FE
DDFF  C8        INY                             A:AA X:55 Y:28 P:27 SP:FB STACK: 00 00 C6 2B
DE00  20 E4 F9  JSR $F9E4                       A:AA X:55 Y:29 P:25 SP:FB STACK: 00 00 C6 2B
F9E4  24 01     BIT $01 = FF                    A:AA X:55 Y:29 P:25 SP:F9 STACK: 00 00 C6 2B DE 02
F9E6  38        SEC                             A:AA X:55 Y:29 P:E5 SP:F9 STACK: 00 00 C6 2B DE 02
F9E7  A9 01     LDA #$01                        A:AA X:55 Y:29 P:E5 SP:F9 STACK: 00 00 C6 2B DE 02
F9E9  60        RTS                             A:01 X:55 Y:29 P:65 SP:F9 STACK: 00 00 C6 2B DE 02
DE03  95 00     STA $55,X @ 00AA = AA           A:01 X:55 Y:29 P:65 SP:FB STACK: 00 00 C6 2B
DE05  76 00     ROR $55,X @ 00AA = 01           A:01 X:55 Y:29 P:65 SP:FB STACK: 00 00 C6 2B
DE07  B5 00     LDA $55,X @ 00AA = 80           A:01 X:55 Y:29 P:E5 SP:FB STACK: 00 00 C6 2B
DE09  20 EA F9  JSR $F9EA                       A:80 X:55 Y:29 P:E5 SP:FB STACK: 00 00 C6 2B
F9EA  90 1C     BCC $FA08                       A:80 X:55 Y:29 P:E5 SP:F9 STACK: 00 00 C6 2B DE 0B
F9EC  F0 1A     BEQ $FA08                       A:80 X:55 Y:29 P:E5 SP:F9 STACK: 00 00 C6 2B DE 0B
F9EE  10 18     BPL $FA08                       A:80 X:55 Y:29 P:E5 SP:F9 STACK: 00 00 C6 2B DE 0B
F9F0  50 16     BVC $FA08                       A:80 X:55 Y:29 P:E5 SP:F9 STACK: 00 00 C6 2B DE 0B
F9F2  C9 80     CMP #$80                        A:80 X:55 Y:29 P:E5 SP:F9 STACK: 00 00 C6 2B DE 0B
F9F4  D0 12     BNE $FA08                       A:80 X:55 Y:29 P:67 SP:F9 STACK: 00 00 C6 2B DE 0B
F9F6  B8        CLV                             A:80 X:55 Y:29 P:67 SP:F9 STACK: 00 00 C6 2B DE 0B
F9F7  18        CLC                             A:80 X:55 Y:29 P:27 SP:F9 STACK: 00 00 C6 2B DE 0B
F9F8  A9 55     LDA #$55                        A:80 X:55 Y:29 P:26 SP:F9 STACK: 00 00 C6 2B DE 0B
F9FA  60        RTS                             A:55 X:55 Y:29 P:24 SP:F9 STACK: 00 00 C6 2B DE 0B
DE0C  C8        INY                             A:55 X:55 Y:29 P:24 SP:FB STACK: 00 00 C6 2B
DE0D  95 00     STA $55,X @ 00AA = 80           A:55 X:55 Y:2A P:24 SP:FB STACK: 00 00 C6 2B
DE0F  76 00     ROR $55,X @ 00AA = 55           A:55 X:55 Y:2A P:24 SP:FB STACK: 00 00 C6 2B
DE11  B5 00     LDA $55,X @ 00AA = 2A           A:55 X:55 Y:2A P:25 SP:FB STACK: 00 00 C6 2B
DE13  20 FB F9  JSR $F9FB                       A:2A X:55 Y:2A P:25 SP:FB STACK: 00 00 C6 2B
F9FB  90 0B     BCC $FA08                       A:2A X:55 Y:2A P:25 SP:F9 STACK: 00 00 C6 2B DE 15
F9FD  F0 09     BEQ $FA08                       A:2A X:55 Y:2A P:25 SP:F9 STACK: 00 00 C6 2B DE 15
F9FF  30 07     BMI $FA08                       A:2A X:55 Y:2A P:25 SP:F9 STACK: 00 00 C6 2B DE 15
FA01  70 05     BVS $FA08                       A:2A X:55 Y:2A P:25 SP:F9 STACK: 00 00 C6 2B DE 15
FA03  C9 2A     CMP #$2A                        A:2A X:55 Y:2A P:25 SP:F9 STACK: 00 00 C6 2B DE 15
FA05  D0 01     BNE $FA08                       A:2A X:55 Y:2A P:27 SP:F9 STACK: 00 00 C6 2B DE 15
FA07  60        RTS                             A:2A X:55 Y:2A P:27 SP:F9 STACK: 00 00 C6 2B DE 15
DE16  C8        INY                             A:2A X:55 Y:2A P:27 SP:FB STACK: 00 00 C6 2B
DE17  20 0A FA  JSR $FA0A                       A:2A X:55 Y:2B P:25 SP:FB STACK: 00 00 C6 2B
FA0A  24 01     BIT $01 = FF                    A:2A X:55 Y:2B P:25 SP:F9 STACK: 00 00 C6 2B DE 19
FA0C  38        SEC                             A:2A X:55 Y:2B P:E5 SP:F9 STACK: 00 00 C6 2B DE 19
FA0D  A9 80     LDA #$80                        A:2A X:55 Y:2B P:E5 SP:F9 STACK: 00 00 C6 2B DE 19
FA0F  60        RTS                             A:80 X:55 Y:2B P:E5 SP:F9 STACK: 00 00 C6 2B DE 19
DE1A  95 00     STA $55,X @ 00AA = 2A           A:80 X:55 Y:2B P:E5 SP:FB STACK: 00 00 C6 2B
DE1C  36 00     ROL $55,X @ 00AA = 80           A:80 X:55 Y:2B P:E5 SP:FB STACK: 00 00 C6 2B
DE1E  B5 00     LDA $55,X @ 00AA = 01           A:80 X:55 Y:2B P:65 SP:FB STACK: 00 00 C6 2B
DE20  20 10 FA  JSR $FA10                       A:01 X:55 Y:2B P:65 SP:FB STACK: 00 00 C6 2B
FA10  90 1C     BCC $FA2E                       A:01 X:55 Y:2B P:65 SP:F9 STACK: 00 00 C6 2B DE 22
FA12  F0 1A     BEQ $FA2E                       A:01 X:55 Y:2B P:65 SP:F9 STACK: 00 00 C6 2B DE 22
FA14  30 18     BMI $FA2E                       A:01 X:55 Y:2B P:65 SP:F9 STACK: 00 00 C6 2B DE 22
FA16  50 16     BVC $FA2E                       A:01 X:55 Y:2B P:65 SP:F9 STACK: 00 00 C6 2B DE 22
FA18  C9 01     CMP #$01                        A:01 X:55 Y:2B P:65 SP:F9 STACK: 00 00 C6 2B DE 22
FA1A  D0 12     BNE $FA2E                       A:01 X:55 Y:2B P:67 SP:F9 STACK: 00 00 C6 2B DE 22
FA1C  B8        CLV                             A:01 X:55 Y:2B P:67 SP:F9 STACK: 00 00 C6 2B DE 22
FA1D  18        CLC                             A:01 X:55 Y:2B P:27 SP:F9 STACK: 00 00 C6 2B DE 22
FA1E  A9 55     LDA #$55                        A:01 X:55 Y:2B P:26 SP:F9 STACK: 00 00 C6 2B DE 22
FA20  60        RTS                             A:55 X:55 Y:2B P:24 SP:F9 STACK: 00 00 C6 2B DE 22
DE23  C8        INY                             A:55 X:55 Y:2B P:24 SP:FB STACK: 00 00 C6 2B
DE24  95 00     STA $55,X @ 00AA = 01           A:55 X:55 Y:2C P:24 SP:FB STACK: 00 00 C6 2B
DE26  36 00     ROL $55,X @ 00AA = 55           A:55 X:55 Y:2C P:24 SP:FB STACK: 00 00 C6 2B
DE28  B5 00     LDA $55,X @ 00AA = AA           A:55 X:55 Y:2C P:A4 SP:FB STACK: 00 00 C6 2B
DE2A  20 21 FA  JSR $FA21                       A:AA X:55 Y:2C P:A4 SP:FB STACK: 00 00 C6 2B
FA21  B0 0B     BCS $FA2E                       A:AA X:55 Y:2C P:A4 SP:F9 STACK: 00 00 C6 2B DE 2C
FA23  F0 09     BEQ $FA2E                       A:AA X:55 Y:2C P:A4 SP:F9 STACK: 00 00 C6 2B DE 2C
FA25  10 07     BPL $FA2E                       A:AA X:55 Y:2C P:A4 SP:F9 STACK: 00 00 C6 2B DE 2C
FA27  70 05     BVS $FA2E                       A:AA X:55 Y:2C P:A4 SP:F9 STACK: 00 00 C6 2B DE 2C
FA29  C9 AA     CMP #$AA                        A:AA X:55 Y:2C P:A4 SP:F9 STACK: 00 00 C6 2B DE 2C
FA2B  D0 01     BNE $FA2E                       A:AA X:55 Y:2C P:27 SP:F9 STACK: 00 00 C6 2B DE 2C
FA2D  60        RTS                             A:AA X:55 Y:2C P:27 SP:F9 STACK: 00 00 C6 2B DE 2C
DE2D  A9 FF     LDA #$FF                        A:AA X:55 Y:2C P:27 SP:FB STACK: 00 00 C6 2B
DE2F  95 00     STA $55,X @ 00AA = AA           A:FF X:55 Y:2C P:A5 SP:FB STACK: 00 00 C6 2B
DE31  85 01     STA $01 = FF                    A:FF X:55 Y:2C P:A5 SP:FB STACK: 00 00 C6 2B
DE33  24 01     BIT $01 = FF                    A:FF X:55 Y:2C P:A5 SP:FB STACK: 00 00 C6 2B
DE35  38        SEC                             A:FF X:55 Y:2C P:E5 SP:FB STACK: 00 00 C6 2B
DE36  F6 00     INC $55,X @ 00AA = FF           A:FF X:55 Y:2C P:E5 SP:FB STACK: 00 00 C6 2B
DE38  D0 0C     BNE $DE46                       A:FF X:55 Y:2C P:67 SP:FB STACK: 00 00 C6 2B
DE3A  30 0A     BMI $DE46                       A:FF X:55 Y:2C P:67 SP:FB STACK: 00 00 C6 2B
DE3C  50 08     BVC $DE46                       A:FF X:55 Y:2C P:67 SP:FB STACK: 00 00 C6 2B
DE3E  90 06     BCC $DE46                       A:FF X:55 Y:2C P:67 SP:FB STACK: 00 00 C6 2B
DE40  B5 00     LDA $55,X @ 00AA = 00           A:FF X:55 Y:2C P:67 SP:FB STACK: 00 00 C6 2B
DE42  C9 00     CMP #$00                        A:00 X:55 Y:2C P:67 SP:FB STACK: 00 00 C6 2B
DE44  F0 04     BEQ $DE4A                       A:00 X:55 Y:2C P:67 SP:FB STACK: 00 00 C6 2B
DE4A  A9 7F     LDA #$7F                        A:00 X:55 Y:2C P:67 SP:FB STACK: 00 00 C6 2B
DE4C  95 00     STA $55,X @ 00AA = 00           A:7F X:55 Y:2C P:65 SP:FB STACK: 00 00 C6 2B
DE4E  B8        CLV                             A:7F X:55 Y:2C P:65 SP:FB STACK: 00 00 C6 2B
DE4F  18        CLC                             A:7F X:55 Y:2C P:25 SP:FB STACK: 00 00 C6 2B
DE50  F6 00     INC $55,X @ 00AA = 7F           A:7F X:55 Y:2C P:24 SP:FB STACK: 00 00 C6 2B
DE52  F0 0C     BEQ $DE60                       A:7F X:55 Y:2C P:A4 SP:FB STACK: 00 00 C6 2B
DE54  10 0A     BPL $DE60                       A:7F X:55 Y:2C P:A4 SP:FB STACK: 00 00 C6 2B
DE56  70 08     BVS $DE60                       A:7F X:55 Y:2C P:A4 SP:FB STACK: 00 00 C6 2B
DE58  B0 06     BCS $DE60                       A:7F X:55 Y:2C P:A4 SP:FB STACK: 00 00 C6 2B
DE5A  B5 00     LDA $55,X @ 00AA = 80           A:7F X:55 Y:2C P:A4 SP:FB STACK: 00 00 C6 2B
DE5C  C9 80     CMP #$80                        A:80 X:55 Y:2C P:A4 SP:FB STACK: 00 00 C6 2B
DE5E  F0 04     BEQ $DE64                       A:80 X:55 Y:2C P:27 SP:FB STACK: 00 00 C6 2B
DE64  A9 00     LDA #$00                        A:80 X:55 Y:2C P:27 SP:FB STACK: 00 00 C6 2B
DE66  95 00     STA $55,X @ 00AA = 80           A:00 X:55 Y:2C P:27 SP:FB STACK: 00 00 C6 2B
DE68  24 01     BIT $01 = FF                    A:00 X:55 Y:2C P:27 SP:FB STACK: 00 00 C6 2B
DE6A  38        SEC                             A:00 X:55 Y:2C P:E7 SP:FB STACK: 00 00 C6 2B
DE6B  D6 00     DEC $55,X @ 00AA = 00           A:00 X:55 Y:2C P:E7 SP:FB STACK: 00 00 C6 2B
DE6D  F0 0C     BEQ $DE7B                       A:00 X:55 Y:2C P:E5 SP:FB STACK: 00 00 C6 2B
DE6F  10 0A     BPL $DE7B                       A:00 X:55 Y:2C P:E5 SP:FB STACK: 00 00 C6 2B
DE71  50 08     BVC $DE7B                       A:00 X:55 Y:2C P:E5 SP:FB STACK: 00 00 C6 2B
DE73  90 06     BCC $DE7B                       A:00 X:55 Y:2C P:E5 SP:FB STACK: 00 00 C6 2B
DE75  B5 00     LDA $55,X @ 00AA = FF           A:00 X:55 Y:2C P:E5 SP:FB STACK: 00 00 C6 2B
DE77  C9 FF     CMP #$FF                        A:FF X:55 Y:2C P:E5 SP:FB STACK: 00 00 C6 2B
DE79  F0 04     BEQ $DE7F                       A:FF X:55 Y:2C P:67 SP:FB STACK: 00 00 C6 2B
DE7F  A9 80     LDA #$80                        A:FF X:55 Y:2C P:67 SP:FB STACK: 00 00 C6 2B
DE81  95 00     STA $55,X @ 00AA = FF           A:80 X:55 Y:2C P:E5 SP:FB STACK: 00 00 C6 2B
DE83  B8        CLV                             A:80 X:55 Y:2C P:E5 SP:FB STACK: 00 00 C6 2B
DE84  18        CLC                             A:80 X:55 Y:2C P:A5 SP:FB STACK: 00 00 C6 2B
DE85  D6 00     DEC $55,X @ 00AA = 80           A:80 X:55 Y:2C P:A4 SP:FB STACK: 00 00 C6 2B
DE87  F0 0C     BEQ $DE95                       A:80 X:55 Y:2C P:24 SP:FB STACK: 00 00 C6 2B
DE89  30 0A     BMI $DE95                       A:80 X:55 Y:2C P:24 SP:FB STACK: 00 00 C6 2B
DE8B  70 08     BVS $DE95                       A:80 X:55 Y:2C P:24 SP:FB STACK: 00 00 C6 2B
DE8D  B0 06     BCS $DE95                       A:80 X:55 Y:2C P:24 SP:FB STACK: 00 00 C6 2B
DE8F  B5 00     LDA $55,X @ 00AA = 7F           A:80 X:55 Y:2C P:24 SP:FB STACK: 00 00 C6 2B
DE91  C9 7F     CMP #$7F                        A:7F X:55 Y:2C P:24 SP:FB STACK: 00 00 C6 2B
DE93  F0 04     BEQ $DE99                       A:7F X:55 Y:2C P:27 SP:FB STACK: 00 00 C6 2B
DE99  A9 01     LDA #$01                        A:7F X:55 Y:2C P:27 SP:FB STACK: 00 00 C6 2B
DE9B  95 00     STA $55,X @ 00AA = 7F           A:01 X:55 Y:2C P:25 SP:FB STACK: 00 00 C6 2B
DE9D  D6 00     DEC $55,X @ 00AA = 01           A:01 X:55 Y:2C P:25 SP:FB STACK: 00 00 C6 2B
DE9F  F0 04     BEQ $DEA5                       A:01 X:55 Y:2C P:27 SP:FB STACK: 00 00 C6 2B
DEA5  A9 33     LDA #$33                        A:01 X:55 Y:2C P:27 SP:FB STACK: 00 00 C6 2B
DEA7  85 78     STA $78 = 7F                    A:33 X:55 Y:2C P:25 SP:FB STACK: 00 00 C6 2B
DEA9  A9 44     LDA #$44                        A:33 X:55 Y:2C P:25 SP:FB STACK: 00 00 C6 2B
DEAB  A0 78     LDY #$78                        A:44 X:55 Y:2C P:25 SP:FB STACK: 00 00 C6 2B
DEAD  A2 00     LDX #$00                        A:44 X:55 Y:78 P:25 SP:FB STACK: 00 00 C6 2B
DEAF  38        SEC                             A:44 X:00 Y:78 P:27 SP:FB STACK: 00 00 C6 2B
DEB0  24 01     BIT $01 = FF                    A:44 X:00 Y:78 P:27 SP:FB STACK: 00 00 C6 2B
DEB2  B6 00     LDX $78,Y @ 00F0 = 33           A:44 X:00 Y:78 P:E5 SP:FB STACK: 00 00 C6 2B
DEB4  90 12     BCC $DEC8                       A:44 X:33 Y:78 P:65 SP:FB STACK: 00 00 C6 2B
DEB6  50 10     BVC $DEC8                       A:44 X:33 Y:78 P:65 SP:FB STACK: 00 00 C6 2B
DEB8  30 0E     BMI $DEC8                       A:44 X:33 Y:78 P:65 SP:FB STACK: 00 00 C6 2B
DEBA  F0 0C     BEQ $DEC8                       A:44 X:33 Y:78 P:65 SP:FB STACK: 00 00 C6 2B
DEBC  E0 33     CPX #$33                        A:44 X:33 Y:78 P:65 SP:FB STACK: 00 00 C6 2B
DEBE  D0 08     BNE $DEC8                       A:44 X:33 Y:78 P:67 SP:FB STACK: 00 00 C6 2B
DEC0  C0 78     CPY #$78                        A:44 X:33 Y:78 P:67 SP:FB STACK: 00 00 C6 2B
DEC2  D0 04     BNE $DEC8                       A:44 X:33 Y:78 P:67 SP:FB STACK: 00 00 C6 2B
DEC4  C9 44     CMP #$44                        A:44 X:33 Y:78 P:67 SP:FB STACK: 00 00 C6 2B
DEC6  F0 04     BEQ $DECC                       A:44 X:33 Y:78 P:67 SP:FB STACK: 00 00 C6 2B
DECC  A9 97     LDA #$97                        A:44 X:33 Y:78 P:67 SP:FB STACK: 00 00 C6 2B
DECE  85 7F     STA $7F = 69                    A:97 X:33 Y:78 P:E5 SP:FB STACK: 00 00 C6 2B
DED0  A9 47     LDA #$47                        A:97 X:33 Y:78 P:E5 SP:FB STACK: 00 00 C6 2B
DED2  A0 FF     LDY #$FF                        A:47 X:33 Y:78 P:65 SP:FB STACK: 00 00 C6 2B
DED4  A2 00     LDX #$00                        A:47 X:33 Y:FF P:E5 SP:FB STACK: 00 00 C6 2B
DED6  18        CLC                             A:47 X:00 Y:FF P:67 SP:FB STACK: 00 00 C6 2B
DED7  B8        CLV                             A:47 X:00 Y:FF P:66 SP:FB STACK: 00 00 C6 2B
DED8  B6 80     LDX $7F,Y @ 017E = 97           A:47 X:00 Y:FF P:26 SP:FB STACK: 00 00 C6 2B
DEDA  B0 12     BCS $DEEE                       A:47 X:97 Y:FF P:A4 SP:FB STACK: 00 00 C6 2B
DEDC  70 10     BVS $DEEE                       A:47 X:97 Y:FF P:A4 SP:FB STACK: 00 00 C6 2B
DEDE  10 0E     BPL $DEEE                       A:47 X:97 Y:FF P:A4 SP:FB STACK: 00 00 C6 2B
DEE0  F0 0C     BEQ $DEEE                       A:47 X:97 Y:FF P:A4 SP:FB STACK: 00 00 C6 2B
DEE2  E0 97     CPX #$97                        A:47 X:97 Y:FF P:A4 SP:FB STACK: 00 00 C6 2B
DEE4  D0 08     BNE $DEEE                       A:47 X:97 Y:FF P:27 SP:FB STACK: 00 00 C6 2B
DEE6  C0 FF     CPY #$FF                        A:47 X:97 Y:FF P:27 SP:FB STACK: 00 00 C6 2B
DEE8  D0 04     BNE $DEEE                       A:47 X:97 Y:FF P:27 SP:FB STACK: 00 00 C6 2B
DEEA  C9 47     CMP #$47                        A:47 X:97 Y:FF P:27 SP:FB STACK: 00 00 C6 2B
DEEC  F0 04     BEQ $DEF2                       A:47 X:97 Y:FF P:27 SP:FB STACK: 00 00 C6 2B
DEF2  A9 00     LDA #$00                        A:47 X:97 Y:FF P:27 SP:FB STACK: 00 00 C6 2B
DEF4  85 7F     STA $7F = 97                    A:00 X:97 Y:FF P:27 SP:FB STACK: 00 00 C6 2B
DEF6  A9 47     LDA #$47                        A:00 X:97 Y:FF P:27 SP:FB STACK: 00 00 C6 2B
DEF8  A0 FF     LDY #$FF                        A:47 X:97 Y:FF P:25 SP:FB STACK: 00 00 C6 2B
DEFA  A2 69     LDX #$69                        A:47 X:97 Y:FF P:A5 SP:FB STACK: 00 00 C6 2B
DEFC  18        CLC                             A:47 X:69 Y:FF P:25 SP:FB STACK: 00 00 C6 2B
DEFD  B8        CLV                             A:47 X:69 Y:FF P:24 SP:FB STACK: 00 00 C6 2B
DEFE  96 80     STX $7F,Y @ 017E = 00           A:47 X:69 Y:FF P:24 SP:FB STACK: 00 00 C6 2B
DF00  B0 18     BCS $DF1A                       A:47 X:69 Y:FF P:24 SP:FB STACK: 00 00 C6 2B
DF02  70 16     BVS $DF1A                       A:47 X:69 Y:FF P:24 SP:FB STACK: 00 00 C6 2B
DF04  30 14     BMI $DF1A                       A:47 X:69 Y:FF P:24 SP:FB STACK: 00 00 C6 2B
DF06  F0 12     BEQ $DF1A                       A:47 X:69 Y:FF P:24 SP:FB STACK: 00 00 C6 2B
DF08  E0 69     CPX #$69                        A:47 X:69 Y:FF P:24 SP:FB STACK: 00 00 C6 2B
DF0A  D0 0E     BNE $DF1A                       A:47 X:69 Y:FF P:27 SP:FB STACK: 00 00 C6 2B
DF0C  C0 FF     CPY #$FF                        A:47 X:69 Y:FF P:27 SP:FB STACK: 00 00 C6 2B
DF0E  D0 0A     BNE $DF1A                       A:47 X:69 Y:FF P:27 SP:FB STACK: 00 00 C6 2B
DF10  C9 47     CMP #$47                        A:47 X:69 Y:FF P:27 SP:FB STACK: 00 00 C6 2B
DF12  D0 06     BNE $DF1A                       A:47 X:69 Y:FF P:27 SP:FB STACK: 00 00 C6 2B
DF14  A5 7F     LDA $7F = 69                    A:47 X:69 Y:FF P:27 SP:FB STACK: 00 00 C6 2B
DF16  C9 69     CMP #$69                        A:69 X:69 Y:FF P:25 SP:FB STACK: 00 00 C6 2B
DF18  F0 04     BEQ $DF1E                       A:69 X:69 Y:FF P:27 SP:FB STACK: 00 00 C6 2B
DF1E  A9 F5     LDA #$F5                        A:69 X:69 Y:FF P:27 SP:FB STACK: 00 00 C6 2B
DF20  85 4F     STA $4F = 00                    A:F5 X:69 Y:FF P:A5 SP:FB STACK: 00 00 C6 2B
DF22  A9 47     LDA #$47                        A:F5 X:69 Y:FF P:A5 SP:FB STACK: 00 00 C6 2B
DF24  A0 4F     LDY #$4F                        A:47 X:69 Y:FF P:25 SP:FB STACK: 00 00 C6 2B
DF26  24 01     BIT $01 = FF                    A:47 X:69 Y:4F P:25 SP:FB STACK: 00 00 C6 2B
DF28  A2 00     LDX #$00                        A:47 X:69 Y:4F P:E5 SP:FB STACK: 00 00 C6 2B
DF2A  38        SEC                             A:47 X:00 Y:4F P:67 SP:FB STACK: 00 00 C6 2B
DF2B  96 00     STX $4F,Y @ 009E = F5           A:47 X:00 Y:4F P:67 SP:FB STACK: 00 00 C6 2B
DF2D  90 16     BCC $DF45                       A:47 X:00 Y:4F P:67 SP:FB STACK: 00 00 C6 2B
DF2F  50 14     BVC $DF45                       A:47 X:00 Y:4F P:67 SP:FB STACK: 00 00 C6 2B
DF31  30 12     BMI $DF45                       A:47 X:00 Y:4F P:67 SP:FB STACK: 00 00 C6 2B
DF33  D0 10     BNE $DF45                       A:47 X:00 Y:4F P:67 SP:FB STACK: 00 00 C6 2B
DF35  E0 00     CPX #$00                        A:47 X:00 Y:4F P:67 SP:FB STACK: 00 00 C6 2B
DF37  D0 0C     BNE $DF45                       A:47 X:00 Y:4F P:67 SP:FB STACK: 00 00 C6 2B
DF39  C0 4F     CPY #$4F                        A:47 X:00 Y:4F P:67 SP:FB STACK: 00 00 C6 2B
DF3B  D0 08     BNE $DF45                       A:47 X:00 Y:4F P:67 SP:FB STACK: 00 00 C6 2B
DF3D  C9 47     CMP #$47                        A:47 X:00 Y:4F P:67 SP:FB STACK: 00 00 C6 2B
DF3F  D0 04     BNE $DF45                       A:47 X:00 Y:4F P:67 SP:FB STACK: 00 00 C6 2B
DF41  A5 4F     LDA $4F = 00                    A:47 X:00 Y:4F P:67 SP:FB STACK: 00 00 C6 2B
DF43  F0 04     BEQ $DF49                       A:00 X:00 Y:4F P:67 SP:FB STACK: 00 00 C6 2B
DF49  60        RTS                             A:00 X:00 Y:4F P:67 SP:FB STACK: 00 00 C6 2B
C62C  20 AA E1  JSR $E1AA                       A:00 X:00 Y:4F P:67 SP:FD STACK: 00 00
E1AA  A9 FF     LDA #$FF                        A:00 X:00 Y:4F P:67 SP:FB STACK: 00 00 C6 2E
E1AC  85 01     STA $01 = FF                    A:FF X:00 Y:4F P:E5 SP:FB STACK: 00 00 C6 2E
E1AE  A9 AA     LDA #$AA                        A:FF X:00 Y:4F P:E5 SP:FB STACK: 00 00 C6 2E
E1B0  8D 33 06  STA $0633 = 00                  A:AA X:00 Y:4F P:E5 SP:FB STACK: 00 00 C6 2E
E1B3  A9 BB     LDA #$BB                        A:AA X:00 Y:4F P:E5 SP:FB STACK: 00 00 C6 2E
E1B5  8D 89 06  STA $0689 = 00                  A:BB X:00 Y:4F P:E5 SP:FB STACK: 00 00 C6 2E
E1B8  A2 00     LDX #$00                        A:BB X:00 Y:4F P:E5 SP:FB STACK: 00 00 C6 2E
E1BA  A9 66     LDA #$66                        A:BB X:00 Y:4F P:67 SP:FB STACK: 00 00 C6 2E
E1BC  24 01     BIT $01 = FF                    A:66 X:00 Y:4F P:65 SP:FB STACK: 00 00 C6 2E
E1BE  38        SEC                             A:66 X:00 Y:4F P:E5 SP:FB STACK: 00 00 C6 2E
E1BF  A0 00     LDY #$00                        A:66 X:00 Y:4F P:E5 SP:FB STACK: 00 00 C6 2E
E1C1  BC 33 06  LDY $0633,X @ 0633 = AA         A:66 X:00 Y:00 P:67 SP:FB STACK: 00 00 C6 2E
E1C4  10 12     BPL $E1D8                       A:66 X:00 Y:AA P:E5 SP:FB STACK: 00 00 C6 2E
E1C6  F0 10     BEQ $E1D8                       A:66 X:00 Y:AA P:E5 SP:FB STACK: 00 00 C6 2E
E1C8  50 0E     BVC $E1D8                       A:66 X:00 Y:AA P:E5 SP:FB STACK: 00 00 C6 2E
E1CA  90 0C     BCC $E1D8                       A:66 X:00 Y:AA P:E5 SP:FB STACK: 00 00 C6 2E
E1CC  C9 66     CMP #$66                        A:66 X:00 Y:AA P:E5 SP:FB STACK: 00 00 C6 2E
E1CE  D0 08     BNE $E1D8                       A:66 X:00 Y:AA P:67 SP:FB STACK: 00 00 C6 2E
E1D0  E0 00     CPX #$00                        A:66 X:00 Y:AA P:67 SP:FB STACK: 00 00 C6 2E
E1D2  D0 04     BNE $E1D8                       A:66 X:00 Y:AA P:67 SP:FB STACK: 00 00 C6 2E
E1D4  C0 AA     CPY #$AA                        A:66 X:00 Y:AA P:67 SP:FB STACK: 00 00 C6 2E
E1D6  F0 04     BEQ $E1DC                       A:66 X:00 Y:AA P:67 SP:FB STACK: 00 00 C6 2E
E1DC  A2 8A     LDX #$8A                        A:66 X:00 Y:AA P:67 SP:FB STACK: 00 00 C6 2E
E1DE  A9 66     LDA #$66                        A:66 X:8A Y:AA P:E5 SP:FB STACK: 00 00 C6 2E
E1E0  B8        CLV                             A:66 X:8A Y:AA P:65 SP:FB STACK: 00 00 C6 2E
E1E1  18        CLC                             A:66 X:8A Y:AA P:25 SP:FB STACK: 00 00 C6 2E
E1E2  A0 00     LDY #$00                        A:66 X:8A Y:AA P:24 SP:FB STACK: 00 00 C6 2E
E1E4  BC FF 05  LDY $0689,X @ 0713 = BB         A:66 X:8A Y:00 P:26 SP:FB STACK: 00 00 C6 2E
E1E7  10 12     BPL $E1FB                       A:66 X:8A Y:BB P:A4 SP:FB STACK: 00 00 C6 2E
E1E9  F0 10     BEQ $E1FB                       A:66 X:8A Y:BB P:A4 SP:FB STACK: 00 00 C6 2E
E1EB  70 0E     BVS $E1FB                       A:66 X:8A Y:BB P:A4 SP:FB STACK: 00 00 C6 2E
E1ED  B0 0C     BCS $E1FB                       A:66 X:8A Y:BB P:A4 SP:FB STACK: 00 00 C6 2E
E1EF  C0 BB     CPY #$BB                        A:66 X:8A Y:BB P:A4 SP:FB STACK: 00 00 C6 2E
E1F1  D0 08     BNE $E1FB                       A:66 X:8A Y:BB P:27 SP:FB STACK: 00 00 C6 2E
E1F3  C9 66     CMP #$66                        A:66 X:8A Y:BB P:27 SP:FB STACK: 00 00 C6 2E
E1F5  D0 04     BNE $E1FB                       A:66 X:8A Y:BB P:27 SP:FB STACK: 00 00 C6 2E
E1F7  E0 8A     CPX #$8A                        A:66 X:8A Y:BB P:27 SP:FB STACK: 00 00 C6 2E
E1F9  F0 04     BEQ $E1FF                       A:66 X:8A Y:BB P:27 SP:FB STACK: 00 00 C6 2E
E1FF  A0 53     LDY #$53                        A:66 X:8A Y:BB P:27 SP:FB STACK: 00 00 C6 2E
E201  A9 AA     LDA #$AA                        A:66 X:8A Y:53 P:25 SP:FB STACK: 00 00 C6 2E
E203  A2 78     LDX #$78                        A:AA X:8A Y:53 P:A5 SP:FB STACK: 00 00 C6 2E
E205  8D 78 06  STA $0678 = 00                  A:AA X:78 Y:53 P:25 SP:FB STACK: 00 00 C6 2E
E208  20 B6 F7  JSR $F7B6                       A:AA X:78 Y:53 P:25 SP:FB STACK: 00 00 C6 2E
F7B6  18        CLC                             A:AA X:78 Y:53 P:25 SP:F9 STACK: 00 00 C6 2E E2 0A
F7B7  A9 FF     LDA #$FF                        A:AA X:78 Y:53 P:24 SP:F9 STACK: 00 00 C6 2E E2 0A
F7B9  85 01     STA $01 = FF                    A:FF X:78 Y:53 P:A4 SP:F9 STACK: 00 00 C6 2E E2 0A
F7BB  24 01     BIT $01 = FF                    A:FF X:78 Y:53 P:A4 SP:F9 STACK: 00 00 C6 2E E2 0A
F7BD  A9 55     LDA #$55                        A:FF X:78 Y:53 P:E4 SP:F9 STACK: 00 00 C6 2E E2 0A
F7BF  60        RTS                             A:55 X:78 Y:53 P:64 SP:F9 STACK: 00 00 C6 2E E2 0A
E20B  1D 00 06  ORA $0678,X @ 06F0 = AA         A:55 X:78 Y:53 P:64 SP:FB STACK: 00 00 C6 2E
E20E  20 C0 F7  JSR $F7C0                       A:FF X:78 Y:53 P:E4 SP:FB STACK: 00 00 C6 2E
F7C0  B0 09     BCS $F7CB                       A:FF X:78 Y:53 P:E4 SP:F9 STACK: 00 00 C6 2E E2 10
F7C2  10 07     BPL $F7CB                       A:FF X:78 Y:53 P:E4 SP:F9 STACK: 00 00 C6 2E E2 10
F7C4  C9 FF     CMP #$FF                        A:FF X:78 Y:53 P:E4 SP:F9 STACK: 00 00 C6 2E E2 10
F7C6  D0 03     BNE $F7CB                       A:FF X:78 Y:53 P:67 SP:F9 STACK: 00 00 C6 2E E2 10
F7C8  50 01     BVC $F7CB                       A:FF X:78 Y:53 P:67 SP:F9 STACK: 00 00 C6 2E E2 10
F7CA  60        RTS                             A:FF X:78 Y:53 P:67 SP:F9 STACK: 00 00 C6 2E E2 10
E211  C8        INY                             A:FF X:78 Y:53 P:67 SP:FB STACK: 00 00 C6 2E
E212  A9 00     LDA #$00                        A:FF X:78 Y:54 P:65 SP:FB STACK: 00 00 C6 2E
E214  8D 78 06  STA $0678 = AA                  A:00 X:78 Y:54 P:67 SP:FB STACK: 00 00 C6 2E
E217  20 CE F7  JSR $F7CE                       A:00 X:78 Y:54 P:67 SP:FB STACK: 00 00 C6 2E
F7CE  38        SEC                             A:00 X:78 Y:54 P:67 SP:F9 STACK: 00 00 C6 2E E2 19
F7CF  B8        CLV                             A:00 X:78 Y:54 P:67 SP:F9 STACK: 00 00 C6 2E E2 19
F7D0  A9 00     LDA #$00                        A:00 X:78 Y:54 P:27 SP:F9 STACK: 00 00 C6 2E E2 19
F7D2  60        RTS                             A:00 X:78 Y:54 P:27 SP:F9 STACK: 00 00 C6 2E E2 19
E21A  1D 00 06  ORA $0678,X @ 06F0 = 00         A:00 X:78 Y:54 P:27 SP:FB STACK: 00 00 C6 2E
E21D  20 D3 F7  JSR $F7D3                       A:00 X:78 Y:54 P:27 SP:FB STACK: 00 00 C6 2E
F7D3  D0 07     BNE $F7DC                       A:00 X:78 Y:54 P:27 SP:F9 STACK: 00 00 C6 2E E2 1F
F7D5  70 05     BVS $F7DC                       A:00 X:78 Y:54 P:27 SP:F9 STACK: 00 00 C6 2E E2 1F
F7D7  90 03     BCC $F7DC                       A:00 X:78 Y:54 P:27 SP:F9 STACK: 00 00 C6 2E E2 1F
F7D9  30 01     BMI $F7DC                       A:00 X:78 Y:54 P:27 SP:F9 STACK: 00 00 C6 2E E2 1F
F7DB  60        RTS                             A:00 X:78 Y:54 P:27 SP:F9 STACK: 00 00 C6 2E E2 1F
E220  C8        INY                             A:00 X:78 Y:54 P:27 SP:FB STACK: 00 00 C6 2E
E221  A9 AA     LDA #$AA                        A:00 X:78 Y:55 P:25 SP:FB STACK: 00 00 C6 2E
E223  8D 78 06  STA $0678 = 00                  A:AA X:78 Y:55 P:A5 SP:FB STACK: 00 00 C6 2E
E226  20 DF F7  JSR $F7DF                       A:AA X:78 Y:55 P:A5 SP:FB STACK: 00 00 C6 2E
F7DF  18        CLC                             A:AA X:78 Y:55 P:A5 SP:F9 STACK: 00 00 C6 2E E2 28
F7E0  24 01     BIT $01 = FF                    A:AA X:78 Y:55 P:A4 SP:F9 STACK: 00 00 C6 2E E2 28
F7E2  A9 55     LDA #$55                        A:AA X:78 Y:55 P:E4 SP:F9 STACK: 00 00 C6 2E E2 28
F7E4  60        RTS                             A:55 X:78 Y:55 P:64 SP:F9 STACK: 00 00 C6 2E E2 28
E229  3D 00 06  AND $0678,X @ 06F0 = AA         A:55 X:78 Y:55 P:64 SP:FB STACK: 00 00 C6 2E
E22C  20 E5 F7  JSR $F7E5                       A:00 X:78 Y:55 P:66 SP:FB STACK: 00 00 C6 2E
F7E5  D0 07     BNE $F7EE                       A:00 X:78 Y:55 P:66 SP:F9 STACK: 00 00 C6 2E E2 2E
F7E7  50 05     BVC $F7EE                       A:00 X:78 Y:55 P:66 SP:F9 STACK: 00 00 C6 2E E2 2E
F7E9  B0 03     BCS $F7EE                       A:00 X:78 Y:55 P:66 SP:F9 STACK: 00 00 C6 2E E2 2E
F7EB  30 01     BMI $F7EE                       A:00 X:78 Y:55 P:66 SP:F9 STACK: 00 00 C6 2E E2 2E
F7ED  60        RTS                             A:00 X:78 Y:55 P:66 SP:F9 STACK: 00 00 C6 2E E2 2E
E22F  C8        INY                             A:00 X:78 Y:55 P:66 SP:FB STACK: 00 00 C6 2E
E230  A9 EF     LDA #$EF                        A:00 X:78 Y:56 P:64 SP:FB STACK: 00 00 C6 2E
E232  8D 78 06  STA $0678 = AA                  A:EF X:78 Y:56 P:E4 SP:FB STACK: 00 00 C6 2E
E235  20 F1 F7  JSR $F7F1                       A:EF X:78 Y:56 P:E4 SP:FB STACK: 00 00 C6 2E
F7F1  38        SEC                             A:EF X:78 Y:56 P:E4 SP:F9 STACK: 00 00 C6 2E E2 37
F7F2  B8        CLV                             A:EF X:78 Y:56 P:E5 SP:F9 STACK: 00 00 C6 2E E2 37
F7F3  A9 F8     LDA #$F8                        A:EF X:78 Y:56 P:A5 SP:F9 STACK: 00 00 C6 2E E2 37
F7F5  60        RTS                             A:F8 X:78 Y:56 P:A5 SP:F9 STACK: 00 00 C6 2E E2 37
E238  3D 00 06  AND $0678,X @ 06F0 = EF         A:F8 X:78 Y:56 P:A5 SP:FB STACK: 00 00 C6 2E
E23B  20 F6 F7  JSR $F7F6                       A:E8 X:78 Y:56 P:A5 SP:FB STACK: 00 00 C6 2E
F7F6  90 09     BCC $F801                       A:E8 X:78 Y:56 P:A5 SP:F9 STACK: 00 00 C6 2E E2 3D
F7F8  10 07     BPL $F801                       A:E8 X:78 Y:56 P:A5 SP:F9 STACK: 00 00 C6 2E E2 3D
F7FA  C9 E8     CMP #$E8                        A:E8 X:78 Y:56 P:A5 SP:F9 STACK: 00 00 C6 2E E2 3D
F7FC  D0 03     BNE $F801                       A:E8 X:78 Y:56 P:27 SP:F9 STACK: 00 00 C6 2E E2 3D
F7FE  70 01     BVS $F801                       A:E8 X:78 Y:56 P:27 SP:F9 STACK: 00 00 C6 2E E2 3D
F800  60        RTS                             A:E8 X:78 Y:56 P:27 SP:F9 STACK: 00 00 C6 2E E2 3D
E23E  C8        INY                             A:E8 X:78 Y:56 P:27 SP:FB STACK: 00 00 C6 2E
E23F  A9 AA     LDA #$AA                        A:E8 X:78 Y:57 P:25 SP:FB STACK: 00 00 C6 2E
E241  8D 78 06  STA $0678 = EF                  A:AA X:78 Y:57 P:A5 SP:FB STACK: 00 00 C6 2E
E244  20 04 F8  JSR $F804                       A:AA X:78 Y:57 P:A5 SP:FB STACK: 00 00 C6 2E
F804  18        CLC                             A:AA X:78 Y:57 P:A5 SP:F9 STACK: 00 00 C6 2E E2 46
F805  24 01     BIT $01 = FF                    A:AA X:78 Y:57 P:A4 SP:F9 STACK: 00 00 C6 2E E2 46
F807  A9 5F     LDA #$5F                        A:AA X:78 Y:57 P:E4 SP:F9 STACK: 00 00 C6 2E E2 46
F809  60        RTS                             A:5F X:78 Y:57 P:64 SP:F9 STACK: 00 00 C6 2E E2 46
E247  5D 00 06  EOR $0678,X @ 06F0 = AA         A:5F X:78 Y:57 P:64 SP:FB STACK: 00 00 C6 2E
E24A  20 0A F8  JSR $F80A                       A:F5 X:78 Y:57 P:E4 SP:FB STACK: 00 00 C6 2E
F80A  B0 09     BCS $F815                       A:F5 X:78 Y:57 P:E4 SP:F9 STACK: 00 00 C6 2E E2 4C
F80C  10 07     BPL $F815                       A:F5 X:78 Y:57 P:E4 SP:F9 STACK: 00 00 C6 2E E2 4C
F80E  C9 F5     CMP #$F5                        A:F5 X:78 Y:57 P:E4 SP:F9 STACK: 00 00 C6 2E E2 4C
F810  D0 03     BNE $F815                       A:F5 X:78 Y:57 P:67 SP:F9 STACK: 00 00 C6 2E E2 4C
F812  50 01     BVC $F815                       A:F5 X:78 Y:57 P:67 SP:F9 STACK: 00 00 C6 2E E2 4C
F814  60        RTS                             A:F5 X:78 Y:57 P:67 SP:F9 STACK: 00 00 C6 2E E2 4C
E24D  C8        INY                             A:F5 X:78 Y:57 P:67 SP:FB STACK: 00 00 C6 2E
E24E  A9 70     LDA #$70                        A:F5 X:78 Y:58 P:65 SP:FB STACK: 00 00 C6 2E
E250  8D 78 06  STA $0678 = AA                  A:70 X:78 Y:58 P:65 SP:FB STACK: 00 00 C6 2E
E253  20 18 F8  JSR $F818                       A:70 X:78 Y:58 P:65 SP:FB STACK: 00 00 C6 2E
F818  38        SEC                             A:70 X:78 Y:58 P:65 SP:F9 STACK: 00 00 C6 2E E2 55
F819  B8        CLV                             A:70 X:78 Y:58 P:65 SP:F9 STACK: 00 00 C6 2E E2 55
F81A  A9 70     LDA #$70                        A:70 X:78 Y:58 P:25 SP:F9 STACK: 00 00 C6 2E E2 55
F81C  60        RTS                             A:70 X:78 Y:58 P:25 SP:F9 STACK: 00 00 C6 2E E2 55
E256  5D 00 06  EOR $0678,X @ 06F0 = 70         A:70 X:78 Y:58 P:25 SP:FB STACK: 00 00 C6 2E
E259  20 1D F8  JSR $F81D                       A:00 X:78 Y:58 P:27 SP:FB STACK: 00 00 C6 2E
F81D  D0 07     BNE $F826                       A:00 X:78 Y:58 P:27 SP:F9 STACK: 00 00 C6 2E E2 5B
F81F  70 05     BVS $F826                       A:00 X:78 Y:58 P:27 SP:F9 STACK: 00 00 C6 2E E2 5B
F821  90 03     BCC $F826                       A:00 X:78 Y:58 P:27 SP:F9 STACK: 00 00 C6 2E E2 5B
F823  30 01     BMI $F826                       A:00 X:78 Y:58 P:27 SP:F9 STACK: 00 00 C6 2E E2 5B
F825  60        RTS                             A:00 X:78 Y:58 P:27 SP:F9 STACK: 00 00 C6 2E E2 5B
E25C  C8        INY                             A:00 X:78 Y:58 P:27 SP:FB STACK: 00 00 C6 2E
E25D  A9 69     LDA #$69                        A:00 X:78 Y:59 P:25 SP:FB STACK: 00 00 C6 2E
E25F  8D 78 06  STA $0678 = 70                  A:69 X:78 Y:59 P:25 SP:FB STACK: 00 00 C6 2E
E262  20 29 F8  JSR $F829                       A:69 X:78 Y:59 P:25 SP:FB STACK: 00 00 C6 2E
F829  18        CLC                             A:69 X:78 Y:59 P:25 SP:F9 STACK: 00 00 C6 2E E2 64
F82A  24 01     BIT $01 = FF                    A:69 X:78 Y:59 P:24 SP:F9 STACK: 00 00 C6 2E E2 64
F82C  A9 00     LDA #$00                        A:69 X:78 Y:59 P:E4 SP:F9 STACK: 00 00 C6 2E E2 64
F82E  60        RTS                             A:00 X:78 Y:59 P:66 SP:F9 STACK: 00 00 C6 2E E2 64
E265  7D 00 06  ADC $0678,X @ 06F0 = 69         A:00 X:78 Y:59 P:66 SP:FB STACK: 00 00 C6 2E
E268  20 2F F8  JSR $F82F                       A:69 X:78 Y:59 P:24 SP:FB STACK: 00 00 C6 2E
F82F  30 09     BMI $F83A                       A:69 X:78 Y:59 P:24 SP:F9 STACK: 00 00 C6 2E E2 6A
F831  B0 07     BCS $F83A                       A:69 X:78 Y:59 P:24 SP:F9 STACK: 00 00 C6 2E E2 6A
F833  C9 69     CMP #$69                        A:69 X:78 Y:59 P:24 SP:F9 STACK: 00 00 C6 2E E2 6A
F835  D0 03     BNE $F83A                       A:69 X:78 Y:59 P:27 SP:F9 STACK: 00 00 C6 2E E2 6A
F837  70 01     BVS $F83A                       A:69 X:78 Y:59 P:27 SP:F9 STACK: 00 00 C6 2E E2 6A
F839  60        RTS                             A:69 X:78 Y:59 P:27 SP:F9 STACK: 00 00 C6 2E E2 6A
E26B  C8        INY                             A:69 X:78 Y:59 P:27 SP:FB STACK: 00 00 C6 2E
E26C  20 3D F8  JSR $F83D                       A:69 X:78 Y:5A P:25 SP:FB STACK: 00 00 C6 2E
F83D  38        SEC                             A:69 X:78 Y:5A P:25 SP:F9 STACK: 00 00 C6 2E E2 6E
F83E  24 01     BIT $01 = FF                    A:69 X:78 Y:5A P:25 SP:F9 STACK: 00 00 C6 2E E2 6E
F840  A9 00     LDA #$00                        A:69 X:78 Y:5A P:E5 SP:F9 STACK: 00 00 C6 2E E2 6E
F842  60        RTS                             A:00 X:78 Y:5A P:67 SP:F9 STACK: 00 00 C6 2E E2 6E
E26F  7D 00 06  ADC $0678,X @ 06F0 = 69         A:00 X:78 Y:5A P:67 SP:FB STACK: 00 00 C6 2E
E272  20 43 F8  JSR $F843                       A:6A X:78 Y:5A P:24 SP:FB STACK: 00 00 C6 2E
F843  30 09     BMI $F84E                       A:6A X:78 Y:5A P:24 SP:F9 STACK: 00 00 C6 2E E2 74
F845  B0 07     BCS $F84E                       A:6A X:78 Y:5A P:24 SP:F9 STACK: 00 00 C6 2E E2 74
F847  C9 6A     CMP #$6A                        A:6A X:78 Y:5A P:24 SP:F9 STACK: 00 00 C6 2E E2 74
F849  D0 03     BNE $F84E                       A:6A X:78 Y:5A P:27 SP:F9 STACK: 00 00 C6 2E E2 74
F84B  70 01     BVS $F84E                       A:6A X:78 Y:5A P:27 SP:F9 STACK: 00 00 C6 2E E2 74
F84D  60        RTS                             A:6A X:78 Y:5A P:27 SP:F9 STACK: 00 00 C6 2E E2 74
E275  C8        INY                             A:6A X:78 Y:5A P:27 SP:FB STACK: 00 00 C6 2E
E276  A9 7F     LDA #$7F                        A:6A X:78 Y:5B P:25 SP:FB STACK: 00 00 C6 2E
E278  8D 78 06  STA $0678 = 69                  A:7F X:78 Y:5B P:25 SP:FB STACK: 00 00 C6 2E
E27B  20 51 F8  JSR $F851                       A:7F X:78 Y:5B P:25 SP:FB STACK: 00 00 C6 2E
F851  38        SEC                             A:7F X:78 Y:5B P:25 SP:F9 STACK: 00 00 C6 2E E2 7D
F852  B8        CLV                             A:7F X:78 Y:5B P:25 SP:F9 STACK: 00 00 C6 2E E2 7D
F853  A9 7F     LDA #$7F                        A:7F X:78 Y:5B P:25 SP:F9 STACK: 00 00 C6 2E E2 7D
F855  60        RTS                             A:7F X:78 Y:5B P:25 SP:F9 STACK: 00 00 C6 2E E2 7D
E27E  7D 00 06  ADC $0678,X @ 06F0 = 7F         A:7F X:78 Y:5B P:25 SP:FB STACK: 00 00 C6 2E
E281  20 56 F8  JSR $F856                       A:FF X:78 Y:5B P:E4 SP:FB STACK: 00 00 C6 2E
F856  10 09     BPL $F861                       A:FF X:78 Y:5B P:E4 SP:F9 STACK: 00 00 C6 2E E2 83
F858  B0 07     BCS $F861                       A:FF X:78 Y:5B P:E4 SP:F9 STACK: 00 00 C6 2E E2 83
F85A  C9 FF     CMP #$FF                        A:FF X:78 Y:5B P:E4 SP:F9 STACK: 00 00 C6 2E E2 83
F85C  D0 03     BNE $F861                       A:FF X:78 Y:5B P:67 SP:F9 STACK: 00 00 C6 2E E2 83
F85E  50 01     BVC $F861                       A:FF X:78 Y:5B P:67 SP:F9 STACK: 00 00 C6 2E E2 83
F860  60        RTS                             A:FF X:78 Y:5B P:67 SP:F9 STACK: 00 00 C6 2E E2 83
E284  C8        INY                             A:FF X:78 Y:5B P:67 SP:FB STACK: 00 00 C6 2E
E285  A9 80     LDA #$80                        A:FF X:78 Y:5C P:65 SP:FB STACK: 00 00 C6 2E
E287  8D 78 06  STA $0678 = 7F                  A:80 X:78 Y:5C P:E5 SP:FB STACK: 00 00 C6 2E
E28A  20 64 F8  JSR $F864                       A:80 X:78 Y:5C P:E5 SP:FB STACK: 00 00 C6 2E
F864  18        CLC                             A:80 X:78 Y:5C P:E5 SP:F9 STACK: 00 00 C6 2E E2 8C
F865  24 01     BIT $01 = FF                    A:80 X:78 Y:5C P:E4 SP:F9 STACK: 00 00 C6 2E E2 8C
F867  A9 7F     LDA #$7F                        A:80 X:78 Y:5C P:E4 SP:F9 STACK: 00 00 C6 2E E2 8C
F869  60        RTS                             A:7F X:78 Y:5C P:64 SP:F9 STACK: 00 00 C6 2E E2 8C
E28D  7D 00 06  ADC $0678,X @ 06F0 = 80         A:7F X:78 Y:5C P:64 SP:FB STACK: 00 00 C6 2E
E290  20 6A F8  JSR $F86A                       A:FF X:78 Y:5C P:A4 SP:FB STACK: 00 00 C6 2E
F86A  10 09     BPL $F875                       A:FF X:78 Y:5C P:A4 SP:F9 STACK: 00 00 C6 2E E2 92
F86C  B0 07     BCS $F875                       A:FF X:78 Y:5C P:A4 SP:F9 STACK: 00 00 C6 2E E2 92
F86E  C9 FF     CMP #$FF                        A:FF X:78 Y:5C P:A4 SP:F9 STACK: 00 00 C6 2E E2 92
F870  D0 03     BNE $F875                       A:FF X:78 Y:5C P:27 SP:F9 STACK: 00 00 C6 2E E2 92
F872  70 01     BVS $F875                       A:FF X:78 Y:5C P:27 SP:F9 STACK: 00 00 C6 2E E2 92
F874  60        RTS                             A:FF X:78 Y:5C P:27 SP:F9 STACK: 00 00 C6 2E E2 92
E293  C8        INY                             A:FF X:78 Y:5C P:27 SP:FB STACK: 00 00 C6 2E
E294  20 78 F8  JSR $F878                       A:FF X:78 Y:5D P:25 SP:FB STACK: 00 00 C6 2E
F878  38        SEC                             A:FF X:78 Y:5D P:25 SP:F9 STACK: 00 00 C6 2E E2 96
F879  B8        CLV                             A:FF X:78 Y:5D P:25 SP:F9 STACK: 00 00 C6 2E E2 96
F87A  A9 7F     LDA #$7F                        A:FF X:78 Y:5D P:25 SP:F9 STACK: 00 00 C6 2E E2 96
F87C  60        RTS                             A:7F X:78 Y:5D P:25 SP:F9 STACK: 00 00 C6 2E E2 96
E297  7D 00 06  ADC $0678,X @ 06F0 = 80         A:7F X:78 Y:5D P:25 SP:FB STACK: 00 00 C6 2E
E29A  20 7D F8  JSR $F87D                       A:00 X:78 Y:5D P:27 SP:FB STACK: 00 00 C6 2E
F87D  D0 07     BNE $F886                       A:00 X:78 Y:5D P:27 SP:F9 STACK: 00 00 C6 2E E2 9C
F87F  30 05     BMI $F886                       A:00 X:78 Y:5D P:27 SP:F9 STACK: 00 00 C6 2E E2 9C
F881  70 03     BVS $F886                       A:00 X:78 Y:5D P:27 SP:F9 STACK: 00 00 C6 2E E2 9C
F883  90 01     BCC $F886                       A:00 X:78 Y:5D P:27 SP:F9 STACK: 00 00 C6 2E E2 9C
F885  60        RTS                             A:00 X:78 Y:5D P:27 SP:F9 STACK: 00 00 C6 2E E2 9C
E29D  C8        INY                             A:00 X:78 Y:5D P:27 SP:FB STACK: 00 00 C6 2E
E29E  A9 40     LDA #$40                        A:00 X:78 Y:5E P:25 SP:FB STACK: 00 00 C6 2E
E2A0  8D 78 06  STA $0678 = 80                  A:40 X:78 Y:5E P:25 SP:FB STACK: 00 00 C6 2E
E2A3  20 89 F8  JSR $F889                       A:40 X:78 Y:5E P:25 SP:FB STACK: 00 00 C6 2E
F889  24 01     BIT $01 = FF                    A:40 X:78 Y:5E P:25 SP:F9 STACK: 00 00 C6 2E E2 A5
F88B  A9 40     LDA #$40                        A:40 X:78 Y:5E P:E5 SP:F9 STACK: 00 00 C6 2E E2 A5
F88D  60        RTS                             A:40 X:78 Y:5E P:65 SP:F9 STACK: 00 00 C6 2E E2 A5
E2A6  DD 00 06  CMP $0678,X @ 06F0 = 40         A:40 X:78 Y:5E P:65 SP:FB STACK: 00 00 C6 2E
E2A9  20 8E F8  JSR $F88E                       A:40 X:78 Y:5E P:67 SP:FB STACK: 00 00 C6 2E
F88E  30 07     BMI $F897                       A:40 X:78 Y:5E P:67 SP:F9 STACK: 00 00 C6 2E E2 AB
F890  90 05     BCC $F897                       A:40 X:78 Y:5E P:67 SP:F9 STACK: 00 00 C6 2E E2 AB
F892  D0 03     BNE $F897                       A:40 X:78 Y:5E P:67 SP:F9 STACK: 00 00 C6 2E E2 AB
F894  50 01     BVC $F897                       A:40 X:78 Y:5E P:67 SP:F9 STACK: 00 00 C6 2E E2 AB
F896  60        RTS                             A:40 X:78 Y:5E P:67 SP:F9 STACK: 00 00 C6 2E E2 AB
E2AC  C8        INY                             A:40 X:78 Y:5E P:67 SP:FB STACK: 00 00 C6 2E
E2AD  48        PHA                             A:40 X:78 Y:5F P:65 SP:FB STACK: 00 00 C6 2E
E2AE  A9 3F     LDA #$3F                        A:40 X:78 Y:5F P:65 SP:FA STACK: 00 00 C6 2E 40
E2B0  8D 78 06  STA $0678 = 40                  A:3F X:78 Y:5F P:65 SP:FA STACK: 00 00 C6 2E 40
E2B3  68        PLA                             A:3F X:78 Y:5F P:65 SP:FA STACK: 00 00 C6 2E 40
E2B4  20 9A F8  JSR $F89A                       A:40 X:78 Y:5F P:65 SP:FB STACK: 00 00 C6 2E
F89A  B8        CLV                             A:40 X:78 Y:5F P:65 SP:F9 STACK: 00 00 C6 2E E2 B6
F89B  60        RTS                             A:40 X:78 Y:5F P:25 SP:F9 STACK: 00 00 C6 2E E2 B6
E2B7  DD 00 06  CMP $0678,X @ 06F0 = 3F         A:40 X:78 Y:5F P:25 SP:FB STACK: 00 00 C6 2E
E2BA  20 9C F8  JSR $F89C                       A:40 X:78 Y:5F P:25 SP:FB STACK: 00 00 C6 2E
F89C  F0 07     BEQ $F8A5                       A:40 X:78 Y:5F P:25 SP:F9 STACK: 00 00 C6 2E E2 BC
F89E  30 05     BMI $F8A5                       A:40 X:78 Y:5F P:25 SP:F9 STACK: 00 00 C6 2E E2 BC
F8A0  90 03     BCC $F8A5                       A:40 X:78 Y:5F P:25 SP:F9 STACK: 00 00 C6 2E E2 BC
F8A2  70 01     BVS $F8A5                       A:40 X:78 Y:5F P:25 SP:F9 STACK: 00 00 C6 2E E2 BC
F8A4  60        RTS                             A:40 X:78 Y:5F P:25 SP:F9 STACK: 00 00 C6 2E E2 BC
E2BD  C8        INY                             A:40 X:78 Y:5F P:25 SP:FB STACK: 00 00 C6 2E
E2BE  48        PHA                             A:40 X:78 Y:60 P:25 SP:FB STACK: 00 00 C6 2E
E2BF  A9 41     LDA #$41                        A:40 X:78 Y:60 P:25 SP:FA STACK: 00 00 C6 2E 40
E2C1  8D 78 06  STA $0678 = 3F                  A:41 X:78 Y:60 P:25 SP:FA STACK: 00 00 C6 2E 40
E2C4  68        PLA                             A:41 X:78 Y:60 P:25 SP:FA STACK: 00 00 C6 2E 40
E2C5  DD 00 06  CMP $0678,X @ 06F0 = 41         A:40 X:78 Y:60 P:25 SP:FB STACK: 00 00 C6 2E
E2C8  20 A8 F8  JSR $F8A8                       A:40 X:78 Y:60 P:A4 SP:FB STACK: 00 00 C6 2E
F8A8  F0 05     BEQ $F8AF                       A:40 X:78 Y:60 P:A4 SP:F9 STACK: 00 00 C6 2E E2 CA
F8AA  10 03     BPL $F8AF                       A:40 X:78 Y:60 P:A4 SP:F9 STACK: 00 00 C6 2E E2 CA
F8AC  10 01     BPL $F8AF                       A:40 X:78 Y:60 P:A4 SP:F9 STACK: 00 00 C6 2E E2 CA
F8AE  60        RTS                             A:40 X:78 Y:60 P:A4 SP:F9 STACK: 00 00 C6 2E E2 CA
E2CB  C8        INY                             A:40 X:78 Y:60 P:A4 SP:FB STACK: 00 00 C6 2E
E2CC  48        PHA                             A:40 X:78 Y:61 P:24 SP:FB STACK: 00 00 C6 2E
E2CD  A9 00     LDA #$00                        A:40 X:78 Y:61 P:24 SP:FA STACK: 00 00 C6 2E 40
E2CF  8D 78 06  STA $0678 = 41                  A:00 X:78 Y:61 P:26 SP:FA STACK: 00 00 C6 2E 40
E2D2  68        PLA                             A:00 X:78 Y:61 P:26 SP:FA STACK: 00 00 C6 2E 40
E2D3  20 B2 F8  JSR $F8B2                       A:40 X:78 Y:61 P:24 SP:FB STACK: 00 00 C6 2E
F8B2  A9 80     LDA #$80                        A:40 X:78 Y:61 P:24 SP:F9 STACK: 00 00 C6 2E E2 D5
F8B4  60        RTS                             A:80 X:78 Y:61 P:A4 SP:F9 STACK: 00 00 C6 2E E2 D5
E2D6  DD 00 06  CMP $0678,X @ 06F0 = 00         A:80 X:78 Y:61 P:A4 SP:FB STACK: 00 00 C6 2E
E2D9  20 B5 F8  JSR $F8B5                       A:80 X:78 Y:61 P:A5 SP:FB STACK: 00 00 C6 2E
F8B5  F0 05     BEQ $F8BC                       A:80 X:78 Y:61 P:A5 SP:F9 STACK: 00 00 C6 2E E2 DB
F8B7  10 03     BPL $F8BC                       A:80 X:78 Y:61 P:A5 SP:F9 STACK: 00 00 C6 2E E2 DB
F8B9  90 01     BCC $F8BC                       A:80 X:78 Y:61 P:A5 SP:F9 STACK: 00 00 C6 2E E2 DB
F8BB  60        RTS                             A:80 X:78 Y:61 P:A5 SP:F9 STACK: 00 00 C6 2E E2 DB
E2DC  C8        INY                             A:80 X:78 Y:61 P:A5 SP:FB STACK: 00 00 C6 2E
E2DD  48        PHA                             A:80 X:78 Y:62 P:25 SP:FB STACK: 00 00 C6 2E
E2DE  A9 80     LDA #$80                        A:80 X:78 Y:62 P:25 SP:FA STACK: 00 00 C6 2E 80
E2E0  8D 78 06  STA $0678 = 00                  A:80 X:78 Y:62 P:A5 SP:FA STACK: 00 00 C6 2E 80
E2E3  68        PLA                             A:80 X:78 Y:62 P:A5 SP:FA STACK: 00 00 C6 2E 80
E2E4  DD 00 06  CMP $0678,X @ 06F0 = 80         A:80 X:78 Y:62 P:A5 SP:FB STACK: 00 00 C6 2E
E2E7  20 BF F8  JSR $F8BF                       A:80 X:78 Y:62 P:27 SP:FB STACK: 00 00 C6 2E
F8BF  D0 05     BNE $F8C6                       A:80 X:78 Y:62 P:27 SP:F9 STACK: 00 00 C6 2E E2 E9
F8C1  30 03     BMI $F8C6                       A:80 X:78 Y:62 P:27 SP:F9 STACK: 00 00 C6 2E E2 E9
F8C3  90 01     BCC $F8C6                       A:80 X:78 Y:62 P:27 SP:F9 STACK: 00 00 C6 2E E2 E9
F8C5  60        RTS                             A:80 X:78 Y:62 P:27 SP:F9 STACK: 00 00 C6 2E E2 E9
E2EA  C8        INY                             A:80 X:78 Y:62 P:27 SP:FB STACK: 00 00 C6 2E
E2EB  48        PHA                             A:80 X:78 Y:63 P:25 SP:FB STACK: 00 00 C6 2E
E2EC  A9 81     LDA #$81                        A:80 X:78 Y:63 P:25 SP:FA STACK: 00 00 C6 2E 80
E2EE  8D 78 06  STA $0678 = 80                  A:81 X:78 Y:63 P:A5 SP:FA STACK: 00 00 C6 2E 80
E2F1  68        PLA                             A:81 X:78 Y:63 P:A5 SP:FA STACK: 00 00 C6 2E 80
E2F2  DD 00 06  CMP $0678,X @ 06F0 = 81         A:80 X:78 Y:63 P:A5 SP:FB STACK: 00 00 C6 2E
E2F5  20 C9 F8  JSR $F8C9                       A:80 X:78 Y:63 P:A4 SP:FB STACK: 00 00 C6 2E
F8C9  B0 05     BCS $F8D0                       A:80 X:78 Y:63 P:A4 SP:F9 STACK: 00 00 C6 2E E2 F7
F8CB  F0 03     BEQ $F8D0                       A:80 X:78 Y:63 P:A4 SP:F9 STACK: 00 00 C6 2E E2 F7
F8CD  10 01     BPL $F8D0                       A:80 X:78 Y:63 P:A4 SP:F9 STACK: 00 00 C6 2E E2 F7
F8CF  60        RTS                             A:80 X:78 Y:63 P:A4 SP:F9 STACK: 00 00 C6 2E E2 F7
E2F8  C8        INY                             A:80 X:78 Y:63 P:A4 SP:FB STACK: 00 00 C6 2E
E2F9  48        PHA                             A:80 X:78 Y:64 P:24 SP:FB STACK: 00 00 C6 2E
E2FA  A9 7F     LDA #$7F                        A:80 X:78 Y:64 P:24 SP:FA STACK: 00 00 C6 2E 80
E2FC  8D 78 06  STA $0678 = 81                  A:7F X:78 Y:64 P:24 SP:FA STACK: 00 00 C6 2E 80
E2FF  68        PLA                             A:7F X:78 Y:64 P:24 SP:FA STACK: 00 00 C6 2E 80
E300  DD 00 06  CMP $0678,X @ 06F0 = 7F         A:80 X:78 Y:64 P:A4 SP:FB STACK: 00 00 C6 2E
E303  20 D3 F8  JSR $F8D3                       A:80 X:78 Y:64 P:25 SP:FB STACK: 00 00 C6 2E
F8D3  90 05     BCC $F8DA                       A:80 X:78 Y:64 P:25 SP:F9 STACK: 00 00 C6 2E E3 05
F8D5  F0 03     BEQ $F8DA                       A:80 X:78 Y:64 P:25 SP:F9 STACK: 00 00 C6 2E E3 05
F8D7  30 01     BMI $F8DA                       A:80 X:78 Y:64 P:25 SP:F9 STACK: 00 00 C6 2E E3 05
F8D9  60        RTS                             A:80 X:78 Y:64 P:25 SP:F9 STACK: 00 00 C6 2E E3 05
E306  C8        INY                             A:80 X:78 Y:64 P:25 SP:FB STACK: 00 00 C6 2E
E307  A9 40     LDA #$40                        A:80 X:78 Y:65 P:25 SP:FB STACK: 00 00 C6 2E
E309  8D 78 06  STA $0678 = 7F                  A:40 X:78 Y:65 P:25 SP:FB STACK: 00 00 C6 2E
E30C  20 31 F9  JSR $F931                       A:40 X:78 Y:65 P:25 SP:FB STACK: 00 00 C6 2E
F931  24 01     BIT $01 = FF                    A:40 X:78 Y:65 P:25 SP:F9 STACK: 00 00 C6 2E E3 0E
F933  A9 40     LDA #$40                        A:40 X:78 Y:65 P:E5 SP:F9 STACK: 00 00 C6 2E E3 0E
F935  38        SEC                             A:40 X:78 Y:65 P:65 SP:F9 STACK: 00 00 C6 2E E3 0E
F936  60        RTS                             A:40 X:78 Y:65 P:65 SP:F9 STACK: 00 00 C6 2E E3 0E
E30F  FD 00 06  SBC $0678,X @ 06F0 = 40         A:40 X:78 Y:65 P:65 SP:FB STACK: 00 00 C6 2E
E312  20 37 F9  JSR $F937                       A:00 X:78 Y:65 P:27 SP:FB STACK: 00 00 C6 2E
F937  30 0B     BMI $F944                       A:00 X:78 Y:65 P:27 SP:F9 STACK: 00 00 C6 2E E3 14
F939  90 09     BCC $F944                       A:00 X:78 Y:65 P:27 SP:F9 STACK: 00 00 C6 2E E3 14
F93B  D0 07     BNE $F944                       A:00 X:78 Y:65 P:27 SP:F9 STACK: 00 00 C6 2E E3 14
F93D  70 05     BVS $F944                       A:00 X:78 Y:65 P:27 SP:F9 STACK: 00 00 C6 2E E3 14
F93F  C9 00     CMP #$00                        A:00 X:78 Y:65 P:27 SP:F9 STACK: 00 00 C6 2E E3 14
F941  D0 01     BNE $F944                       A:00 X:78 Y:65 P:27 SP:F9 STACK: 00 00 C6 2E E3 14
F943  60        RTS                             A:00 X:78 Y:65 P:27 SP:F9 STACK: 00 00 C6 2E E3 14
E315  C8        INY                             A:00 X:78 Y:65 P:27 SP:FB STACK: 00 00 C6 2E
E316  A9 3F     LDA #$3F                        A:00 X:78 Y:66 P:25 SP:FB STACK: 00 00 C6 2E
E318  8D 78 06  STA $0678 = 40                  A:3F X:78 Y:66 P:25 SP:FB STACK: 00 00 C6 2E
E31B  20 47 F9  JSR $F947                       A:3F X:78 Y:66 P:25 SP:FB STACK: 00 00 C6 2E
F947  B8        CLV                             A:3F X:78 Y:66 P:25 SP:F9 STACK: 00 00 C6 2E E3 1D
F948  38        SEC                             A:3F X:78 Y:66 P:25 SP:F9 STACK: 00 00 C6 2E E3 1D
F949  A9 40     LDA #$40                        A:3F X:78 Y:66 P:25 SP:F9 STACK: 00 00 C6 2E E3 1D
F94B  60        RTS                             A:40 X:78 Y:66 P:25 SP:F9 STACK: 00 00 C6 2E E3 1D
E31E  FD 00 06  SBC $0678,X @ 06F0 = 3F         A:40 X:78 Y:66 P:25 SP:FB STACK: 00 00 C6 2E
E321  20 4C F9  JSR $F94C                       A:01 X:78 Y:66 P:25 SP:FB STACK: 00 00 C6 2E
F94C  F0 0B     BEQ $F959                       A:01 X:78 Y:66 P:25 SP:F9 STACK: 00 00 C6 2E E3 23
F94E  30 09     BMI $F959                       A:01 X:78 Y:66 P:25 SP:F9 STACK: 00 00 C6 2E E3 23
F950  90 07     BCC $F959                       A:01 X:78 Y:66 P:25 SP:F9 STACK: 00 00 C6 2E E3 23
F952  70 05     BVS $F959                       A:01 X:78 Y:66 P:25 SP:F9 STACK: 00 00 C6 2E E3 23
F954  C9 01     CMP #$01                        A:01 X:78 Y:66 P:25 SP:F9 STACK: 00 00 C6 2E E3 23
F956  D0 01     BNE $F959                       A:01 X:78 Y:66 P:27 SP:F9 STACK: 00 00 C6 2E E3 23
F958  60        RTS                             A:01 X:78 Y:66 P:27 SP:F9 STACK: 00 00 C6 2E E3 23
E324  C8        INY                             A:01 X:78 Y:66 P:27 SP:FB STACK: 00 00 C6 2E
E325  A9 41     LDA #$41                        A:01 X:78 Y:67 P:25 SP:FB STACK: 00 00 C6 2E
E327  8D 78 06  STA $0678 = 3F                  A:41 X:78 Y:67 P:25 SP:FB STACK: 00 00 C6 2E
E32A  20 5C F9  JSR $F95C                       A:41 X:78 Y:67 P:25 SP:FB STACK: 00 00 C6 2E
F95C  A9 40     LDA #$40                        A:41 X:78 Y:67 P:25 SP:F9 STACK: 00 00 C6 2E E3 2C
F95E  38        SEC                             A:40 X:78 Y:67 P:25 SP:F9 STACK: 00 00 C6 2E E3 2C
F95F  24 01     BIT $01 = FF                    A:40 X:78 Y:67 P:25 SP:F9 STACK: 00 00 C6 2E E3 2C
F961  60        RTS                             A:40 X:78 Y:67 P:E5 SP:F9 STACK: 00 00 C6 2E E3 2C
E32D  FD 00 06  SBC $0678,X @ 06F0 = 41         A:40 X:78 Y:67 P:E5 SP:FB STACK: 00 00 C6 2E
E330  20 62 F9  JSR $F962                       A:FF X:78 Y:67 P:A4 SP:FB STACK: 00 00 C6 2E
F962  B0 0B     BCS $F96F                       A:FF X:78 Y:67 P:A4 SP:F9 STACK: 00 00 C6 2E E3 32
F964  F0 09     BEQ $F96F                       A:FF X:78 Y:67 P:A4 SP:F9 STACK: 00 00 C6 2E E3 32
F966  10 07     BPL $F96F                       A:FF X:78 Y:67 P:A4 SP:F9 STACK: 00 00 C6 2E E3 32
F968  70 05     BVS $F96F                       A:FF X:78 Y:67 P:A4 SP:F9 STACK: 00 00 C6 2E E3 32
F96A  C9 FF     CMP #$FF                        A:FF X:78 Y:67 P:A4 SP:F9 STACK: 00 00 C6 2E E3 32
F96C  D0 01     BNE $F96F                       A:FF X:78 Y:67 P:27 SP:F9 STACK: 00 00 C6 2E E3 32
F96E  60        RTS                             A:FF X:78 Y:67 P:27 SP:F9 STACK: 00 00 C6 2E E3 32
E333  C8        INY                             A:FF X:78 Y:67 P:27 SP:FB STACK: 00 00 C6 2E
E334  A9 00     LDA #$00                        A:FF X:78 Y:68 P:25 SP:FB STACK: 00 00 C6 2E
E336  8D 78 06  STA $0678 = 41                  A:00 X:78 Y:68 P:27 SP:FB STACK: 00 00 C6 2E
E339  20 72 F9  JSR $F972                       A:00 X:78 Y:68 P:27 SP:FB STACK: 00 00 C6 2E
F972  18        CLC                             A:00 X:78 Y:68 P:27 SP:F9 STACK: 00 00 C6 2E E3 3B
F973  A9 80     LDA #$80                        A:00 X:78 Y:68 P:26 SP:F9 STACK: 00 00 C6 2E E3 3B
F975  60        RTS                             A:80 X:78 Y:68 P:A4 SP:F9 STACK: 00 00 C6 2E E3 3B
E33C  FD 00 06  SBC $0678,X @ 06F0 = 00         A:80 X:78 Y:68 P:A4 SP:FB STACK: 00 00 C6 2E
E33F  20 76 F9  JSR $F976                       A:7F X:78 Y:68 P:65 SP:FB STACK: 00 00 C6 2E
F976  90 05     BCC $F97D                       A:7F X:78 Y:68 P:65 SP:F9 STACK: 00 00 C6 2E E3 41
F978  C9 7F     CMP #$7F                        A:7F X:78 Y:68 P:65 SP:F9 STACK: 00 00 C6 2E E3 41
F97A  D0 01     BNE $F97D                       A:7F X:78 Y:68 P:67 SP:F9 STACK: 00 00 C6 2E E3 41
F97C  60        RTS                             A:7F X:78 Y:68 P:67 SP:F9 STACK: 00 00 C6 2E E3 41
E342  C8        INY                             A:7F X:78 Y:68 P:67 SP:FB STACK: 00 00 C6 2E
E343  A9 7F     LDA #$7F                        A:7F X:78 Y:69 P:65 SP:FB STACK: 00 00 C6 2E
E345  8D 78 06  STA $0678 = 00                  A:7F X:78 Y:69 P:65 SP:FB STACK: 00 00 C6 2E
E348  20 80 F9  JSR $F980                       A:7F X:78 Y:69 P:65 SP:FB STACK: 00 00 C6 2E
F980  38        SEC                             A:7F X:78 Y:69 P:65 SP:F9 STACK: 00 00 C6 2E E3 4A
F981  A9 81     LDA #$81                        A:7F X:78 Y:69 P:65 SP:F9 STACK: 00 00 C6 2E E3 4A
F983  60        RTS                             A:81 X:78 Y:69 P:E5 SP:F9 STACK: 00 00 C6 2E E3 4A
E34B  FD 00 06  SBC $0678,X @ 06F0 = 7F         A:81 X:78 Y:69 P:E5 SP:FB STACK: 00 00 C6 2E
E34E  20 84 F9  JSR $F984                       A:02 X:78 Y:69 P:65 SP:FB STACK: 00 00 C6 2E
F984  50 07     BVC $F98D                       A:02 X:78 Y:69 P:65 SP:F9 STACK: 00 00 C6 2E E3 50
F986  90 05     BCC $F98D                       A:02 X:78 Y:69 P:65 SP:F9 STACK: 00 00 C6 2E E3 50
F988  C9 02     CMP #$02                        A:02 X:78 Y:69 P:65 SP:F9 STACK: 00 00 C6 2E E3 50
F98A  D0 01     BNE $F98D                       A:02 X:78 Y:69 P:67 SP:F9 STACK: 00 00 C6 2E E3 50
F98C  60        RTS                             A:02 X:78 Y:69 P:67 SP:F9 STACK: 00 00 C6 2E E3 50
E351  A9 AA     LDA #$AA                        A:02 X:78 Y:69 P:67 SP:FB STACK: 00 00 C6 2E
E353  8D 33 06  STA $0633 = AA                  A:AA X:78 Y:69 P:E5 SP:FB STACK: 00 00 C6 2E
E356  A9 BB     LDA #$BB                        A:AA X:78 Y:69 P:E5 SP:FB STACK: 00 00 C6 2E
E358  8D 89 06  STA $0689 = BB                  A:BB X:78 Y:69 P:E5 SP:FB STACK: 00 00 C6 2E
E35B  A2 00     LDX #$00                        A:BB X:78 Y:69 P:E5 SP:FB STACK: 00 00 C6 2E
E35D  A0 66     LDY #$66                        A:BB X:00 Y:69 P:67 SP:FB STACK: 00 00 C6 2E
E35F  24 01     BIT $01 = FF                    A:BB X:00 Y:66 P:65 SP:FB STACK: 00 00 C6 2E
E361  38        SEC                             A:BB X:00 Y:66 P:E5 SP:FB STACK: 00 00 C6 2E
E362  A9 00     LDA #$00                        A:BB X:00 Y:66 P:E5 SP:FB STACK: 00 00 C6 2E
E364  BD 33 06  LDA $0633,X @ 0633 = AA         A:00 X:00 Y:66 P:67 SP:FB STACK: 00 00 C6 2E
E367  10 12     BPL $E37B                       A:AA X:00 Y:66 P:E5 SP:FB STACK: 00 00 C6 2E
E369  F0 10     BEQ $E37B                       A:AA X:00 Y:66 P:E5 SP:FB STACK: 00 00 C6 2E
E36B  50 0E     BVC $E37B                       A:AA X:00 Y:66 P:E5 SP:FB STACK: 00 00 C6 2E
E36D  90 0C     BCC $E37B                       A:AA X:00 Y:66 P:E5 SP:FB STACK: 00 00 C6 2E
E36F  C0 66     CPY #$66                        A:AA X:00 Y:66 P:E5 SP:FB STACK: 00 00 C6 2E
E371  D0 08     BNE $E37B                       A:AA X:00 Y:66 P:67 SP:FB STACK: 00 00 C6 2E
E373  E0 00     CPX #$00                        A:AA X:00 Y:66 P:67 SP:FB STACK: 00 00 C6 2E
E375  D0 04     BNE $E37B                       A:AA X:00 Y:66 P:67 SP:FB STACK: 00 00 C6 2E
E377  C9 AA     CMP #$AA                        A:AA X:00 Y:66 P:67 SP:FB STACK: 00 00 C6 2E
E379  F0 04     BEQ $E37F                       A:AA X:00 Y:66 P:67 SP:FB STACK: 00 00 C6 2E
E37F  A2 8A     LDX #$8A                        A:AA X:00 Y:66 P:67 SP:FB STACK: 00 00 C6 2E
E381  A0 66     LDY #$66                        A:AA X:8A Y:66 P:E5 SP:FB STACK: 00 00 C6 2E
E383  B8        CLV                             A:AA X:8A Y:66 P:65 SP:FB STACK: 00 00 C6 2E
E384  18        CLC                             A:AA X:8A Y:66 P:25 SP:FB STACK: 00 00 C6 2E
E385  A9 00     LDA #$00                        A:AA X:8A Y:66 P:24 SP:FB STACK: 00 00 C6 2E
E387  BD FF 05  LDA $0689,X @ 0713 = BB         A:00 X:8A Y:66 P:26 SP:FB STACK: 00 00 C6 2E
E38A  10 12     BPL $E39E                       A:BB X:8A Y:66 P:A4 SP:FB STACK: 00 00 C6 2E
E38C  F0 10     BEQ $E39E                       A:BB X:8A Y:66 P:A4 SP:FB STACK: 00 00 C6 2E
E38E  70 0E     BVS $E39E                       A:BB X:8A Y:66 P:A4 SP:FB STACK: 00 00 C6 2E
E390  B0 0C     BCS $E39E                       A:BB X:8A Y:66 P:A4 SP:FB STACK: 00 00 C6 2E
E392  C9 BB     CMP #$BB                        A:BB X:8A Y:66 P:A4 SP:FB STACK: 00 00 C6 2E
E394  D0 08     BNE $E39E                       A:BB X:8A Y:66 P:27 SP:FB STACK: 00 00 C6 2E
E396  C0 66     CPY #$66                        A:BB X:8A Y:66 P:27 SP:FB STACK: 00 00 C6 2E
E398  D0 04     BNE $E39E                       A:BB X:8A Y:66 P:27 SP:FB STACK: 00 00 C6 2E
E39A  E0 8A     CPX #$8A                        A:BB X:8A Y:66 P:27 SP:FB STACK: 00 00 C6 2E
E39C  F0 04     BEQ $E3A2                       A:BB X:8A Y:66 P:27 SP:FB STACK: 00 00 C6 2E
E3A2  24 01     BIT $01 = FF                    A:BB X:8A Y:66 P:27 SP:FB STACK: 00 00 C6 2E
E3A4  38        SEC                             A:BB X:8A Y:66 P:E5 SP:FB STACK: 00 00 C6 2E
E3A5  A9 44     LDA #$44                        A:BB X:8A Y:66 P:E5 SP:FB STACK: 00 00 C6 2E
E3A7  A2 00     LDX #$00                        A:44 X:8A Y:66 P:65 SP:FB STACK: 00 00 C6 2E
E3A9  9D 33 06  STA $0633,X @ 0633 = AA         A:44 X:00 Y:66 P:67 SP:FB STACK: 00 00 C6 2E
E3AC  AD 33 06  LDA $0633 = 44                  A:44 X:00 Y:66 P:67 SP:FB STACK: 00 00 C6 2E
E3AF  90 1A     BCC $E3CB                       A:44 X:00 Y:66 P:65 SP:FB STACK: 00 00 C6 2E
E3B1  C9 44     CMP #$44                        A:44 X:00 Y:66 P:65 SP:FB STACK: 00 00 C6 2E
E3B3  D0 16     BNE $E3CB                       A:44 X:00 Y:66 P:67 SP:FB STACK: 00 00 C6 2E
E3B5  50 14     BVC $E3CB                       A:44 X:00 Y:66 P:67 SP:FB STACK: 00 00 C6 2E
E3B7  18        CLC                             A:44 X:00 Y:66 P:67 SP:FB STACK: 00 00 C6 2E
E3B8  B8        CLV                             A:44 X:00 Y:66 P:66 SP:FB STACK: 00 00 C6 2E
E3B9  A9 99     LDA #$99                        A:44 X:00 Y:66 P:26 SP:FB STACK: 00 00 C6 2E
E3BB  A2 80     LDX #$80                        A:99 X:00 Y:66 P:A4 SP:FB STACK: 00 00 C6 2E
E3BD  9D 85 05  STA $0605,X @ 0685 = 00         A:99 X:80 Y:66 P:A4 SP:FB STACK: 00 00 C6 2E
E3C0  AD 05 06  LDA $0605 = 99                  A:99 X:80 Y:66 P:A4 SP:FB STACK: 00 00 C6 2E
E3C3  B0 06     BCS $E3CB                       A:99 X:80 Y:66 P:A4 SP:FB STACK: 00 00 C6 2E
E3C5  C9 99     CMP #$99                        A:99 X:80 Y:66 P:A4 SP:FB STACK: 00 00 C6 2E
E3C7  D0 02     BNE $E3CB                       A:99 X:80 Y:66 P:27 SP:FB STACK: 00 00 C6 2E
E3C9  50 04     BVC $E3CF                       A:99 X:80 Y:66 P:27 SP:FB STACK: 00 00 C6 2E
E3CF  A0 6D     LDY #$6D                        A:99 X:80 Y:66 P:27 SP:FB STACK: 00 00 C6 2E
E3D1  A2 6D     LDX #$6D                        A:99 X:80 Y:6D P:25 SP:FB STACK: 00 00 C6 2E
E3D3  20 90 F9  JSR $F990                       A:99 X:6D Y:6D P:25 SP:FB STACK: 00 00 C6 2E
F990  A2 55     LDX #$55                        A:99 X:6D Y:6D P:25 SP:F9 STACK: 00 00 C6 2E E3 D5
F992  A9 FF     LDA #$FF                        A:99 X:55 Y:6D P:25 SP:F9 STACK: 00 00 C6 2E E3 D5
F994  85 01     STA $01 = FF                    A:FF X:55 Y:6D P:A5 SP:F9 STACK: 00 00 C6 2E E3 D5
F996  EA        NOP                             A:FF X:55 Y:6D P:A5 SP:F9 STACK: 00 00 C6 2E E3 D5
F997  24 01     BIT $01 = FF                    A:FF X:55 Y:6D P:A5 SP:F9 STACK: 00 00 C6 2E E3 D5
F999  38        SEC                             A:FF X:55 Y:6D P:E5 SP:F9 STACK: 00 00 C6 2E E3 D5
F99A  A9 01     LDA #$01                        A:FF X:55 Y:6D P:E5 SP:F9 STACK: 00 00 C6 2E E3 D5
F99C  60        RTS                             A:01 X:55 Y:6D P:65 SP:F9 STACK: 00 00 C6 2E E3 D5
E3D6  9D 00 06  STA $0655,X @ 06AA = 00         A:01 X:55 Y:6D P:65 SP:FB STACK: 00 00 C6 2E
E3D9  5E 00 06  LSR $0655,X @ 06AA = 01         A:01 X:55 Y:6D P:65 SP:FB STACK: 00 00 C6 2E
E3DC  BD 00 06  LDA $0655,X @ 06AA = 00         A:01 X:55 Y:6D P:65 SP:FB STACK: 00 00 C6 2E
E3DF  20 9D F9  JSR $F99D                       A:00 X:55 Y:6D P:67 SP:FB STACK: 00 00 C6 2E
F99D  90 1B     BCC $F9BA                       A:00 X:55 Y:6D P:67 SP:F9 STACK: 00 00 C6 2E E3 E1
F99F  D0 19     BNE $F9BA                       A:00 X:55 Y:6D P:67 SP:F9 STACK: 00 00 C6 2E E3 E1
F9A1  30 17     BMI $F9BA                       A:00 X:55 Y:6D P:67 SP:F9 STACK: 00 00 C6 2E E3 E1
F9A3  50 15     BVC $F9BA                       A:00 X:55 Y:6D P:67 SP:F9 STACK: 00 00 C6 2E E3 E1
F9A5  C9 00     CMP #$00                        A:00 X:55 Y:6D P:67 SP:F9 STACK: 00 00 C6 2E E3 E1
F9A7  D0 11     BNE $F9BA                       A:00 X:55 Y:6D P:67 SP:F9 STACK: 00 00 C6 2E E3 E1
F9A9  B8        CLV                             A:00 X:55 Y:6D P:67 SP:F9 STACK: 00 00 C6 2E E3 E1
F9AA  A9 AA     LDA #$AA                        A:00 X:55 Y:6D P:27 SP:F9 STACK: 00 00 C6 2E E3 E1
F9AC  60        RTS                             A:AA X:55 Y:6D P:A5 SP:F9 STACK: 00 00 C6 2E E3 E1
E3E2  C8        INY                             A:AA X:55 Y:6D P:A5 SP:FB STACK: 00 00 C6 2E
E3E3  9D 00 06  STA $0655,X @ 06AA = 00         A:AA X:55 Y:6E P:25 SP:FB STACK: 00 00 C6 2E
E3E6  5E 00 06  LSR $0655,X @ 06AA = AA         A:AA X:55 Y:6E P:25 SP:FB STACK: 00 00 C6 2E
E3E9  BD 00 06  LDA $0655,X @ 06AA = 55         A:AA X:55 Y:6E P:24 SP:FB STACK: 00 00 C6 2E
E3EC  20 AD F9  JSR $F9AD                       A:55 X:55 Y:6E P:24 SP:FB STACK: 00 00 C6 2E
F9AD  B0 0B     BCS $F9BA                       A:55 X:55 Y:6E P:24 SP:F9 STACK: 00 00 C6 2E E3 EE
F9AF  F0 09     BEQ $F9BA                       A:55 X:55 Y:6E P:24 SP:F9 STACK: 00 00 C6 2E E3 EE
F9B1  30 07     BMI $F9BA                       A:55 X:55 Y:6E P:24 SP:F9 STACK: 00 00 C6 2E E3 EE
F9B3  70 05     BVS $F9BA                       A:55 X:55 Y:6E P:24 SP:F9 STACK: 00 00 C6 2E E3 EE
F9B5  C9 55     CMP #$55                        A:55 X:55 Y:6E P:24 SP:F9 STACK: 00 00 C6 2E E3 EE
F9B7  D0 01     BNE $F9BA                       A:55 X:55 Y:6E P:27 SP:F9 STACK: 00 00 C6 2E E3 EE
F9B9  60        RTS                             A:55 X:55 Y:6E P:27 SP:F9 STACK: 00 00 C6 2E E3 EE
E3EF  C8        INY                             A:55 X:55 Y:6E P:27 SP:FB STACK: 00 00 C6 2E
E3F0  20 BD F9  JSR $F9BD                       A:55 X:55 Y:6F P:25 SP:FB STACK: 00 00 C6 2E
F9BD  24 01     BIT $01 = FF                    A:55 X:55 Y:6F P:25 SP:F9 STACK: 00 00 C6 2E E3 F2
F9BF  38        SEC                             A:55 X:55 Y:6F P:E5 SP:F9 STACK: 00 00 C6 2E E3 F2
F9C0  A9 80     LDA #$80                        A:55 X:55 Y:6F P:E5 SP:F9 STACK: 00 00 C6 2E E3 F2
F9C2  60        RTS                             A:80 X:55 Y:6F P:E5 SP:F9 STACK: 00 00 C6 2E E3 F2
E3F3  9D 00 06  STA $0655,X @ 06AA = 55         A:80 X:55 Y:6F P:E5 SP:FB STACK: 00 00 C6 2E
E3F6  1E 00 06  ASL $0655,X @ 06AA = 80         A:80 X:55 Y:6F P:E5 SP:FB STACK: 00 00 C6 2E
E3F9  BD 00 06  LDA $0655,X @ 06AA = 00         A:80 X:55 Y:6F P:65 SP:FB STACK: 00 00 C6 2E
E3FC  20 C3 F9  JSR $F9C3                       A:00 X:55 Y:6F P:67 SP:FB STACK: 00 00 C6 2E
F9C3  90 1C     BCC $F9E1                       A:00 X:55 Y:6F P:67 SP:F9 STACK: 00 00 C6 2E E3 FE
F9C5  D0 1A     BNE $F9E1                       A:00 X:55 Y:6F P:67 SP:F9 STACK: 00 00 C6 2E E3 FE
F9C7  30 18     BMI $F9E1                       A:00 X:55 Y:6F P:67 SP:F9 STACK: 00 00 C6 2E E3 FE
F9C9  50 16     BVC $F9E1                       A:00 X:55 Y:6F P:67 SP:F9 STACK: 00 00 C6 2E E3 FE
F9CB  C9 00     CMP #$00                        A:00 X:55 Y:6F P:67 SP:F9 STACK: 00 00 C6 2E E3 FE
F9CD  D0 12     BNE $F9E1                       A:00 X:55 Y:6F P:67 SP:F9 STACK: 00 00 C6 2E E3 FE
F9CF  B8        CLV                             A:00 X:55 Y:6F P:67 SP:F9 STACK: 00 00 C6 2E E3 FE
F9D0  A9 55     LDA #$55                        A:00 X:55 Y:6F P:27 SP:F9 STACK: 00 00 C6 2E E3 FE
F9D2  38        SEC                             A:55 X:55 Y:6F P:25 SP:F9 STACK: 00 00 C6 2E E3 FE
F9D3  60        RTS                             A:55 X:55 Y:6F P:25 SP:F9 STACK: 00 00 C6 2E E3 FE
E3FF  C8        INY                             A:55 X:55 Y:6F P:25 SP:FB STACK: 00 00 C6 2E
E400  9D 00 06  STA $0655,X @ 06AA = 00         A:55 X:55 Y:70 P:25 SP:FB STACK: 00 00 C6 2E
E403  1E 00 06  ASL $0655,X @ 06AA = 55         A:55 X:55 Y:70 P:25 SP:FB STACK: 00 00 C6 2E
E406  BD 00 06  LDA $0655,X @ 06AA = AA         A:55 X:55 Y:70 P:A4 SP:FB STACK: 00 00 C6 2E
E409  20 D4 F9  JSR $F9D4                       A:AA X:55 Y:70 P:A4 SP:FB STACK: 00 00 C6 2E
F9D4  B0 0B     BCS $F9E1                       A:AA X:55 Y:70 P:A4 SP:F9 STACK: 00 00 C6 2E E4 0B
F9D6  F0 09     BEQ $F9E1                       A:AA X:55 Y:70 P:A4 SP:F9 STACK: 00 00 C6 2E E4 0B
F9D8  10 07     BPL $F9E1                       A:AA X:55 Y:70 P:A4 SP:F9 STACK: 00 00 C6 2E E4 0B
F9DA  70 05     BVS $F9E1                       A:AA X:55 Y:70 P:A4 SP:F9 STACK: 00 00 C6 2E E4 0B
F9DC  C9 AA     CMP #$AA                        A:AA X:55 Y:70 P:A4 SP:F9 STACK: 00 00 C6 2E E4 0B
F9DE  D0 01     BNE $F9E1                       A:AA X:55 Y:70 P:27 SP:F9 STACK: 00 00 C6 2E E4 0B
F9E0  60        RTS                             A:AA X:55 Y:70 P:27 SP:F9 STACK: 00 00 C6 2E E4 0B
E40C  C8        INY                             A:AA X:55 Y:70 P:27 SP:FB STACK: 00 00 C6 2E
E40D  20 E4 F9  JSR $F9E4                       A:AA X:55 Y:71 P:25 SP:FB STACK: 00 00 C6 2E
F9E4  24 01     BIT $01 = FF                    A:AA X:55 Y:71 P:25 SP:F9 STACK: 00 00 C6 2E E4 0F
F9E6  38        SEC                             A:AA X:55 Y:71 P:E5 SP:F9 STACK: 00 00 C6 2E E4 0F
F9E7  A9 01     LDA #$01                        A:AA X:55 Y:71 P:E5 SP:F9 STACK: 00 00 C6 2E E4 0F
F9E9  60        RTS                             A:01 X:55 Y:71 P:65 SP:F9 STACK: 00 00 C6 2E E4 0F
E410  9D 00 06  STA $0655,X @ 06AA = AA         A:01 X:55 Y:71 P:65 SP:FB STACK: 00 00 C6 2E
E413  7E 00 06  ROR $0655,X @ 06AA = 01         A:01 X:55 Y:71 P:65 SP:FB STACK: 00 00 C6 2E
E416  BD 00 06  LDA $0655,X @ 06AA = 80         A:01 X:55 Y:71 P:E5 SP:FB STACK: 00 00 C6 2E
E419  20 EA F9  JSR $F9EA                       A:80 X:55 Y:71 P:E5 SP:FB STACK: 00 00 C6 2E
F9EA  90 1C     BCC $FA08                       A:80 X:55 Y:71 P:E5 SP:F9 STACK: 00 00 C6 2E E4 1B
F9EC  F0 1A     BEQ $FA08                       A:80 X:55 Y:71 P:E5 SP:F9 STACK: 00 00 C6 2E E4 1B
F9EE  10 18     BPL $FA08                       A:80 X:55 Y:71 P:E5 SP:F9 STACK: 00 00 C6 2E E4 1B
F9F0  50 16     BVC $FA08                       A:80 X:55 Y:71 P:E5 SP:F9 STACK: 00 00 C6 2E E4 1B
F9F2  C9 80     CMP #$80                        A:80 X:55 Y:71 P:E5 SP:F9 STACK: 00 00 C6 2E E4 1B
F9F4  D0 12     BNE $FA08                       A:80 X:55 Y:71 P:67 SP:F9 STACK: 00 00 C6 2E E4 1B
F9F6  B8        CLV                             A:80 X:55 Y:71 P:67 SP:F9 STACK: 00 00 C6 2E E4 1B
F9F7  18        CLC                             A:80 X:55 Y:71 P:27 SP:F9 STACK: 00 00 C6 2E E4 1B
F9F8  A9 55     LDA #$55                        A:80 X:55 Y:71 P:26 SP:F9 STACK: 00 00 C6 2E E4 1B
F9FA  60        RTS                             A:55 X:55 Y:71 P:24 SP:F9 STACK: 00 00 C6 2E E4 1B
E41C  C8        INY                             A:55 X:55 Y:71 P:24 SP:FB STACK: 00 00 C6 2E
E41D  9D 00 06  STA $0655,X @ 06AA = 80         A:55 X:55 Y:72 P:24 SP:FB STACK: 00 00 C6 2E
E420  7E 00 06  ROR $0655,X @ 06AA = 55         A:55 X:55 Y:72 P:24 SP:FB STACK: 00 00 C6 2E
E423  BD 00 06  LDA $0655,X @ 06AA = 2A         A:55 X:55 Y:72 P:25 SP:FB STACK: 00 00 C6 2E
E426  20 FB F9  JSR $F9FB                       A:2A X:55 Y:72 P:25 SP:FB STACK: 00 00 C6 2E
F9FB  90 0B     BCC $FA08                       A:2A X:55 Y:72 P:25 SP:F9 STACK: 00 00 C6 2E E4 28
F9FD  F0 09     BEQ $FA08                       A:2A X:55 Y:72 P:25 SP:F9 STACK: 00 00 C6 2E E4 28
F9FF  30 07     BMI $FA08                       A:2A X:55 Y:72 P:25 SP:F9 STACK: 00 00 C6 2E E4 28
FA01  70 05     BVS $FA08                       A:2A X:55 Y:72 P:25 SP:F9 STACK: 00 00 C6 2E E4 28
FA03  C9 2A     CMP #$2A                        A:2A X:55 Y:72 P:25 SP:F9 STACK: 00 00 C6 2E E4 28
FA05  D0 01     BNE $FA08                       A:2A X:55 Y:72 P:27 SP:F9 STACK: 00 00 C6 2E E4 28
FA07  60        RTS                             A:2A X:55 Y:72 P:27 SP:F9 STACK: 00 00 C6 2E E4 28
E429  C8        INY                             A:2A X:55 Y:72 P:27 SP:FB STACK: 00 00 C6 2E
E42A  20 0A FA  JSR $FA0A                       A:2A X:55 Y:73 P:25 SP:FB STACK: 00 00 C6 2E
FA0A  24 01     BIT $01 = FF                    A:2A X:55 Y:73 P:25 SP:F9 STACK: 00 00 C6 2E E4 2C
FA0C  38        SEC                             A:2A X:55 Y:73 P:E5 SP:F9 STACK: 00 00 C6 2E E4 2C
FA0D  A9 80     LDA #$80                        A:2A X:55 Y:73 P:E5 SP:F9 STACK: 00 00 C6 2E E4 2C
FA0F  60        RTS                             A:80 X:55 Y:73 P:E5 SP:F9 STACK: 00 00 C6 2E E4 2C
E42D  9D 00 06  STA $0655,X @ 06AA = 2A         A:80 X:55 Y:73 P:E5 SP:FB STACK: 00 00 C6 2E
E430  3E 00 06  ROL $0655,X @ 06AA = 80         A:80 X:55 Y:73 P:E5 SP:FB STACK: 00 00 C6 2E
E433  BD 00 06  LDA $0655,X @ 06AA = 01         A:80 X:55 Y:73 P:65 SP:FB STACK: 00 00 C6 2E
E436  20 10 FA  JSR $FA10                       A:01 X:55 Y:73 P:65 SP:FB STACK: 00 00 C6 2E
FA10  90 1C     BCC $FA2E                       A:01 X:55 Y:73 P:65 SP:F9 STACK: 00 00 C6 2E E4 38
FA12  F0 1A     BEQ $FA2E                       A:01 X:55 Y:73 P:65 SP:F9 STACK: 00 00 C6 2E E4 38
FA14  30 18     BMI $FA2E                       A:01 X:55 Y:73 P:65 SP:F9 STACK: 00 00 C6 2E E4 38
FA16  50 16     BVC $FA2E                       A:01 X:55 Y:73 P:65 SP:F9 STACK: 00 00 C6 2E E4 38
FA18  C9 01     CMP #$01                        A:01 X:55 Y:73 P:65 SP:F9 STACK: 00 00 C6 2E E4 38
FA1A  D0 12     BNE $FA2E                       A:01 X:55 Y:73 P:67 SP:F9 STACK: 00 00 C6 2E E4 38
FA1C  B8        CLV                             A:01 X:55 Y:73 P:67 SP:F9 STACK: 00 00 C6 2E E4 38
FA1D  18        CLC                             A:01 X:55 Y:73 P:27 SP:F9 STACK: 00 00 C6 2E E4 38
FA1E  A9 55     LDA #$55                        A:01 X:55 Y:73 P:26 SP:F9 STACK: 00 00 C6 2E E4 38
FA20  60        RTS                             A:55 X:55 Y:73 P:24 SP:F9 STACK: 00 00 C6 2E E4 38
E439  C8        INY                             A:55 X:55 Y:73 P:24 SP:FB STACK: 00 00 C6 2E
E43A  9D 00 06  STA $0655,X @ 06AA = 01         A:55 X:55 Y:74 P:24 SP:FB STACK: 00 00 C6 2E
E43D  3E 00 06  ROL $0655,X @ 06AA = 55         A:55 X:55 Y:74 P:24 SP:FB STACK: 00 00 C6 2E
E440  BD 00 06  LDA $0655,X @ 06AA = AA         A:55 X:55 Y:74 P:A4 SP:FB STACK: 00 00 C6 2E
E443  20 21 FA  JSR $FA21                       A:AA X:55 Y:74 P:A4 SP:FB STACK: 00 00 C6 2E
FA21  B0 0B     BCS $FA2E                       A:AA X:55 Y:74 P:A4 SP:F9 STACK: 00 00 C6 2E E4 45
FA23  F0 09     BEQ $FA2E                       A:AA X:55 Y:74 P:A4 SP:F9 STACK: 00 00 C6 2E E4 45
FA25  10 07     BPL $FA2E                       A:AA X:55 Y:74 P:A4 SP:F9 STACK: 00 00 C6 2E E4 45
FA27  70 05     BVS $FA2E                       A:AA X:55 Y:74 P:A4 SP:F9 STACK: 00 00 C6 2E E4 45
FA29  C9 AA     CMP #$AA                        A:AA X:55 Y:74 P:A4 SP:F9 STACK: 00 00 C6 2E E4 45
FA2B  D0 01     BNE $FA2E                       A:AA X:55 Y:74 P:27 SP:F9 STACK: 00 00 C6 2E E4 45
FA2D  60        RTS                             A:AA X:55 Y:74 P:27 SP:F9 STACK: 00 00 C6 2E E4 45
E446  A9 FF     LDA #$FF                        A:AA X:55 Y:74 P:27 SP:FB STACK: 00 00 C6 2E
E448  9D 00 06  STA $0655,X @ 06AA = AA         A:FF X:55 Y:74 P:A5 SP:FB STACK: 00 00 C6 2E
E44B  85 01     STA $01 = FF                    A:FF X:55 Y:74 P:A5 SP:FB STACK: 00 00 C6 2E
E44D  24 01     BIT $01 = FF                    A:FF X:55 Y:74 P:A5 SP:FB STACK: 00 00 C6 2E
E44F  38        SEC                             A:FF X:55 Y:74 P:E5 SP:FB STACK: 00 00 C6 2E
E450  FE 00 06  INC $0655,X @ 06AA = FF         A:FF X:55 Y:74 P:E5 SP:FB STACK: 00 00 C6 2E
E453  D0 0D     BNE $E462                       A:FF X:55 Y:74 P:67 SP:FB STACK: 00 00 C6 2E
E455  30 0B     BMI $E462                       A:FF X:55 Y:74 P:67 SP:FB STACK: 00 00 C6 2E
E457  50 09     BVC $E462                       A:FF X:55 Y:74 P:67 SP:FB STACK: 00 00 C6 2E
E459  90 07     BCC $E462                       A:FF X:55 Y:74 P:67 SP:FB STACK: 00 00 C6 2E
E45B  BD 00 06  LDA $0655,X @ 06AA = 00         A:FF X:55 Y:74 P:67 SP:FB STACK: 00 00 C6 2E
E45E  C9 00     CMP #$00                        A:00 X:55 Y:74 P:67 SP:FB STACK: 00 00 C6 2E
E460  F0 04     BEQ $E466                       A:00 X:55 Y:74 P:67 SP:FB STACK: 00 00 C6 2E
E466  A9 7F     LDA #$7F                        A:00 X:55 Y:74 P:67 SP:FB STACK: 00 00 C6 2E
E468  9D 00 06  STA $0655,X @ 06AA = 00         A:7F X:55 Y:74 P:65 SP:FB STACK: 00 00 C6 2E
E46B  B8        CLV                             A:7F X:55 Y:74 P:65 SP:FB STACK: 00 00 C6 2E
E46C  18        CLC                             A:7F X:55 Y:74 P:25 SP:FB STACK: 00 00 C6 2E
E46D  FE 00 06  INC $0655,X @ 06AA = 7F         A:7F X:55 Y:74 P:24 SP:FB STACK: 00 00 C6 2E
E470  F0 0D     BEQ $E47F                       A:7F X:55 Y:74 P:A4 SP:FB STACK: 00 00 C6 2E
E472  10 0B     BPL $E47F                       A:7F X:55 Y:74 P:A4 SP:FB STACK: 00 00 C6 2E
E474  70 09     BVS $E47F                       A:7F X:55 Y:74 P:A4 SP:FB STACK: 00 00 C6 2E
E476  B0 07     BCS $E47F                       A:7F X:55 Y:74 P:A4 SP:FB STACK: 00 00 C6 2E
E478  BD 00 06  LDA $0655,X @ 06AA = 80         A:7F X:55 Y:74 P:A4 SP:FB STACK: 00 00 C6 2E
E47B  C9 80     CMP #$80                        A:80 X:55 Y:74 P:A4 SP:FB STACK: 00 00 C6 2E
E47D  F0 04     BEQ $E483                       A:80 X:55 Y:74 P:27 SP:FB STACK: 00 00 C6 2E
E483  A9 00     LDA #$00                        A:80 X:55 Y:74 P:27 SP:FB STACK: 00 00 C6 2E
E485  9D 00 06  STA $0655,X @ 06AA = 80         A:00 X:55 Y:74 P:27 SP:FB STACK: 00 00 C6 2E
E488  24 01     BIT $01 = FF                    A:00 X:55 Y:74 P:27 SP:FB STACK: 00 00 C6 2E
E48A  38        SEC                             A:00 X:55 Y:74 P:E7 SP:FB STACK: 00 00 C6 2E
E48B  DE 00 06  DEC $0655,X @ 06AA = 00         A:00 X:55 Y:74 P:E7 SP:FB STACK: 00 00 C6 2E
E48E  F0 0D     BEQ $E49D                       A:00 X:55 Y:74 P:E5 SP:FB STACK: 00 00 C6 2E
E490  10 0B     BPL $E49D                       A:00 X:55 Y:74 P:E5 SP:FB STACK: 00 00 C6 2E
E492  50 09     BVC $E49D                       A:00 X:55 Y:74 P:E5 SP:FB STACK: 00 00 C6 2E
E494  90 07     BCC $E49D                       A:00 X:55 Y:74 P:E5 SP:FB STACK: 00 00 C6 2E
E496  BD 00 06  LDA $0655,X @ 06AA = FF         A:00 X:55 Y:74 P:E5 SP:FB STACK: 00 00 C6 2E
E499  C9 FF     CMP #$FF                        A:FF X:55 Y:74 P:E5 SP:FB STACK: 00 00 C6 2E
E49B  F0 04     BEQ $E4A1                       A:FF X:55 Y:74 P:67 SP:FB STACK: 00 00 C6 2E
E4A1  A9 80     LDA #$80                        A:FF X:55 Y:74 P:67 SP:FB STACK: 00 00 C6 2E
E4A3  9D 00 06  STA $0655,X @ 06AA = FF         A:80 X:55 Y:74 P:E5 SP:FB STACK: 00 00 C6 2E
E4A6  B8        CLV                             A:80 X:55 Y:74 P:E5 SP:FB STACK: 00 00 C6 2E
E4A7  18        CLC                             A:80 X:55 Y:74 P:A5 SP:FB STACK: 00 00 C6 2E
E4A8  DE 00 06  DEC $0655,X @ 06AA = 80         A:80 X:55 Y:74 P:A4 SP:FB STACK: 00 00 C6 2E
E4AB  F0 0D     BEQ $E4BA                       A:80 X:55 Y:74 P:24 SP:FB STACK: 00 00 C6 2E
E4AD  30 0B     BMI $E4BA                       A:80 X:55 Y:74 P:24 SP:FB STACK: 00 00 C6 2E
E4AF  70 09     BVS $E4BA                       A:80 X:55 Y:74 P:24 SP:FB STACK: 00 00 C6 2E
E4B1  B0 07     BCS $E4BA                       A:80 X:55 Y:74 P:24 SP:FB STACK: 00 00 C6 2E
E4B3  BD 00 06  LDA $0655,X @ 06AA = 7F         A:80 X:55 Y:74 P:24 SP:FB STACK: 00 00 C6 2E
E4B6  C9 7F     CMP #$7F                        A:7F X:55 Y:74 P:24 SP:FB STACK: 00 00 C6 2E
E4B8  F0 04     BEQ $E4BE                       A:7F X:55 Y:74 P:27 SP:FB STACK: 00 00 C6 2E
E4BE  A9 01     LDA #$01                        A:7F X:55 Y:74 P:27 SP:FB STACK: 00 00 C6 2E
E4C0  9D 00 06  STA $0655,X @ 06AA = 7F         A:01 X:55 Y:74 P:25 SP:FB STACK: 00 00 C6 2E
E4C3  DE 00 06  DEC $0655,X @ 06AA = 01         A:01 X:55 Y:74 P:25 SP:FB STACK: 00 00 C6 2E
E4C6  F0 04     BEQ $E4CC                       A:01 X:55 Y:74 P:27 SP:FB STACK: 00 00 C6 2E
E4CC  A9 33     LDA #$33                        A:01 X:55 Y:74 P:27 SP:FB STACK: 00 00 C6 2E
E4CE  8D 78 06  STA $0678 = 7F                  A:33 X:55 Y:74 P:25 SP:FB STACK: 00 00 C6 2E
E4D1  A9 44     LDA #$44                        A:33 X:55 Y:74 P:25 SP:FB STACK: 00 00 C6 2E
E4D3  A0 78     LDY #$78                        A:44 X:55 Y:74 P:25 SP:FB STACK: 00 00 C6 2E
E4D5  A2 00     LDX #$00                        A:44 X:55 Y:78 P:25 SP:FB STACK: 00 00 C6 2E
E4D7  38        SEC                             A:44 X:00 Y:78 P:27 SP:FB STACK: 00 00 C6 2E
E4D8  24 01     BIT $01 = FF                    A:44 X:00 Y:78 P:27 SP:FB STACK: 00 00 C6 2E
E4DA  BE 00 06  LDX $0678,Y @ 06F0 = 33         A:44 X:00 Y:78 P:E5 SP:FB STACK: 00 00 C6 2E
E4DD  90 12     BCC $E4F1                       A:44 X:33 Y:78 P:65 SP:FB STACK: 00 00 C6 2E
E4DF  50 10     BVC $E4F1                       A:44 X:33 Y:78 P:65 SP:FB STACK: 00 00 C6 2E
E4E1  30 0E     BMI $E4F1                       A:44 X:33 Y:78 P:65 SP:FB STACK: 00 00 C6 2E
E4E3  F0 0C     BEQ $E4F1                       A:44 X:33 Y:78 P:65 SP:FB STACK: 00 00 C6 2E
E4E5  E0 33     CPX #$33                        A:44 X:33 Y:78 P:65 SP:FB STACK: 00 00 C6 2E
E4E7  D0 08     BNE $E4F1                       A:44 X:33 Y:78 P:67 SP:FB STACK: 00 00 C6 2E
E4E9  C0 78     CPY #$78                        A:44 X:33 Y:78 P:67 SP:FB STACK: 00 00 C6 2E
E4EB  D0 04     BNE $E4F1                       A:44 X:33 Y:78 P:67 SP:FB STACK: 00 00 C6 2E
E4ED  C9 44     CMP #$44                        A:44 X:33 Y:78 P:67 SP:FB STACK: 00 00 C6 2E
E4EF  F0 04     BEQ $E4F5                       A:44 X:33 Y:78 P:67 SP:FB STACK: 00 00 C6 2E
E4F5  A9 97     LDA #$97                        A:44 X:33 Y:78 P:67 SP:FB STACK: 00 00 C6 2E
E4F7  8D 7F 06  STA $067F = 00                  A:97 X:33 Y:78 P:E5 SP:FB STACK: 00 00 C6 2E
E4FA  A9 47     LDA #$47                        A:97 X:33 Y:78 P:E5 SP:FB STACK: 00 00 C6 2E
E4FC  A0 FF     LDY #$FF                        A:47 X:33 Y:78 P:65 SP:FB STACK: 00 00 C6 2E
E4FE  A2 00     LDX #$00                        A:47 X:33 Y:FF P:E5 SP:FB STACK: 00 00 C6 2E
E500  18        CLC                             A:47 X:00 Y:FF P:67 SP:FB STACK: 00 00 C6 2E
E501  B8        CLV                             A:47 X:00 Y:FF P:66 SP:FB STACK: 00 00 C6 2E
E502  BE 80 05  LDX $067F,Y @ 077E = 97         A:47 X:00 Y:FF P:26 SP:FB STACK: 00 00 C6 2E
E505  B0 12     BCS $E519                       A:47 X:97 Y:FF P:A4 SP:FB STACK: 00 00 C6 2E
E507  70 10     BVS $E519                       A:47 X:97 Y:FF P:A4 SP:FB STACK: 00 00 C6 2E
E509  10 0E     BPL $E519                       A:47 X:97 Y:FF P:A4 SP:FB STACK: 00 00 C6 2E
E50B  F0 0C     BEQ $E519                       A:47 X:97 Y:FF P:A4 SP:FB STACK: 00 00 C6 2E
E50D  E0 97     CPX #$97                        A:47 X:97 Y:FF P:A4 SP:FB STACK: 00 00 C6 2E
E50F  D0 08     BNE $E519                       A:47 X:97 Y:FF P:27 SP:FB STACK: 00 00 C6 2E
E511  C0 FF     CPY #$FF                        A:47 X:97 Y:FF P:27 SP:FB STACK: 00 00 C6 2E
E513  D0 04     BNE $E519                       A:47 X:97 Y:FF P:27 SP:FB STACK: 00 00 C6 2E
E515  C9 47     CMP #$47                        A:47 X:97 Y:FF P:27 SP:FB STACK: 00 00 C6 2E
E517  F0 04     BEQ $E51D                       A:47 X:97 Y:FF P:27 SP:FB STACK: 00 00 C6 2E
E51D  60        RTS                             A:47 X:97 Y:FF P:27 SP:FB STACK: 00 00 C6 2E
C62F  20 A3 C6  JSR $C6A3                       A:47 X:97 Y:FF P:27 SP:FD STACK: 00 00
C6A3  A0 4E     LDY #$4E                        A:47 X:97 Y:FF P:27 SP:FB STACK: 00 00 C6 31
C6A5  A9 FF     LDA #$FF                        A:47 X:97 Y:4E P:25 SP:FB STACK: 00 00 C6 31
C6A7  85 01     STA $01 = FF                    A:FF X:97 Y:4E P:A5 SP:FB STACK: 00 00 C6 31
C6A9  20 B0 C6  JSR $C6B0                       A:FF X:97 Y:4E P:A5 SP:FB STACK: 00 00 C6 31
C6B0  A9 FF     LDA #$FF                        A:FF X:97 Y:4E P:A5 SP:F9 STACK: 00 00 C6 31 C6 AB
C6B2  48        PHA                             A:FF X:97 Y:4E P:A5 SP:F9 STACK: 00 00 C6 31 C6 AB
C6B3  A9 AA     LDA #$AA                        A:FF X:97 Y:4E P:A5 SP:F8 STACK: 00 00 C6 31 C6 AB FF
C6B5  D0 05     BNE $C6BC                       A:AA X:97 Y:4E P:A5 SP:F8 STACK: 00 00 C6 31 C6 AB FF
C6BC  28        PLP                             A:AA X:97 Y:4E P:A5 SP:F8 STACK: 00 00 C6 31 C6 AB FF
C6BD  04        NOP                             A:AA X:97 Y:4E P:EF SP:F9 STACK: 00 00 C6 31 C6 AB
C6BE  A9 44     LDA #$44                        A:AA X:97 Y:4E P:EF SP:F9 STACK: 00 00 C6 31 C6 AB
C6C0  A9 64     LDA #$64                        A:44 X:97 Y:4E P:6D SP:F9 STACK: 00 00 C6 31 C6 AB
C6C2  A9 EA     LDA #$EA                        A:64 X:97 Y:4E P:6D SP:F9 STACK: 00 00 C6 31 C6 AB
C6C4  EA        NOP                             A:EA X:97 Y:4E P:ED SP:F9 STACK: 00 00 C6 31 C6 AB
C6C5  EA        NOP                             A:EA X:97 Y:4E P:ED SP:F9 STACK: 00 00 C6 31 C6 AB
C6C6  EA        NOP                             A:EA X:97 Y:4E P:ED SP:F9 STACK: 00 00 C6 31 C6 AB
C6C7  08        PHP                             A:EA X:97 Y:4E P:ED SP:F9 STACK: 00 00 C6 31 C6 AB
C6C8  48        PHA                             A:EA X:97 Y:4E P:ED SP:F8 STACK: 00 00 C6 31 C6 AB FD
C6C9  0C        NOP                             A:EA X:97 Y:4E P:ED SP:F7 STACK: 00 00 C6 31 C6 AB FD EA
C6CA  A9 A9     LDA #$A9                        A:EA X:97 Y:4E P:ED SP:F7 STACK: 00 00 C6 31 C6 AB FD EA
C6CC  EA        NOP                             A:A9 X:97 Y:4E P:ED SP:F7 STACK: 00 00 C6 31 C6 AB FD EA
C6CD  EA        NOP                             A:A9 X:97 Y:4E P:ED SP:F7 STACK: 00 00 C6 31 C6 AB FD EA
C6CE  EA        NOP                             A:A9 X:97 Y:4E P:ED SP:F7 STACK: 00 00 C6 31 C6 AB FD EA
C6CF  EA        NOP                             A:A9 X:97 Y:4E P:ED SP:F7 STACK: 00 00 C6 31 C6 AB FD EA
C6D0  08        PHP                             A:A9 X:97 Y:4E P:ED SP:F7 STACK: 00 00 C6 31 C6 AB FD EA
C6D1  48        PHA                             A:A9 X:97 Y:4E P:ED SP:F6 STACK: 00 00 C6 31 C6 AB FD EA FD
C6D2  14        NOP                             A:A9 X:97 Y:4E P:ED SP:F5 STACK: 00 00 C6 31 C6 AB FD EA FD A9
C6D3  A9 34     LDA #$34                        A:A9 X:97 Y:4E P:ED SP:F5 STACK: 00 00 C6 31 C6 AB FD EA FD A9
C6D5  A9 54     LDA #$54                        A:34 X:97 Y:4E P:6D SP:F5 STACK: 00 00 C6 31 C6 AB FD EA FD A9
C6D7  A9 74     LDA #$74                        A:54 X:97 Y:4E P:6D SP:F5 STACK: 00 00 C6 31 C6 AB FD EA FD A9
C6D9  A9 D4     LDA #$D4                        A:74 X:97 Y:4E P:6D SP:F5 STACK: 00 00 C6 31 C6 AB FD EA FD A9
C6DB  A9 F4     LDA #$F4                        A:D4 X:97 Y:4E P:ED SP:F5 STACK: 00 00 C6 31 C6 AB FD EA FD A9
C6DD  A9 EA     LDA #$EA                        A:F4 X:97 Y:4E P:ED SP:F5 STACK: 00 00 C6 31 C6 AB FD EA FD A9
C6DF  EA        NOP                             A:EA X:97 Y:4E P:ED SP:F5 STACK: 00 00 C6 31 C6 AB FD EA FD A9
C6E0  EA        NOP                             A:EA X:97 Y:4E P:ED SP:F5 STACK: 00 00 C6 31 C6 AB FD EA FD A9
C6E1  EA        NOP                             A:EA X:97 Y:4E P:ED SP:F5 STACK: 00 00 C6 31 C6 AB FD EA FD A9
C6E2  08        PHP                             A:EA X:97 Y:4E P:ED SP:F5 STACK: 00 00 C6 31 C6 AB FD EA FD A9
C6E3  48        PHA                             A:EA X:97 Y:4E P:ED SP:F4 STACK: 00 00 C6 31 C6 AB FD EA FD A9 FD
C6E4  1A        NOP                             A:EA X:97 Y:4E P:ED SP:F3 STACK: 00 00 C6 31 C6 AB FD EA FD A9 FD EA
C6E5  3A        NOP                             A:EA X:97 Y:4E P:ED SP:F3 STACK: 00 00 C6 31 C6 AB FD EA FD A9 FD EA
C6E6  5A        NOP                             A:EA X:97 Y:4E P:ED SP:F3 STACK: 00 00 C6 31 C6 AB FD EA FD A9 FD EA
C6E7  7A        NOP                             A:EA X:97 Y:4E P:ED SP:F3 STACK: 00 00 C6 31 C6 AB FD EA FD A9 FD EA
C6E8  DA        NOP                             A:EA X:97 Y:4E P:ED SP:F3 STACK: 00 00 C6 31 C6 AB FD EA FD A9 FD EA
C6E9  FA        NOP                             A:EA X:97 Y:4E P:ED SP:F3 STACK: 00 00 C6 31 C6 AB FD EA FD A9 FD EA
C6EA  80 89     NOP #$89                        A:EA X:97 Y:4E P:ED SP:F3 STACK: 00 00 C6 31 C6 AB FD EA FD A9 FD EA
C6EC  EA        NOP                             A:EA X:97 Y:4E P:ED SP:F3 STACK: 00 00 C6 31 C6 AB FD EA FD A9 FD EA
C6ED  EA        NOP                             A:EA X:97 Y:4E P:ED SP:F3 STACK: 00 00 C6 31 C6 AB FD EA FD A9 FD EA
C6EE  EA        NOP                             A:EA X:97 Y:4E P:ED SP:F3 STACK: 00 00 C6 31 C6 AB FD EA FD A9 FD EA
C6EF  EA        NOP                             A:EA X:97 Y:4E P:ED SP:F3 STACK: 00 00 C6 31 C6 AB FD EA FD A9 FD EA
C6F0  08        PHP                             A:EA X:97 Y:4E P:ED SP:F3 STACK: 00 00 C6 31 C6 AB FD EA FD A9 FD EA
C6F1  48        PHA                             A:EA X:97 Y:4E P:ED SP:F2 STACK: 00 00 C6 31 C6 AB FD EA FD A9 FD EA FD
C6F2  1C        NOP                             A:EA X:97 Y:4E P:ED SP:F1 STACK: 00 00 C6 31 C6 AB FD EA FD A9 FD EA FD EA
C6F3  A9 A9     LDA #$A9                        A:EA X:97 Y:4E P:ED SP:F1 STACK: 00 00 C6 31 C6 AB FD EA FD A9 FD EA FD EA
C6F5  3C        NOP                             A:A9 X:97 Y:4E P:ED SP:F1 STACK: 00 00 C6 31 C6 AB FD EA FD A9 FD EA FD EA
C6F6  A9 A9     LDA #$A9                        A:A9 X:97 Y:4E P:ED SP:F1 STACK: 00 00 C6 31 C6 AB FD EA FD A9 FD EA FD EA
C6F8  5C        NOP                             A:A9 X:97 Y:4E P:ED SP:F1 STACK: 00 00 C6 31 C6 AB FD EA FD A9 FD EA FD EA
C6F9  A9 A9     LDA #$A9                        A:A9 X:97 Y:4E P:ED SP:F1 STACK: 00 00 C6 31 C6 AB FD EA FD A9 FD EA FD EA
C6FB  7C        NOP                             A:A9 X:97 Y:4E P:ED SP:F1 STACK: 00 00 C6 31 C6 AB FD EA FD A9 FD EA FD EA
C6FC  A9 A9     LDA #$A9                        A:A9 X:97 Y:4E P:ED SP:F1 STACK: 00 00 C6 31 C6 AB FD EA FD A9 FD EA FD EA
C6FE  DC        NOP                             A:A9 X:97 Y:4E P:ED SP:F1 STACK: 00 00 C6 31 C6 AB FD EA FD A9 FD EA FD EA
C6FF  A9 A9     LDA #$A9                        A:A9 X:97 Y:4E P:ED SP:F1 STACK: 00 00 C6 31 C6 AB FD EA FD A9 FD EA FD EA
C701  FC A9 A9  JMP ($A9A9) = 0000              ($A9,X) @ 40 = 0000 = 00    A:A9 X:97 Y:4E P:ED SP:F1 STACK: 00 00 C6 31 C6 AB FD EA FD A9 FD EA FD EA
0000  00        BRK                             A:A9 X:97 Y:4E P:ED SP:F1 STACK: 00 00 C6 31 C6 AB FD EA FD A9 FD EA FD EA
0001  FF        NOP                             A:A9 X:97 Y:4E P:ED SP:F1 STACK: 00 00 C6 31 C6 AB FD EA FD A9 FD EA FD EA
0002  00        BRK                             A:A9 X:97 Y:4E P:ED SP:F1 STACK: 00 00 C6 31 C6 AB FD EA FD A9 FD EA FD EA
0003  00        BRK                             A:A9 X:97 Y:4E P:ED SP:F1 STACK: 00 00 C6 31 C6 AB FD EA FD A9 FD EA FD EA
0004  00        BRK                             A:A9 X:97 Y:4E P:ED SP:F1 STACK: 00 00 C6 31 C6 AB FD EA FD A9 FD EA FD EA
0005  99 00 00  STA $004E,Y @ 009C = 00         A:A9 X:97 Y:4E P:ED SP:F1 STACK: 00 00 C6 31 C6 AB FD EA FD A9 FD EA FD EA
0008  00        BRK                             A:A9 X:97 Y:4E P:ED SP:F1 STACK: 00 00 C6 31 C6 AB FD EA FD A9 FD EA FD EA
0009  00        BRK                             A:A9 X:97 Y:4E P:ED SP:F1 STACK: 00 00 C6 31 C6 AB FD EA FD A9 FD EA FD EA
000A  00        BRK                             A:A9 X:97 Y:4E P:ED SP:F1 STACK: 00 00 C6 31 C6 AB FD EA FD A9 FD EA FD EA
000B  00        BRK                             A:A9 X:97 Y:4E P:ED SP:F1 STACK: 00 00 C6 31 C6 AB FD EA FD A9 FD EA FD EA
000C  00        BRK                             A:A9 X:97 Y:4E P:ED SP:F1 STACK: 00 00 C6 31 C6 AB FD EA FD A9 FD EA FD EA
000D  00        BRK                             A:A9 X:97 Y:4E P:ED SP:F1 STACK: 00 00 C6 31 C6 AB FD EA FD A9 FD EA FD EA
000E  00        BRK                             A:A9 X:97 Y:4E P:ED SP:F1 STACK: 00 00 C6 31 C6 AB FD EA FD A9 FD EA FD EA
000F  00        BRK                             A:A9 X:97 Y:4E P:ED SP:F1 STACK: 00 00 C6 31 C6 AB FD EA FD A9 FD EA FD EA
0010  EC 00 00  CPX $0000 = 00                  A:A9 X:97 Y:4E P:ED SP:F1 STACK: 00 00 C6 31 C6 AB FD EA FD A9 FD EA FD EA
0013  00        BRK                             A:A9 X:97 Y:4E P:ED SP:F1 STACK: 00 00 C6 31 C6 AB FD EA FD A9 FD EA FD EA
0014  00        BRK                             A:A9 X:97 Y:4E P:ED SP:F1 STACK: 00 00 C6 31 C6 AB FD EA FD A9 FD EA FD EA
0015  00        BRK                             A:A9 X:97 Y:4E P:ED SP:F1 STACK: 00 00 C6 31 C6 AB FD EA FD A9 FD EA FD EA
0016  00        BRK                             A:A9 X:97 Y:4E P:ED SP:F1 STACK: 00 00 C6 31 C6 AB FD EA FD A9 FD EA FD EA
0017  00        BRK                             A:A9 X:97 Y:4E P:ED SP:F1 STACK: 00 00 C6 31 C6 AB FD EA FD A9 FD EA FD EA
0018  00        BRK                             A:A9 X:97 Y:4E P:ED SP:F1 STACK: 00 00 C6 31 C6 AB FD EA FD A9 FD EA FD EA
0019  00        BRK                             A:A9 X:97 Y:4E P:ED SP:F1 STACK: 00 00 C6 31 C6 AB FD EA FD A9 FD EA FD EA
001A  00        BRK                             A:A9 X:97 Y:4E P:ED SP:F1 STACK: 00 00 C6 31 C6 AB FD EA FD A9 FD EA FD EA
001B  00        BRK                             A:A9 X:97 Y:4E P:ED SP:F1 STACK: 00 00 C6 31 C6 AB FD EA FD A9 FD EA FD EA
001C  00        BRK                             A:A9 X:97 Y:4E P:ED SP:F1 STACK: 00 00 C6 31 C6 AB FD EA FD A9 FD EA FD EA
001D  00        BRK                             A:A9 X:97 Y:4E P:ED SP:F1 STACK: 00 00 C6 31 C6 AB FD EA FD A9 FD EA FD EA
001E  00        BRK                             A:A9 X:97 Y:4E P:ED SP:F1 STACK: 00 00 C6 31 C6 AB FD EA FD A9 FD EA FD EA
001F  00        BRK                             A:A9 X:97 Y:4E P:ED SP:F1 STACK: 00 00 C6 31 C6 AB FD EA FD A9 FD EA FD EA
0020  00        BRK                             A:A9 X:97 Y:4E P:ED SP:F1 STACK: 00 00 C6 31 C6 AB FD EA FD A9 FD EA FD EA
0021  00        BRK                             A:A9 X:97 Y:4E P:ED SP:F1 STACK: 00 00 C6 31 C6 AB FD EA FD A9 FD EA FD EA
0022  00        BRK                             A:A9 X:97 Y:4E P:ED SP:F1 STACK: 00 00 C6 31 C6 AB FD EA FD A9 FD EA FD EA
0023  00        BRK                             A:A9 X:97 Y:4E P:ED SP:F1 STACK: 00 00 C6 31 C6 AB FD EA FD A9 FD EA FD EA
0024  00        BRK                             A:A9 X:97 Y:4E P:ED SP:F1 STACK: 00 00 C6 31 C6 AB FD EA FD A9 FD EA FD EA
0025  00        BRK                             A:A9 X:97 Y:4E P:ED SP:F1 STACK: 00 00 C6 31 C6 AB FD EA FD A9 FD EA FD EA
0026  00        BRK                             A:A9 X:97 Y:4E P:ED SP:F1 STACK: 00 00 C6 31 C6 AB FD EA FD A9 FD EA FD EA
0027  00        BRK                             A:A9 X:97 Y:4E P:ED SP:F1 STACK: 00 00 C6 31 C6 AB FD EA FD A9 FD EA FD EA
0028  00        BRK                             A:A9 X:97 Y:4E P:ED SP:F1 STACK: 00 00 C6 31 C6 AB FD EA FD A9 FD EA FD EA
0029  00        BRK                             A:A9 X:97 Y:4E P:ED SP:F1 STACK: 00 00 C6 31 C6 AB FD EA FD A9 FD EA FD EA
002A  00        BRK                             A:A9 X:97 Y:4E P:ED SP:F1 STACK: 00 00 C6 31 C6 AB FD EA FD A9 FD EA FD EA
002B  00        BRK                             A:A9 X:97 Y:4E P:ED SP:F1 STACK: 00 00 C6 31 C6 AB FD EA FD A9 FD EA FD EA
002C  00        BRK                             A:A9 X:97 Y:4E P:ED SP:F1 STACK: 00 00 C6 31 C6 AB FD EA FD A9 FD EA FD EA
002D  00        BRK                             A:A9 X:97 Y:4E P:ED SP:F1 STACK: 00 00 C6 31 C6 AB FD EA FD A9 FD EA FD EA
002E  00        BRK                             A:A9 X:97 Y:4E P:ED SP:F1 STACK: 00 00 C6 31 C6 AB FD EA FD A9 FD EA FD EA
002F  00        BRK                             A:A9 X:97 Y:4E P:ED SP:F1 STACK: 00 00 C6 31 C6 AB FD EA FD A9 FD EA FD EA
0030  00        BRK                             A:A9 X:97 Y:4E P:ED SP:F1 STACK: 00 00 C6 31 C6 AB FD EA FD A9 FD EA FD EA
0031  00        BRK                             A:A9 X:97 Y:4E P:ED SP:F1 STACK: 00 00 C6 31 C6 AB FD EA FD A9 FD EA FD EA
0032  00        BRK                             A:A9 X:97 Y:4E P:ED SP:F1 STACK: 00 00 C6 31 C6 AB FD EA FD A9 FD EA FD EA
0033  44        NOP                             A:A9 X:97 Y:4E P:ED SP:F1 STACK: 00 00 C6 31 C6 AB FD EA FD A9 FD EA FD EA
0034  04        NOP                             A:A9 X:97 Y:4E P:ED SP:F1 STACK: 00 00 C6 31 C6 AB FD EA FD A9 FD EA FD EA
0035  00        BRK                             A:A9 X:97 Y:4E P:ED SP:F1 STACK: 00 00 C6 31 C6 AB FD EA FD A9 FD EA FD EA
0036  00        BRK                             A:A9 X:97 Y:4E P:ED SP:F1 STACK: 00 00 C6 31 C6 AB FD EA FD A9 FD EA FD EA
0037  00        BRK                             A:A9 X:97 Y:4E P:ED SP:F1 STACK: 00 00 C6 31 C6 AB FD EA FD A9 FD EA FD EA
0038  00        BRK                             A:A9 X:97 Y:4E P:ED SP:F1 STACK: 00 00 C6 31 C6 AB FD EA FD A9 FD EA FD EA
0039  00        BRK                             A:A9 X:97 Y:4E P:ED SP:F1 STACK: 00 00 C6 31 C6 AB FD EA FD A9 FD EA FD EA
003A  00        BRK                             A:A9 X:97 Y:4E P:ED SP:F1 STACK: 00 00 C6 31 C6 AB FD EA FD A9 FD EA FD EA
003B  00        BRK                             A:A9 X:97 Y:4E P:ED SP:F1 STACK: 00 00 C6 31 C6 AB FD EA FD A9 FD EA FD EA
003C  00        BRK                             A:A9 X:97 Y:4E P:ED SP:F1 STACK: 00 00 C6 31 C6 AB FD EA FD A9 FD EA FD EA
003D  00        BRK                             A:A9 X:97 Y:4E P:ED SP:F1 STACK: 00 00 C6 31 C6 AB FD EA FD A9 FD EA FD EA
003E  00        BRK                             A:A9 X:97 Y:4E P:ED SP:F1 STACK: 00 00 C6 31 C6 AB FD EA FD A9 FD EA FD EA
003F  00        BRK                             A:A9 X:97 Y:4E P:ED SP:F1 STACK: 00 00 C6 31 C6 AB FD EA FD A9 FD EA FD EA
0040  00        BRK                             A:A9 X:97 Y:4E P:ED SP:F1 STACK: 00 00 C6 31 C6 AB FD EA FD A9 FD EA FD EA
0041  00        BRK                             A:A9 X:97 Y:4E P:ED SP:F1 STACK: 00 00 C6 31 C6 AB FD EA FD A9 FD EA FD EA
0042  00        BRK                             A:A9 X:97 Y:4E P:ED SP:F1 STACK: 00 00 C6 31 C6 AB FD EA FD A9 FD EA FD EA
0043  00        BRK                             A:A9 X:97 Y:4E P:ED SP:F1 STACK: 00 00 C6 31 C6 AB FD EA FD A9 FD EA FD EA
0044  00        BRK                             A:A9 X:97 Y:4E P:ED SP:F1 STACK: 00 00 C6 31 C6 AB FD EA FD A9 FD EA FD EA
0045  00        BRK                             A:A9 X:97 Y:4E P:ED SP:F1 STACK: 00 00 C6 31 C6 AB FD EA FD A9 FD EA FD EA
0046  00        BRK                             A:A9 X:97 Y:4E P:ED SP:F1 STACK: 00 00 C6 31 C6 AB FD EA FD A9 FD EA FD EA
0047  00        BRK                             A:A9 X:97 Y:4E P:ED SP:F1 STACK: 00 00 C6 31 C6 AB FD EA FD A9 FD EA FD EA
0048  00        BRK                             A:A9 X:97 Y:4E P:ED SP:F1 STACK: 00 00 C6 31 C6 AB FD EA FD A9 FD EA FD EA
0049  00        BRK                             A:A9 X:97 Y:4E P:ED SP:F1 STACK: 00 00 C6 31 C6 AB FD EA FD A9 FD EA FD EA
004A  00        BRK                             A:A9 X:97 Y:4E P:ED SP:F1 STACK: 00 00 C6 31 C6 AB FD EA FD A9 FD EA FD EA
004B  00        BRK                             A:A9 X:97 Y:4E P:ED SP:F1 STACK: 00 00 C6 31 C6 AB FD EA FD A9 FD EA FD EA
004C  00        BRK                             A:A9 X:97 Y:4E P:ED SP:F1 STACK: 00 00 C6 31 C6 AB FD EA FD A9 FD EA FD EA
004D  00        BRK                             A:A9 X:97 Y:4E P:ED SP:F1 STACK: 00 00 C6 31 C6 AB FD EA FD A9 FD EA FD EA
004E  A9 00     LDA #$00                        A:A9 X:97 Y:4E P:ED SP:F1 STACK: 00 00 C6 31 C6 AB FD EA FD A9 FD EA FD EA
0050  00        BRK                             A:00 X:97 Y:4E P:6F SP:F1 STACK: 00 00 C6 31 C6 AB FD EA FD A9 FD EA FD EA
0051  00        BRK                             A:00 X:97 Y:4E P:6F SP:F1 STACK: 00 00 C6 31 C6 AB FD EA FD A9 FD EA FD EA
0052  00        BRK                             A:00 X:97 Y:4E P:6F SP:F1 STACK: 00 00 C6 31 C6 AB FD EA FD A9 FD EA FD EA
0053  00        BRK                             A:00 X:97 Y:4E P:6F SP:F1 STACK: 00 00 C6 31 C6 AB FD EA FD A9 FD EA FD EA
0054  00        BRK                             A:00 X:97 Y:4E P:6F SP:F1 STACK: 00 00 C6 31 C6 AB FD EA FD A9 FD EA FD EA
0055  00        BRK                             A:00 X:97 Y:4E P:6F SP:F1 STACK: 00 00 C6 31 C6 AB FD EA FD A9 FD EA FD EA
0056  00        BRK                             A:00 X:97 Y:4E P:6F SP:F1 STACK: 00 00 C6 31 C6 AB FD EA FD A9 FD EA FD EA
0057  00        BRK                             A:00 X:97 Y:4E P:6F SP:F1 STACK: 00 00 C6 31 C6 AB FD EA FD A9 FD EA FD EA
0058  00        BRK                             A:00 X:97 Y:4E P:6F SP:F1 STACK: 00 00 C6 31 C6 AB FD EA FD A9 FD EA FD EA
0059  00        BRK                             A:00 X:97 Y:4E P:6F SP:F1 STACK: 00 00 C6 31 C6 AB FD EA FD A9 FD EA FD EA
005A  00        BRK                             A:00 X:97 Y:4E P:6F SP:F1 STACK: 00 00 C6 31 C6 AB FD EA FD A9 FD EA FD EA
005B  00        BRK                             A:00 X:97 Y:4E P:6F SP:F1 STACK: 00 00 C6 31 C6 AB FD EA FD A9 FD EA FD EA
005C  00        BRK                             A:00 X:97 Y:4E P:6F SP:F1 STACK: 00 00 C6 31 C6 AB FD EA FD A9 FD EA FD EA
005D  00        BRK                             A:00 X:97 Y:4E P:6F SP:F1 STACK: 00 00 C6 31 C6 AB FD EA FD A9 FD EA FD EA
005E  00        BRK                             A:00 X:97 Y:4E P:6F SP:F1 STACK: 00 00 C6 31 C6 AB FD EA FD A9 FD EA FD EA
005F  00        BRK                             A:00 X:97 Y:4E P:6F SP:F1 STACK: 00 00 C6 31 C6 AB FD EA FD A9 FD EA FD EA
0060  00        BRK                             A:00 X:97 Y:4E P:6F SP:F1 STACK: 00 00 C6 31 C6 AB FD EA FD A9 FD EA FD EA
0061  00        BRK                             A:00 X:97 Y:4E P:6F SP:F1 STACK: 00 00 C6 31 C6 AB FD EA FD A9 FD EA FD EA
0062  00        BRK                             A:00 X:97 Y:4E P:6F SP:F1 STACK: 00 00 C6 31 C6 AB FD EA FD A9 FD EA FD EA
0063  00        BRK                             A:00 X:97 Y:4E P:6F SP:F1 STACK: 00 00 C6 31 C6 AB FD EA FD A9 FD EA FD EA
0064  00        BRK                             A:00 X:97 Y:4E P:6F SP:F1 STACK: 00 00 C6 31 C6 AB FD EA FD A9 FD EA FD EA
0065  00        BRK                             A:00 X:97 Y:4E P:6F SP:F1 STACK: 00 00 C6 31 C6 AB FD EA FD A9 FD EA FD EA
0066  00        BRK                             A:00 X:97 Y:4E P:6F SP:F1 STACK: 00 00 C6 31 C6 AB FD EA FD A9 FD EA FD EA
0067  00        BRK                             A:00 X:97 Y:4E P:6F SP:F1 STACK: 00 00 C6 31 C6 AB FD EA FD A9 FD EA FD EA
0068  00        BRK                             A:00 X:97 Y:4E P:6F SP:F1 STACK: 00 00 C6 31 C6 AB FD EA FD A9 FD EA FD EA
0069  00        BRK                             A:00 X:97 Y:4E P:6F SP:F1 STACK: 00 00 C6 31 C6 AB FD EA FD A9 FD EA FD EA
006A  00        BRK                             A:00 X:97 Y:4E P:6F SP:F1 STACK: 00 00 C6 31 C6 AB FD EA FD A9 FD EA FD EA
006B  00        BRK                             A:00 X:97 Y:4E P:6F SP:F1 STACK: 00 00 C6 31 C6 AB FD EA FD A9 FD EA FD EA
006C  00        BRK                             A:00 X:97 Y:4E P:6F SP:F1 STACK: 00 00 C6 31 C6 AB FD EA FD A9 FD EA FD EA
006D  00        BRK                             A:00 X:97 Y:4E P:6F SP:F1 STACK: 00 00 C6 31 C6 AB FD EA FD A9 FD EA FD EA
006E  00        BRK                             A:00 X:97 Y:4E P:6F SP:F1 STACK: 00 00 C6 31 C6 AB FD EA FD A9 FD EA FD EA
006F  00        BRK                             A:00 X:97 Y:4E P:6F SP:F1 STACK: 00 00 C6 31 C6 AB FD EA FD A9 FD EA FD EA
0070  00        BRK                             A:00 X:97 Y:4E P:6F SP:F1 STACK: 00 00 C6 31 C6 AB FD EA FD A9 FD EA FD EA
0071  00        BRK                             A:00 X:97 Y:4E P:6F SP:F1 STACK: 00 00 C6 31 C6 AB FD EA FD A9 FD EA FD EA
0072  00        BRK                             A:00 X:97 Y:4E P:6F SP:F1 STACK: 00 00 C6 31 C6 AB FD EA FD A9 FD EA FD EA
0073  00        BRK                             A:00 X:97 Y:4E P:6F SP:F1 STACK: 00 00 C6 31 C6 AB FD EA FD A9 FD EA FD EA
0074  00        BRK                             A:00 X:97 Y:4E P:6F SP:F1 STACK: 00 00 C6 31 C6 AB FD EA FD A9 FD EA FD EA
0075  00        BRK                             A:00 X:97 Y:4E P:6F SP:F1 STACK: 00 00 C6 31 C6 AB FD EA FD A9 FD EA FD EA
0076  00        BRK                             A:00 X:97 Y:4E P:6F SP:F1 STACK: 00 00 C6 31 C6 AB FD EA FD A9 FD EA FD EA
0077  00        BRK                             A:00 X:97 Y:4E P:6F SP:F1 STACK: 00 00 C6 31 C6 AB FD EA FD A9 FD EA FD EA
0078  33        NOP                             A:00 X:97 Y:4E P:6F SP:F1 STACK: 00 00 C6 31 C6 AB FD EA FD A9 FD EA FD EA
0079  00        BRK                             A:00 X:97 Y:4E P:6F SP:F1 STACK: 00 00 C6 31 C6 AB FD EA FD A9 FD EA FD EA
007A  00        BRK                             A:00 X:97 Y:4E P:6F SP:F1 STACK: 00 00 C6 31 C6 AB FD EA FD A9 FD EA FD EA
007B  00        BRK                             A:00 X:97 Y:4E P:6F SP:F1 STACK: 00 00 C6 31 C6 AB FD EA FD A9 FD EA FD EA
007C  00        BRK                             A:00 X:97 Y:4E P:6F SP:F1 STACK: 00 00 C6 31 C6 AB FD EA FD A9 FD EA FD EA
007D  00        BRK                             A:00 X:97 Y:4E P:6F SP:F1 STACK: 00 00 C6 31 C6 AB FD EA FD A9 FD EA FD EA
007E  00        BRK                             A:00 X:97 Y:4E P:6F SP:F1 STACK: 00 00 C6 31 C6 AB FD EA FD A9 FD EA FD EA
007F  69 00     ADC #$00                        A:00 X:97 Y:4E P:6F SP:F1 STACK: 00 00 C6 31 C6 AB FD EA FD A9 FD EA FD EA
0081  02        NOP                             A:01 X:97 Y:4E P:2C SP:F1 STACK: 00 00 C6 31 C6 AB FD EA FD A9 FD EA FD EA
0082  00        BRK                             A:01 X:97 Y:4E P:2C SP:F1 STACK: 00 00 C6 31 C6 AB FD EA FD A9 FD EA FD EA
0083  03        NOP                             A:01 X:97 Y:4E P:2C SP:F1 STACK: 00 00 C6 31 C6 AB FD EA FD A9 FD EA FD EA
0084  03        NOP                             A:01 X:97 Y:4E P:2C SP:F1 STACK: 00 00 C6 31 C6 AB FD EA FD A9 FD EA FD EA
0085  00        BRK                             A:01 X:97 Y:4E P:2C SP:F1 STACK: 00 00 C6 31 C6 AB FD EA FD A9 FD EA FD EA
0086  00        BRK                             A:01 X:97 Y:4E P:2C SP:F1 STACK: 00 00 C6 31 C6 AB FD EA FD A9 FD EA FD EA
0087  00        BRK                             A:01 X:97 Y:4E P:2C SP:F1 STACK: 00 00 C6 31 C6 AB FD EA FD A9 FD EA FD EA
0088  00        BRK                             A:01 X:97 Y:4E P:2C SP:F1 STACK: 00 00 C6 31 C6 AB FD EA FD A9 FD EA FD EA
0089  BB        NOP                             A:01 X:97 Y:4E P:2C SP:F1 STACK: 00 00 C6 31 C6 AB FD EA FD A9 FD EA FD EA
008A  03        NOP                             A:01 X:97 Y:4E P:2C SP:F1 STACK: 00 00 C6 31 C6 AB FD EA FD A9 FD EA FD EA
008B  00        BRK                             A:01 X:97 Y:4E P:2C SP:F1 STACK: 00 00 C6 31 C6 AB FD EA FD A9 FD EA FD EA
008C  00        BRK                             A:01 X:97 Y:4E P:2C SP:F1 STACK: 00 00 C6 31 C6 AB FD EA FD A9 FD EA FD EA
008D  00        BRK                             A:01 X:97 Y:4E P:2C SP:F1 STACK: 00 00 C6 31 C6 AB FD EA FD A9 FD EA FD EA
008E  00        BRK                             A:01 X:97 Y:4E P:2C SP:F1 STACK: 00 00 C6 31 C6 AB FD EA FD A9 FD EA FD EA
008F  00        BRK                             A:01 X:97 Y:4E P:2C SP:F1 STACK: 00 00 C6 31 C6 AB FD EA FD A9 FD EA FD EA
0090  00        BRK                             A:01 X:97 Y:4E P:2C SP:F1 STACK: 00 00 C6 31 C6 AB FD EA FD A9 FD EA FD EA
0091  00        BRK                             A:01 X:97 Y:4E P:2C SP:F1 STACK: 00 00 C6 31 C6 AB FD EA FD A9 FD EA FD EA
0092  00        BRK                             A:01 X:97 Y:4E P:2C SP:F1 STACK: 00 00 C6 31 C6 AB FD EA FD A9 FD EA FD EA
0093  00        BRK                             A:01 X:97 Y:4E P:2C SP:F1 STACK: 00 00 C6 31 C6 AB FD EA FD A9 FD EA FD EA
0094  00        BRK                             A:01 X:97 Y:4E P:2C SP:F1 STACK: 00 00 C6 31 C6 AB FD EA FD A9 FD EA FD EA
0095  00        BRK                             A:01 X:97 Y:4E P:2C SP:F1 STACK: 00 00 C6 31 C6 AB FD EA FD A9 FD EA FD EA
0096  00        BRK                             A:01 X:97 Y:4E P:2C SP:F1 STACK: 00 00 C6 31 C6 AB FD EA FD A9 FD EA FD EA
0097  FF        NOP                             A:01 X:97 Y:4E P:2C SP:F1 STACK: 00 00 C6 31 C6 AB FD EA FD A9 FD EA FD EA
0098  FF        NOP                             A:01 X:97 Y:4E P:2C SP:F1 STACK: 00 00 C6 31 C6 AB FD EA FD A9 FD EA FD EA
0099  00        BRK                             A:01 X:97 Y:4E P:2C SP:F1 STACK: 00 00 C6 31 C6 AB FD EA FD A9 FD EA FD EA
009A  00        BRK                             A:01 X:97 Y:4E P:2C SP:F1 STACK: 00 00 C6 31 C6 AB FD EA FD A9 FD EA FD EA
009B  00        BRK                             A:01 X:97 Y:4E P:2C SP:F1 STACK: 00 00 C6 31 C6 AB FD EA FD A9 FD EA FD EA
009C  00        BRK                             A:01 X:97 Y:4E P:2C SP:F1 STACK: 00 00 C6 31 C6 AB FD EA FD A9 FD EA FD EA
009D  00        BRK                             A:01 X:97 Y:4E P:2C SP:F1 STACK: 00 00 C6 31 C6 AB FD EA FD A9 FD EA FD EA
009E  00        BRK                             A:01 X:97 Y:4E P:2C SP:F1 STACK: 00 00 C6 31 C6 AB FD EA FD A9 FD EA FD EA
009F  00        BRK                             A:01 X:97 Y:4E P:2C SP:F1 STACK: 00 00 C6 31 C6 AB FD EA FD A9 FD EA FD EA
00A0  00        BRK                             A:01 X:97 Y:4E P:2C SP:F1 STACK: 00 00 C6 31 C6 AB FD EA FD A9 FD EA FD EA
00A1  00        BRK                             A:01 X:97 Y:4E P:2C SP:F1 STACK: 00 00 C6 31 C6 AB FD EA FD A9 FD EA FD EA
00A2  00        BRK                             A:01 X:97 Y:4E P:2C SP:F1 STACK: 00 00 C6 31 C6 AB FD EA FD A9 FD EA FD EA
00A3  00        BRK                             A:01 X:97 Y:4E P:2C SP:F1 STACK: 00 00 C6 31 C6 AB FD EA FD A9 FD EA FD EA
00A4  00        BRK                             A:01 X:97 Y:4E P:2C SP:F1 STACK: 00 00 C6 31 C6 AB FD EA FD A9 FD EA FD EA
00A5  00        BRK                             A:01 X:97 Y:4E P:2C SP:F1 STACK: 00 00 C6 31 C6 AB FD EA FD A9 FD EA FD EA
00A6  00        BRK                             A:01 X:97 Y:4E P:2C SP:F1 STACK: 00 00 C6 31 C6 AB FD EA FD A9 FD EA FD EA
00A7  00        BRK                             A:01 X:97 Y:4E P:2C SP:F1 STACK: 00 00 C6 31 C6 AB FD EA FD A9 FD EA FD EA
00A8  00        BRK                             A:01 X:97 Y:4E P:2C SP:F1 STACK: 00 00 C6 31 C6 AB FD EA FD A9 FD EA FD EA
00A9  00        BRK                             A:01 X:97 Y:4E P:2C SP:F1 STACK: 00 00 C6 31 C6 AB FD EA FD A9 FD EA FD EA
00AA  00        BRK                             A:01 X:97 Y:4E P:2C SP:F1 STACK: 00 00 C6 31 C6 AB FD EA FD A9 FD EA FD EA
00AB  00        BRK                             A:01 X:97 Y:4E P:2C SP:F1 STACK: 00 00 C6 31 C6 AB FD EA FD A9 FD EA FD EA
00AC  00        BRK                             A:01 X:97 Y:4E P:2C SP:F1 STACK: 00 00 C6 31 C6 AB FD EA FD A9 FD EA FD EA
00AD  00        BRK                             A:01 X:97 Y:4E P:2C SP:F1 STACK: 00 00 C6 31 C6 AB FD EA FD A9 FD EA FD EA
00AE  00        BRK                             A:01 X:97 Y:4E P:2C SP:F1 STACK: 00 00 C6 31 C6 AB FD EA FD A9 FD EA FD EA
00AF  00        BRK                             A:01 X:97 Y:4E P:2C SP:F1 STACK: 00 00 C6 31 C6 AB FD EA FD A9 FD EA FD EA
00B0  00        BRK                             A:01 X:97 Y:4E P:2C SP:F1 STACK: 00 00 C6 31 C6 AB FD EA FD A9 FD EA FD EA
00B1  00        BRK                             A:01 X:97 Y:4E P:2C SP:F1 STACK: 00 00 C6 31 C6 AB FD EA FD A9 FD EA FD EA
00B2  00        BRK                             A:01 X:97 Y:4E P:2C SP:F1 STACK: 00 00 C6 31 C6 AB FD EA FD A9 FD EA FD EA
00B3  00        BRK                             A:01 X:97 Y:4E P:2C SP:F1 STACK: 00 00 C6 31 C6 AB FD EA FD A9 FD EA FD EA
00B4  00        BRK                             A:01 X:97 Y:4E P:2C SP:F1 STACK: 00 00 C6 31 C6 AB FD EA FD A9 FD EA FD EA
00B5  00        BRK                             A:01 X:97 Y:4E P:2C SP:F1 STACK: 00 00 C6 31 C6 AB FD EA FD A9 FD EA FD EA
00B6  00        BRK                             A:01 X:97 Y:4E P:2C SP:F1 STACK: 00 00 C6 31 C6 AB FD EA FD A9 FD EA FD EA
00B7  00        BRK                             A:01 X:97 Y:4E P:2C SP:F1 STACK: 00 00 C6 31 C6 AB FD EA FD A9 FD EA FD EA
00B8  00        BRK                             A:01 X:97 Y:4E P:2C SP:F1 STACK: 00 00 C6 31 C6 AB FD EA FD A9 FD EA FD EA
00B9  00        BRK                             A:01 X:97 Y:4E P:2C SP:F1 STACK: 00 00 C6 31 C6 AB FD EA FD A9 FD EA FD EA
00BA  00        BRK                             A:01 X:97 Y:4E P:2C SP:F1 STACK: 00 00 C6 31 C6 AB FD EA FD A9 FD EA FD EA
00BB  00        BRK                             A:01 X:97 Y:4E P:2C SP:F1 STACK: 00 00 C6 31 C6 AB FD EA FD A9 FD EA FD EA
00BC  00        BRK                             A:01 X:97 Y:4E P:2C SP:F1 STACK: 00 00 C6 31 C6 AB FD EA FD A9 FD EA FD EA
00BD  00        BRK                             A:01 X:97 Y:4E P:2C SP:F1 STACK: 00 00 C6 31 C6 AB FD EA FD A9 FD EA FD EA
00BE  00        BRK                             A:01 X:97 Y:4E P:2C SP:F1 STACK: 00 00 C6 31 C6 AB FD EA FD A9 FD EA FD EA
00BF  00        BRK                             A:01 X:97 Y:4E P:2C SP:F1 STACK: 00 00 C6 31 C6 AB FD EA FD A9 FD EA FD EA
00C0  00        BRK                             A:01 X:97 Y:4E P:2C SP:F1 STACK: 00 00 C6 31 C6 AB FD EA FD A9 FD EA FD EA
00C1  00        BRK                             A:01 X:97 Y:4E P:2C SP:F1 STACK: 00 00 C6 31 C6 AB FD EA FD A9 FD EA FD EA
00C2  00        BRK                             A:01 X:97 Y:4E P:2C SP:F1 STACK: 00 00 C6 31 C6 AB FD EA FD A9 FD EA FD EA
00C3  00        BRK                             A:01 X:97 Y:4E P:2C SP:F1 STACK: 00 00 C6 31 C6 AB FD EA FD A9 FD EA FD EA
00C4  00        BRK                             A:01 X:97 Y:4E P:2C SP:F1 STACK: 00 00 C6 31 C6 AB FD EA FD A9 FD EA FD EA
00C5  00        BRK                             A:01 X:97 Y:4E P:2C SP:F1 STACK: 00 00 C6 31 C6 AB FD EA FD A9 FD EA FD EA
00C6  00        BRK                             A:01 X:97 Y:4E P:2C SP:F1 STACK: 00 00 C6 31 C6 AB FD EA FD A9 FD EA FD EA
00C7  00        BRK                             A:01 X:97 Y:4E P:2C SP:F1 STACK: 00 00 C6 31 C6 AB FD EA FD A9 FD EA FD EA
00C8  00        BRK                             A:01 X:97 Y:4E P:2C SP:F1 STACK: 00 00 C6 31 C6 AB FD EA FD A9 FD EA FD EA
00C9  00        BRK                             A:01 X:97 Y:4E P:2C SP:F1 STACK: 00 00 C6 31 C6 AB FD EA FD A9 FD EA FD EA
00CA  00        BRK                             A:01 X:97 Y:4E P:2C SP:F1 STACK: 00 00 C6 31 C6 AB FD EA FD A9 FD EA FD EA
00CB  00        BRK                             A:01 X:97 Y:4E P:2C SP:F1 STACK: 00 00 C6 31 C6 AB FD EA FD A9 FD EA FD EA
00CC  00        BRK                             A:01 X:97 Y:4E P:2C SP:F1 STACK: 00 00 C6 31 C6 AB FD EA FD A9 FD EA FD EA
00CD  00        BRK                             A:01 X:97 Y:4E P:2C SP:F1 STACK: 00 00 C6 31 C6 AB FD EA FD A9 FD EA FD EA
00CE  00        BRK                             A:01 X:97 Y:4E P:2C SP:F1 STACK: 00 00 C6 31 C6 AB FD EA FD A9 FD EA FD EA
00CF  00        BRK                             A:01 X:97 Y:4E P:2C SP:F1 STACK: 00 00 C6 31 C6 AB FD EA FD A9 FD EA FD EA
00D0  00        BRK                             A:01 X:97 Y:4E P:2C SP:F1 STACK: 00 00 C6 31 C6 AB FD EA FD A9 FD EA FD EA
00D1  00        BRK                             A:01 X:97 Y:4E P:2C SP:F1 STACK: 00 00 C6 31 C6 AB FD EA FD A9 FD EA FD EA
00D2  00        BRK                             A:01 X:97 Y:4E P:2C SP:F1 STACK: 00 00 C6 31 C6 AB FD EA FD A9 FD EA FD EA
00D3  00        BRK                             A:01 X:97 Y:4E P:2C SP:F1 STACK: 00 00 C6 31 C6 AB FD EA FD A9 FD EA FD EA
00D4  00        BRK                             A:01 X:97 Y:4E P:2C SP:F1 STACK: 00 00 C6 31 C6 AB FD EA FD A9 FD EA FD EA
00D5  00        BRK                             A:01 X:97 Y:4E P:2C SP:F1 STACK: 00 00 C6 31 C6 AB FD EA FD A9 FD EA FD EA
00D6  00        BRK                             A:01 X:97 Y:4E P:2C SP:F1 STACK: 00 00 C6 31 C6 AB FD EA FD A9 FD EA FD EA
00D7  00        BRK                             A:01 X:97 Y:4E P:2C SP:F1 STACK: 00 00 C6 31 C6 AB FD EA FD A9 FD EA FD EA
00D8  00        BRK                             A:01 X:97 Y:4E P:2C SP:F1 STACK: 00 00 C6 31 C6 AB FD EA FD A9 FD EA FD EA
00D9  00        BRK                             A:01 X:97 Y:4E P:2C SP:F1 STACK: 00 00 C6 31 C6 AB FD EA FD A9 FD EA FD EA
00DA  00        BRK                             A:01 X:97 Y:4E P:2C SP:F1 STACK: 00 00 C6 31 C6 AB FD EA FD A9 FD EA FD EA
00DB  00        BRK                             A:01 X:97 Y:4E P:2C SP:F1 STACK: 00 00 C6 31 C6 AB FD EA FD A9 FD EA FD EA
00DC  00        BRK                             A:01 X:97 Y:4E P:2C SP:F1 STACK: 00 00 C6 31 C6 AB FD EA FD A9 FD EA FD EA
00DD  00        BRK                             A:01 X:97 Y:4E P:2C SP:F1 STACK: 00 00 C6 31 C6 AB FD EA FD A9 FD EA FD EA
00DE  00        BRK                             A:01 X:97 Y:4E P:2C SP:F1 STACK: 00 00 C6 31 C6 AB FD EA FD A9 FD EA FD EA
00DF  00        BRK                             A:01 X:97 Y:4E P:2C SP:F1 STACK: 00 00 C6 31 C6 AB FD EA FD A9 FD EA FD EA
00E0  00        BRK                             A:01 X:97 Y:4E P:2C SP:F1 STACK: 00 00 C6 31 C6 AB FD EA FD A9 FD EA FD EA
00E1  00        BRK                             A:01 X:97 Y:4E P:2C SP:F1 STACK: 00 00 C6 31 C6 AB FD EA FD A9 FD EA FD EA
00E2  00        BRK                             A:01 X:97 Y:4E P:2C SP:F1 STACK: 00 00 C6 31 C6 AB FD EA FD A9 FD EA FD EA
00E3  00        BRK                             A:01 X:97 Y:4E P:2C SP:F1 STACK: 00 00 C6 31 C6 AB FD EA FD A9 FD EA FD EA
00E4  00        BRK                             A:01 X:97 Y:4E P:2C SP:F1 STACK: 00 00 C6 31 C6 AB FD EA FD A9 FD EA FD EA
00E5  00        BRK                             A:01 X:97 Y:4E P:2C SP:F1 STACK: 00 00 C6 31 C6 AB FD EA FD A9 FD EA FD EA
00E6  00        BRK                             A:01 X:97 Y:4E P:2C SP:F1 STACK: 00 00 C6 31 C6 AB FD EA FD A9 FD EA FD EA
00E7  00        BRK                             A:01 X:97 Y:4E P:2C SP:F1 STACK: 00 00 C6 31 C6 AB FD EA FD A9 FD EA FD EA
00E8  00        BRK                             A:01 X:97 Y:4E P:2C SP:F1 STACK: 00 00 C6 31 C6 AB FD EA FD A9 FD EA FD EA
00E9  00        BRK                             A:01 X:97 Y:4E P:2C SP:F1 STACK: 00 00 C6 31 C6 AB FD EA FD A9 FD EA FD EA
00EA  00        BRK                             A:01 X:97 Y:4E P:2C SP:F1 STACK: 00 00 C6 31 C6 AB FD EA FD A9 FD EA FD EA
00EB  00        BRK                             A:01 X:97 Y:4E P:2C SP:F1 STACK: 00 00 C6 31 C6 AB FD EA FD A9 FD EA FD EA
00EC  00        BRK                             A:01 X:97 Y:4E P:2C SP:F1 STACK: 00 00 C6 31 C6 AB FD EA FD A9 FD EA FD EA
00ED  00        BRK                             A:01 X:97 Y:4E P:2C SP:F1 STACK: 00 00 C6 31 C6 AB FD EA FD A9 FD EA FD EA
00EE  00        BRK                             A:01 X:97 Y:4E P:2C SP:F1 STACK: 00 00 C6 31 C6 AB FD EA FD A9 FD EA FD EA
00EF  00        BRK                             A:01 X:97 Y:4E P:2C SP:F1 STACK: 00 00 C6 31 C6 AB FD EA FD A9 FD EA FD EA
00F0  00        BRK                             A:01 X:97 Y:4E P:2C SP:F1 STACK: 00 00 C6 31 C6 AB FD EA FD A9 FD EA FD EA
00F1  00        BRK                             A:01 X:97 Y:4E P:2C SP:F1 STACK: 00 00 C6 31 C6 AB FD EA FD A9 FD EA FD EA
00F2  00        BRK                             A:01 X:97 Y:4E P:2C SP:F1 STACK: 00 00 C6 31 C6 AB FD EA FD A9 FD EA FD EA
00F3  00        BRK                             A:01 X:97 Y:4E P:2C SP:F1 STACK: 00 00 C6 31 C6 AB FD EA FD A9 FD EA FD EA
00F4  00        BRK                             A:01 X:97 Y:4E P:2C SP:F1 STACK: 00 00 C6 31 C6 AB FD EA FD A9 FD EA FD EA
00F5  00        BRK                             A:01 X:97 Y:4E P:2C SP:F1 STACK: 00 00 C6 31 C6 AB FD EA FD A9 FD EA FD EA
00F6  00        BRK                             A:01 X:97 Y:4E P:2C SP:F1 STACK: 00 00 C6 31 C6 AB FD EA FD A9 FD EA FD EA
00F7  00        BRK                             A:01 X:97 Y:4E P:2C SP:F1 STACK: 00 00 C6 31 C6 AB FD EA FD A9 FD EA FD EA
00F8  00        BRK                             A:01 X:97 Y:4E P:2C SP:F1 STACK: 00 00 C6 31 C6 AB FD EA FD A9 FD EA FD EA
00F9  00        BRK                             A:01 X:97 Y:4E P:2C SP:F1 STACK: 00 00 C6 31 C6 AB FD EA FD A9 FD EA FD EA
00FA  00        BRK                             A:01 X:97 Y:4E P:2C SP:F1 STACK: 00 00 C6 31 C6 AB FD EA FD A9 FD EA FD EA
00FB  00        BRK                             A:01 X:97 Y:4E P:2C SP:F1 STACK: 00 00 C6 31 C6 AB FD EA FD A9 FD EA FD EA
00FC  00        BRK                             A:01 X:97 Y:4E P:2C SP:F1 STACK: 00 00 C6 31 C6 AB FD EA FD A9 FD EA FD EA
00FD  00        BRK                             A:01 X:97 Y:4E P:2C SP:F1 STACK: 00 00 C6 31 C6 AB FD EA FD A9 FD EA FD EA
00FE  00        BRK                             A:01 X:97 Y:4E P:2C SP:F1 STACK: 00 00 C6 31 C6 AB FD EA FD A9 FD EA FD EA
00FF  46 A9     LSR $A9 = 00                    A:01 X:97 Y:4E P:2C SP:F1 STACK: 00 00 C6 31 C6 AB FD EA FD A9 FD EA FD EA
